
bootrom.elf:     file format elf64-littleriscv


Disassembly of section .text:

0000000060010000 <_start>:
    60010000:	00000093          	li	ra,0
    60010004:	00000113          	li	sp,0
    60010008:	00000193          	li	gp,0
    6001000c:	00000213          	li	tp,0
    60010010:	00000293          	li	t0,0
    60010014:	00000313          	li	t1,0
    60010018:	00000393          	li	t2,0
    6001001c:	00000413          	li	s0,0
    60010020:	00000493          	li	s1,0
    60010024:	00000513          	li	a0,0
    60010028:	00000593          	li	a1,0
    6001002c:	00000613          	li	a2,0
    60010030:	00000693          	li	a3,0
    60010034:	00000713          	li	a4,0
    60010038:	00000793          	li	a5,0
    6001003c:	00000813          	li	a6,0
    60010040:	00000893          	li	a7,0
    60010044:	00000913          	li	s2,0
    60010048:	00000993          	li	s3,0
    6001004c:	00000a13          	li	s4,0
    60010050:	00000a93          	li	s5,0
    60010054:	00000b13          	li	s6,0
    60010058:	00000b93          	li	s7,0
    6001005c:	00000c13          	li	s8,0
    60010060:	00000c93          	li	s9,0
    60010064:	00000d13          	li	s10,0
    60010068:	00000d93          	li	s11,0
    6001006c:	00000e13          	li	t3,0
    60010070:	00000e93          	li	t4,0
    60010074:	00000f13          	li	t5,0
    60010078:	00000f93          	li	t6,0
    6001007c:	6001f137          	lui	sp,0x6001f
    60010080:	010000ef          	jal	ra,60010090 <main>
    60010084:	0010041b          	addiw	s0,zero,1
    60010088:	01f41413          	slli	s0,s0,0x1f
    6001008c:	00040067          	jr	s0

0000000060010090 <main>:
    60010090:	d9010113          	addi	sp,sp,-624 # 6001ed90 <FatFs+0x4ab8>
    60010094:	26113423          	sd	ra,616(sp)
    60010098:	26813023          	sd	s0,608(sp)
    6001009c:	27010413          	addi	s0,sp,624
    600100a0:	0ac090ef          	jal	ra,6001914c <get_ddr_base>
    600100a4:	00050713          	mv	a4,a0
    600100a8:	070007b7          	lui	a5,0x7000
    600100ac:	00f707b3          	add	a5,a4,a5
    600100b0:	fcf43c23          	sd	a5,-40(s0)
    600100b4:	098090ef          	jal	ra,6001914c <get_ddr_base>
    600100b8:	fca43823          	sd	a0,-48(s0)
    600100bc:	238000ef          	jal	ra,600102f4 <uart_init>
    600100c0:	00000593          	li	a1,0
    600100c4:	6001a7b7          	lui	a5,0x6001a
    600100c8:	00078513          	mv	a0,a5
    600100cc:	334000ef          	jal	ra,60010400 <printf>
    600100d0:	00100613          	li	a2,1
    600100d4:	6001a7b7          	lui	a5,0x6001a
    600100d8:	04878593          	addi	a1,a5,72 # 6001a048 <get_flash_base+0xed8>
    600100dc:	6001a7b7          	lui	a5,0x6001a
    600100e0:	2d878513          	addi	a0,a5,728 # 6001a2d8 <FatFs>
    600100e4:	624050ef          	jal	ra,60015708 <f_mount>
    600100e8:	00050793          	mv	a5,a0
    600100ec:	0007879b          	sext.w	a5,a5
    600100f0:	00078e63          	beqz	a5,6001010c <main+0x7c>
    600100f4:	00000593          	li	a1,0
    600100f8:	6001a7b7          	lui	a5,0x6001a
    600100fc:	05078513          	addi	a0,a5,80 # 6001a050 <get_flash_base+0xee0>
    60010100:	300000ef          	jal	ra,60010400 <printf>
    60010104:	00100793          	li	a5,1
    60010108:	1d80006f          	j	600102e0 <main+0x250>
    6001010c:	00000593          	li	a1,0
    60010110:	6001a7b7          	lui	a5,0x6001a
    60010114:	07078513          	addi	a0,a5,112 # 6001a070 <get_flash_base+0xf00>
    60010118:	2e8000ef          	jal	ra,60010400 <printf>
    6001011c:	d9840713          	addi	a4,s0,-616
    60010120:	00100613          	li	a2,1
    60010124:	6001a7b7          	lui	a5,0x6001a
    60010128:	09078593          	addi	a1,a5,144 # 6001a090 <get_flash_base+0xf20>
    6001012c:	00070513          	mv	a0,a4
    60010130:	6d8050ef          	jal	ra,60015808 <f_open>
    60010134:	00050793          	mv	a5,a0
    60010138:	fcf42623          	sw	a5,-52(s0)
    6001013c:	fcc42783          	lw	a5,-52(s0)
    60010140:	0007879b          	sext.w	a5,a5
    60010144:	00078e63          	beqz	a5,60010160 <main+0xd0>
    60010148:	00000593          	li	a1,0
    6001014c:	6001a7b7          	lui	a5,0x6001a
    60010150:	0a078513          	addi	a0,a5,160 # 6001a0a0 <get_flash_base+0xf30>
    60010154:	2ac000ef          	jal	ra,60010400 <printf>
    60010158:	fcc42783          	lw	a5,-52(s0)
    6001015c:	1840006f          	j	600102e0 <main+0x250>
    60010160:	fd843783          	ld	a5,-40(s0)
    60010164:	fef43423          	sd	a5,-24(s0)
    60010168:	fe042223          	sw	zero,-28(s0)
    6001016c:	d9440713          	addi	a4,s0,-620
    60010170:	d9840793          	addi	a5,s0,-616
    60010174:	00070693          	mv	a3,a4
    60010178:	00001637          	lui	a2,0x1
    6001017c:	fe843583          	ld	a1,-24(s0)
    60010180:	00078513          	mv	a0,a5
    60010184:	391050ef          	jal	ra,60015d14 <f_read>
    60010188:	00050793          	mv	a5,a0
    6001018c:	fcf42623          	sw	a5,-52(s0)
    60010190:	d9442783          	lw	a5,-620(s0)
    60010194:	02079793          	slli	a5,a5,0x20
    60010198:	0207d793          	srli	a5,a5,0x20
    6001019c:	fe843703          	ld	a4,-24(s0)
    600101a0:	00f707b3          	add	a5,a4,a5
    600101a4:	fef43423          	sd	a5,-24(s0)
    600101a8:	d9442783          	lw	a5,-620(s0)
    600101ac:	fe442703          	lw	a4,-28(s0)
    600101b0:	00f707bb          	addw	a5,a4,a5
    600101b4:	fef42223          	sw	a5,-28(s0)
    600101b8:	fcc42783          	lw	a5,-52(s0)
    600101bc:	0007879b          	sext.w	a5,a5
    600101c0:	00079663          	bnez	a5,600101cc <main+0x13c>
    600101c4:	d9442783          	lw	a5,-620(s0)
    600101c8:	fa0792e3          	bnez	a5,6001016c <main+0xdc>
    600101cc:	fe446783          	lwu	a5,-28(s0)
    600101d0:	00078593          	mv	a1,a5
    600101d4:	6001a7b7          	lui	a5,0x6001a
    600101d8:	0b878513          	addi	a0,a5,184 # 6001a0b8 <get_flash_base+0xf48>
    600101dc:	224000ef          	jal	ra,60010400 <printf>
    600101e0:	fd843783          	ld	a5,-40(s0)
    600101e4:	00078593          	mv	a1,a5
    600101e8:	6001a7b7          	lui	a5,0x6001a
    600101ec:	0e078513          	addi	a0,a5,224 # 6001a0e0 <get_flash_base+0xf70>
    600101f0:	210000ef          	jal	ra,60010400 <printf>
    600101f4:	da842783          	lw	a5,-600(s0)
    600101f8:	02079793          	slli	a5,a5,0x20
    600101fc:	0207d793          	srli	a5,a5,0x20
    60010200:	00078593          	mv	a1,a5
    60010204:	6001a7b7          	lui	a5,0x6001a
    60010208:	0f878513          	addi	a0,a5,248 # 6001a0f8 <get_flash_base+0xf88>
    6001020c:	1f4000ef          	jal	ra,60010400 <printf>
    60010210:	00000593          	li	a1,0
    60010214:	6001a7b7          	lui	a5,0x6001a
    60010218:	10878513          	addi	a0,a5,264 # 6001a108 <get_flash_base+0xf98>
    6001021c:	1e4000ef          	jal	ra,60010400 <printf>
    60010220:	da842783          	lw	a5,-600(s0)
    60010224:	00078593          	mv	a1,a5
    60010228:	fd843503          	ld	a0,-40(s0)
    6001022c:	42c000ef          	jal	ra,60010658 <load_elf>
    60010230:	00050793          	mv	a5,a0
    60010234:	0007879b          	sext.w	a5,a5
    60010238:	d8f42a23          	sw	a5,-620(s0)
    6001023c:	d9442783          	lw	a5,-620(s0)
    60010240:	02078063          	beqz	a5,60010260 <main+0x1d0>
    60010244:	d9442783          	lw	a5,-620(s0)
    60010248:	02079793          	slli	a5,a5,0x20
    6001024c:	0207d793          	srli	a5,a5,0x20
    60010250:	00078593          	mv	a1,a5
    60010254:	6001a7b7          	lui	a5,0x6001a
    60010258:	12878513          	addi	a0,a5,296 # 6001a128 <get_flash_base+0xfb8>
    6001025c:	1a4000ef          	jal	ra,60010400 <printf>
    60010260:	d9840793          	addi	a5,s0,-616
    60010264:	00078513          	mv	a0,a5
    60010268:	009060ef          	jal	ra,60016a70 <f_close>
    6001026c:	00050793          	mv	a5,a0
    60010270:	0007879b          	sext.w	a5,a5
    60010274:	00078e63          	beqz	a5,60010290 <main+0x200>
    60010278:	00000593          	li	a1,0
    6001027c:	6001a7b7          	lui	a5,0x6001a
    60010280:	14878513          	addi	a0,a5,328 # 6001a148 <get_flash_base+0xfd8>
    60010284:	17c000ef          	jal	ra,60010400 <printf>
    60010288:	00100793          	li	a5,1
    6001028c:	0540006f          	j	600102e0 <main+0x250>
    60010290:	00100613          	li	a2,1
    60010294:	6001a7b7          	lui	a5,0x6001a
    60010298:	04878593          	addi	a1,a5,72 # 6001a048 <get_flash_base+0xed8>
    6001029c:	00000513          	li	a0,0
    600102a0:	468050ef          	jal	ra,60015708 <f_mount>
    600102a4:	00050793          	mv	a5,a0
    600102a8:	0007879b          	sext.w	a5,a5
    600102ac:	00078e63          	beqz	a5,600102c8 <main+0x238>
    600102b0:	00000593          	li	a1,0
    600102b4:	6001a7b7          	lui	a5,0x6001a
    600102b8:	16078513          	addi	a0,a5,352 # 6001a160 <get_flash_base+0xff0>
    600102bc:	144000ef          	jal	ra,60010400 <printf>
    600102c0:	00100793          	li	a5,1
    600102c4:	01c0006f          	j	600102e0 <main+0x250>
    600102c8:	7a0000ef          	jal	ra,60010a68 <spi_disable>
    600102cc:	00000593          	li	a1,0
    600102d0:	6001a7b7          	lui	a5,0x6001a
    600102d4:	17878513          	addi	a0,a5,376 # 6001a178 <get_flash_base+0x1008>
    600102d8:	128000ef          	jal	ra,60010400 <printf>
    600102dc:	00000793          	li	a5,0
    600102e0:	00078513          	mv	a0,a5
    600102e4:	26813083          	ld	ra,616(sp)
    600102e8:	26013403          	ld	s0,608(sp)
    600102ec:	27010113          	addi	sp,sp,624
    600102f0:	00008067          	ret

00000000600102f4 <uart_init>:
    600102f4:	ff010113          	addi	sp,sp,-16
    600102f8:	00813423          	sd	s0,8(sp)
    600102fc:	01010413          	addi	s0,sp,16
    60010300:	600207b7          	lui	a5,0x60020
    60010304:	f007b783          	ld	a5,-256(a5) # 6001ff00 <uart_base_ptr>
    60010308:	00c78793          	addi	a5,a5,12
    6001030c:	08000713          	li	a4,128
    60010310:	00e7a023          	sw	a4,0(a5)
    60010314:	600207b7          	lui	a5,0x60020
    60010318:	f007b783          	ld	a5,-256(a5) # 6001ff00 <uart_base_ptr>
    6001031c:	01000713          	li	a4,16
    60010320:	00e7a023          	sw	a4,0(a5)
    60010324:	600207b7          	lui	a5,0x60020
    60010328:	f007b783          	ld	a5,-256(a5) # 6001ff00 <uart_base_ptr>
    6001032c:	00478793          	addi	a5,a5,4
    60010330:	0007a023          	sw	zero,0(a5)
    60010334:	600207b7          	lui	a5,0x60020
    60010338:	f007b783          	ld	a5,-256(a5) # 6001ff00 <uart_base_ptr>
    6001033c:	00c78793          	addi	a5,a5,12
    60010340:	00b00713          	li	a4,11
    60010344:	00e7a023          	sw	a4,0(a5)
    60010348:	600207b7          	lui	a5,0x60020
    6001034c:	f007b783          	ld	a5,-256(a5) # 6001ff00 <uart_base_ptr>
    60010350:	00478793          	addi	a5,a5,4
    60010354:	00100713          	li	a4,1
    60010358:	00e7a023          	sw	a4,0(a5)
    6001035c:	00000013          	nop
    60010360:	00813403          	ld	s0,8(sp)
    60010364:	01010113          	addi	sp,sp,16
    60010368:	00008067          	ret

000000006001036c <uart_send>:
    6001036c:	fe010113          	addi	sp,sp,-32
    60010370:	00813c23          	sd	s0,24(sp)
    60010374:	02010413          	addi	s0,sp,32
    60010378:	00050793          	mv	a5,a0
    6001037c:	fef407a3          	sb	a5,-17(s0)
    60010380:	00000013          	nop
    60010384:	600207b7          	lui	a5,0x60020
    60010388:	f007b783          	ld	a5,-256(a5) # 6001ff00 <uart_base_ptr>
    6001038c:	01478793          	addi	a5,a5,20
    60010390:	0007a783          	lw	a5,0(a5)
    60010394:	0007879b          	sext.w	a5,a5
    60010398:	0407f793          	andi	a5,a5,64
    6001039c:	0007879b          	sext.w	a5,a5
    600103a0:	fe0782e3          	beqz	a5,60010384 <uart_send+0x18>
    600103a4:	600207b7          	lui	a5,0x60020
    600103a8:	f007b783          	ld	a5,-256(a5) # 6001ff00 <uart_base_ptr>
    600103ac:	fef44703          	lbu	a4,-17(s0)
    600103b0:	0007071b          	sext.w	a4,a4
    600103b4:	00e7a023          	sw	a4,0(a5)
    600103b8:	00000013          	nop
    600103bc:	01813403          	ld	s0,24(sp)
    600103c0:	02010113          	addi	sp,sp,32
    600103c4:	00008067          	ret

00000000600103c8 <putch>:
    600103c8:	fe010113          	addi	sp,sp,-32
    600103cc:	00113c23          	sd	ra,24(sp)
    600103d0:	00813823          	sd	s0,16(sp)
    600103d4:	02010413          	addi	s0,sp,32
    600103d8:	00050793          	mv	a5,a0
    600103dc:	fef407a3          	sb	a5,-17(s0)
    600103e0:	fef44783          	lbu	a5,-17(s0)
    600103e4:	00078513          	mv	a0,a5
    600103e8:	f85ff0ef          	jal	ra,6001036c <uart_send>
    600103ec:	00000013          	nop
    600103f0:	01813083          	ld	ra,24(sp)
    600103f4:	01013403          	ld	s0,16(sp)
    600103f8:	02010113          	addi	sp,sp,32
    600103fc:	00008067          	ret

0000000060010400 <printf>:
    60010400:	fd010113          	addi	sp,sp,-48
    60010404:	02113423          	sd	ra,40(sp)
    60010408:	02813023          	sd	s0,32(sp)
    6001040c:	03010413          	addi	s0,sp,48
    60010410:	fca43c23          	sd	a0,-40(s0)
    60010414:	fcb43823          	sd	a1,-48(s0)
    60010418:	fe042623          	sw	zero,-20(s0)
    6001041c:	0b00006f          	j	600104cc <printf+0xcc>
    60010420:	fec42783          	lw	a5,-20(s0)
    60010424:	fd843703          	ld	a4,-40(s0)
    60010428:	00f707b3          	add	a5,a4,a5
    6001042c:	0007c783          	lbu	a5,0(a5)
    60010430:	00078713          	mv	a4,a5
    60010434:	02500793          	li	a5,37
    60010438:	02f70663          	beq	a4,a5,60010464 <printf+0x64>
    6001043c:	fec42783          	lw	a5,-20(s0)
    60010440:	0017871b          	addiw	a4,a5,1
    60010444:	fee42623          	sw	a4,-20(s0)
    60010448:	00078713          	mv	a4,a5
    6001044c:	fd843783          	ld	a5,-40(s0)
    60010450:	00e787b3          	add	a5,a5,a4
    60010454:	0007c783          	lbu	a5,0(a5)
    60010458:	00078513          	mv	a0,a5
    6001045c:	f6dff0ef          	jal	ra,600103c8 <putch>
    60010460:	06c0006f          	j	600104cc <printf+0xcc>
    60010464:	fec42783          	lw	a5,-20(s0)
    60010468:	0017879b          	addiw	a5,a5,1
    6001046c:	fef42623          	sw	a5,-20(s0)
    60010470:	fec42783          	lw	a5,-20(s0)
    60010474:	fd843703          	ld	a4,-40(s0)
    60010478:	00f707b3          	add	a5,a4,a5
    6001047c:	0007c783          	lbu	a5,0(a5)
    60010480:	0007879b          	sext.w	a5,a5
    60010484:	00078713          	mv	a4,a5
    60010488:	06400793          	li	a5,100
    6001048c:	02f71863          	bne	a4,a5,600104bc <printf+0xbc>
    60010490:	fd043783          	ld	a5,-48(s0)
    60010494:	00079863          	bnez	a5,600104a4 <printf+0xa4>
    60010498:	03000513          	li	a0,48
    6001049c:	f2dff0ef          	jal	ra,600103c8 <putch>
    600104a0:	00c0006f          	j	600104ac <printf+0xac>
    600104a4:	fd043503          	ld	a0,-48(s0)
    600104a8:	04c000ef          	jal	ra,600104f4 <printNum>
    600104ac:	fec42783          	lw	a5,-20(s0)
    600104b0:	0017879b          	addiw	a5,a5,1
    600104b4:	fef42623          	sw	a5,-20(s0)
    600104b8:	0140006f          	j	600104cc <printf+0xcc>
    600104bc:	fec42783          	lw	a5,-20(s0)
    600104c0:	0017879b          	addiw	a5,a5,1
    600104c4:	fef42623          	sw	a5,-20(s0)
    600104c8:	00000013          	nop
    600104cc:	fec42783          	lw	a5,-20(s0)
    600104d0:	fd843703          	ld	a4,-40(s0)
    600104d4:	00f707b3          	add	a5,a4,a5
    600104d8:	0007c783          	lbu	a5,0(a5)
    600104dc:	f40792e3          	bnez	a5,60010420 <printf+0x20>
    600104e0:	00000013          	nop
    600104e4:	02813083          	ld	ra,40(sp)
    600104e8:	02013403          	ld	s0,32(sp)
    600104ec:	03010113          	addi	sp,sp,48
    600104f0:	00008067          	ret

00000000600104f4 <printNum>:
    600104f4:	fe010113          	addi	sp,sp,-32
    600104f8:	00113c23          	sd	ra,24(sp)
    600104fc:	00813823          	sd	s0,16(sp)
    60010500:	02010413          	addi	s0,sp,32
    60010504:	fea43423          	sd	a0,-24(s0)
    60010508:	fe843783          	ld	a5,-24(s0)
    6001050c:	02078e63          	beqz	a5,60010548 <printNum+0x54>
    60010510:	fe843703          	ld	a4,-24(s0)
    60010514:	00a00793          	li	a5,10
    60010518:	02f757b3          	divu	a5,a4,a5
    6001051c:	00078513          	mv	a0,a5
    60010520:	fd5ff0ef          	jal	ra,600104f4 <printNum>
    60010524:	fe843703          	ld	a4,-24(s0)
    60010528:	00a00793          	li	a5,10
    6001052c:	02f777b3          	remu	a5,a4,a5
    60010530:	0ff7f793          	andi	a5,a5,255
    60010534:	0307879b          	addiw	a5,a5,48
    60010538:	0ff7f793          	andi	a5,a5,255
    6001053c:	00078513          	mv	a0,a5
    60010540:	e89ff0ef          	jal	ra,600103c8 <putch>
    60010544:	0080006f          	j	6001054c <printNum+0x58>
    60010548:	00000013          	nop
    6001054c:	01813083          	ld	ra,24(sp)
    60010550:	01013403          	ld	s0,16(sp)
    60010554:	02010113          	addi	sp,sp,32
    60010558:	00008067          	ret

000000006001055c <memSet>:
    6001055c:	fc010113          	addi	sp,sp,-64
    60010560:	02813c23          	sd	s0,56(sp)
    60010564:	04010413          	addi	s0,sp,64
    60010568:	fca43c23          	sd	a0,-40(s0)
    6001056c:	00058793          	mv	a5,a1
    60010570:	fcc43423          	sd	a2,-56(s0)
    60010574:	fcf42a23          	sw	a5,-44(s0)
    60010578:	fd843783          	ld	a5,-40(s0)
    6001057c:	00079663          	bnez	a5,60010588 <memSet+0x2c>
    60010580:	00000793          	li	a5,0
    60010584:	03c0006f          	j	600105c0 <memSet+0x64>
    60010588:	fd843783          	ld	a5,-40(s0)
    6001058c:	fef43423          	sd	a5,-24(s0)
    60010590:	01c0006f          	j	600105ac <memSet+0x50>
    60010594:	fe843783          	ld	a5,-24(s0)
    60010598:	00178713          	addi	a4,a5,1
    6001059c:	fee43423          	sd	a4,-24(s0)
    600105a0:	fd442703          	lw	a4,-44(s0)
    600105a4:	0ff77713          	andi	a4,a4,255
    600105a8:	00e78023          	sb	a4,0(a5)
    600105ac:	fc843783          	ld	a5,-56(s0)
    600105b0:	fff78713          	addi	a4,a5,-1
    600105b4:	fce43423          	sd	a4,-56(s0)
    600105b8:	fc079ee3          	bnez	a5,60010594 <memSet+0x38>
    600105bc:	fd843783          	ld	a5,-40(s0)
    600105c0:	00078513          	mv	a0,a5
    600105c4:	03813403          	ld	s0,56(sp)
    600105c8:	04010113          	addi	sp,sp,64
    600105cc:	00008067          	ret

00000000600105d0 <memCpy>:
    600105d0:	fc010113          	addi	sp,sp,-64
    600105d4:	02813c23          	sd	s0,56(sp)
    600105d8:	04010413          	addi	s0,sp,64
    600105dc:	fca43c23          	sd	a0,-40(s0)
    600105e0:	fcb43823          	sd	a1,-48(s0)
    600105e4:	fcc43423          	sd	a2,-56(s0)
    600105e8:	fd843783          	ld	a5,-40(s0)
    600105ec:	00078663          	beqz	a5,600105f8 <memCpy+0x28>
    600105f0:	fd043783          	ld	a5,-48(s0)
    600105f4:	00079663          	bnez	a5,60010600 <memCpy+0x30>
    600105f8:	00000793          	li	a5,0
    600105fc:	04c0006f          	j	60010648 <memCpy+0x78>
    60010600:	fd843783          	ld	a5,-40(s0)
    60010604:	fef43423          	sd	a5,-24(s0)
    60010608:	fd043783          	ld	a5,-48(s0)
    6001060c:	fef43023          	sd	a5,-32(s0)
    60010610:	0240006f          	j	60010634 <memCpy+0x64>
    60010614:	fe043703          	ld	a4,-32(s0)
    60010618:	00170793          	addi	a5,a4,1
    6001061c:	fef43023          	sd	a5,-32(s0)
    60010620:	fe843783          	ld	a5,-24(s0)
    60010624:	00178693          	addi	a3,a5,1
    60010628:	fed43423          	sd	a3,-24(s0)
    6001062c:	00074703          	lbu	a4,0(a4)
    60010630:	00e78023          	sb	a4,0(a5)
    60010634:	fc843783          	ld	a5,-56(s0)
    60010638:	fff78713          	addi	a4,a5,-1
    6001063c:	fce43423          	sd	a4,-56(s0)
    60010640:	fc079ae3          	bnez	a5,60010614 <memCpy+0x44>
    60010644:	fd843783          	ld	a5,-40(s0)
    60010648:	00078513          	mv	a0,a5
    6001064c:	03813403          	ld	s0,56(sp)
    60010650:	04010113          	addi	sp,sp,64
    60010654:	00008067          	ret

0000000060010658 <load_elf>:
    60010658:	fc010113          	addi	sp,sp,-64
    6001065c:	02113c23          	sd	ra,56(sp)
    60010660:	02813823          	sd	s0,48(sp)
    60010664:	04010413          	addi	s0,sp,64
    60010668:	fca43423          	sd	a0,-56(s0)
    6001066c:	00058793          	mv	a5,a1
    60010670:	fcf42223          	sw	a5,-60(s0)
    60010674:	fc442783          	lw	a5,-60(s0)
    60010678:	0007871b          	sext.w	a4,a5
    6001067c:	04000793          	li	a5,64
    60010680:	00e7e663          	bltu	a5,a4,6001068c <load_elf+0x34>
    60010684:	00100793          	li	a5,1
    60010688:	3480006f          	j	600109d0 <load_elf+0x378>
    6001068c:	fc843783          	ld	a5,-56(s0)
    60010690:	fef43023          	sd	a5,-32(s0)
    60010694:	fe043783          	ld	a5,-32(s0)
    60010698:	0007c783          	lbu	a5,0(a5)
    6001069c:	00078713          	mv	a4,a5
    600106a0:	07f00793          	li	a5,127
    600106a4:	04f71a63          	bne	a4,a5,600106f8 <load_elf+0xa0>
    600106a8:	fe043783          	ld	a5,-32(s0)
    600106ac:	0017c783          	lbu	a5,1(a5)
    600106b0:	00078713          	mv	a4,a5
    600106b4:	04500793          	li	a5,69
    600106b8:	04f71063          	bne	a4,a5,600106f8 <load_elf+0xa0>
    600106bc:	fe043783          	ld	a5,-32(s0)
    600106c0:	0027c783          	lbu	a5,2(a5)
    600106c4:	00078713          	mv	a4,a5
    600106c8:	04c00793          	li	a5,76
    600106cc:	02f71663          	bne	a4,a5,600106f8 <load_elf+0xa0>
    600106d0:	fe043783          	ld	a5,-32(s0)
    600106d4:	0037c783          	lbu	a5,3(a5)
    600106d8:	00078713          	mv	a4,a5
    600106dc:	04600793          	li	a5,70
    600106e0:	00f71c63          	bne	a4,a5,600106f8 <load_elf+0xa0>
    600106e4:	fe043783          	ld	a5,-32(s0)
    600106e8:	0047c783          	lbu	a5,4(a5)
    600106ec:	00078713          	mv	a4,a5
    600106f0:	00200793          	li	a5,2
    600106f4:	00f70663          	beq	a4,a5,60010700 <load_elf+0xa8>
    600106f8:	00200793          	li	a5,2
    600106fc:	2d40006f          	j	600109d0 <load_elf+0x378>
    60010700:	fe043783          	ld	a5,-32(s0)
    60010704:	0207b783          	ld	a5,32(a5)
    60010708:	fc843703          	ld	a4,-56(s0)
    6001070c:	00f707b3          	add	a5,a4,a5
    60010710:	fcf43c23          	sd	a5,-40(s0)
    60010714:	fc446703          	lwu	a4,-60(s0)
    60010718:	fe043783          	ld	a5,-32(s0)
    6001071c:	0207b683          	ld	a3,32(a5)
    60010720:	fe043783          	ld	a5,-32(s0)
    60010724:	0387d783          	lhu	a5,56(a5)
    60010728:	00078613          	mv	a2,a5
    6001072c:	00060793          	mv	a5,a2
    60010730:	00379793          	slli	a5,a5,0x3
    60010734:	40c787b3          	sub	a5,a5,a2
    60010738:	00379793          	slli	a5,a5,0x3
    6001073c:	00f687b3          	add	a5,a3,a5
    60010740:	00f77663          	bgeu	a4,a5,6001074c <load_elf+0xf4>
    60010744:	00300793          	li	a5,3
    60010748:	2880006f          	j	600109d0 <load_elf+0x378>
    6001074c:	fe042623          	sw	zero,-20(s0)
    60010750:	2640006f          	j	600109b4 <load_elf+0x35c>
    60010754:	fec46703          	lwu	a4,-20(s0)
    60010758:	00070793          	mv	a5,a4
    6001075c:	00379793          	slli	a5,a5,0x3
    60010760:	40e787b3          	sub	a5,a5,a4
    60010764:	00379793          	slli	a5,a5,0x3
    60010768:	00078713          	mv	a4,a5
    6001076c:	fd843783          	ld	a5,-40(s0)
    60010770:	00e787b3          	add	a5,a5,a4
    60010774:	0007a783          	lw	a5,0(a5)
    60010778:	00078713          	mv	a4,a5
    6001077c:	00100793          	li	a5,1
    60010780:	22f71463          	bne	a4,a5,600109a8 <load_elf+0x350>
    60010784:	fec46703          	lwu	a4,-20(s0)
    60010788:	00070793          	mv	a5,a4
    6001078c:	00379793          	slli	a5,a5,0x3
    60010790:	40e787b3          	sub	a5,a5,a4
    60010794:	00379793          	slli	a5,a5,0x3
    60010798:	00078713          	mv	a4,a5
    6001079c:	fd843783          	ld	a5,-40(s0)
    600107a0:	00e787b3          	add	a5,a5,a4
    600107a4:	0287b783          	ld	a5,40(a5)
    600107a8:	20078063          	beqz	a5,600109a8 <load_elf+0x350>
    600107ac:	fec46703          	lwu	a4,-20(s0)
    600107b0:	00070793          	mv	a5,a4
    600107b4:	00379793          	slli	a5,a5,0x3
    600107b8:	40e787b3          	sub	a5,a5,a4
    600107bc:	00379793          	slli	a5,a5,0x3
    600107c0:	00078713          	mv	a4,a5
    600107c4:	fd843783          	ld	a5,-40(s0)
    600107c8:	00e787b3          	add	a5,a5,a4
    600107cc:	0207b783          	ld	a5,32(a5)
    600107d0:	0e078263          	beqz	a5,600108b4 <load_elf+0x25c>
    600107d4:	fc446683          	lwu	a3,-60(s0)
    600107d8:	fec46703          	lwu	a4,-20(s0)
    600107dc:	00070793          	mv	a5,a4
    600107e0:	00379793          	slli	a5,a5,0x3
    600107e4:	40e787b3          	sub	a5,a5,a4
    600107e8:	00379793          	slli	a5,a5,0x3
    600107ec:	00078713          	mv	a4,a5
    600107f0:	fd843783          	ld	a5,-40(s0)
    600107f4:	00e787b3          	add	a5,a5,a4
    600107f8:	0087b603          	ld	a2,8(a5)
    600107fc:	fec46703          	lwu	a4,-20(s0)
    60010800:	00070793          	mv	a5,a4
    60010804:	00379793          	slli	a5,a5,0x3
    60010808:	40e787b3          	sub	a5,a5,a4
    6001080c:	00379793          	slli	a5,a5,0x3
    60010810:	00078713          	mv	a4,a5
    60010814:	fd843783          	ld	a5,-40(s0)
    60010818:	00e787b3          	add	a5,a5,a4
    6001081c:	0207b783          	ld	a5,32(a5)
    60010820:	00f607b3          	add	a5,a2,a5
    60010824:	00f6f663          	bgeu	a3,a5,60010830 <load_elf+0x1d8>
    60010828:	00300793          	li	a5,3
    6001082c:	1a40006f          	j	600109d0 <load_elf+0x378>
    60010830:	fec46703          	lwu	a4,-20(s0)
    60010834:	00070793          	mv	a5,a4
    60010838:	00379793          	slli	a5,a5,0x3
    6001083c:	40e787b3          	sub	a5,a5,a4
    60010840:	00379793          	slli	a5,a5,0x3
    60010844:	00078713          	mv	a4,a5
    60010848:	fd843783          	ld	a5,-40(s0)
    6001084c:	00e787b3          	add	a5,a5,a4
    60010850:	0187b783          	ld	a5,24(a5)
    60010854:	00078513          	mv	a0,a5
    60010858:	fec46703          	lwu	a4,-20(s0)
    6001085c:	00070793          	mv	a5,a4
    60010860:	00379793          	slli	a5,a5,0x3
    60010864:	40e787b3          	sub	a5,a5,a4
    60010868:	00379793          	slli	a5,a5,0x3
    6001086c:	00078713          	mv	a4,a5
    60010870:	fd843783          	ld	a5,-40(s0)
    60010874:	00e787b3          	add	a5,a5,a4
    60010878:	0087b783          	ld	a5,8(a5)
    6001087c:	fc843703          	ld	a4,-56(s0)
    60010880:	00f706b3          	add	a3,a4,a5
    60010884:	fec46703          	lwu	a4,-20(s0)
    60010888:	00070793          	mv	a5,a4
    6001088c:	00379793          	slli	a5,a5,0x3
    60010890:	40e787b3          	sub	a5,a5,a4
    60010894:	00379793          	slli	a5,a5,0x3
    60010898:	00078713          	mv	a4,a5
    6001089c:	fd843783          	ld	a5,-40(s0)
    600108a0:	00e787b3          	add	a5,a5,a4
    600108a4:	0207b783          	ld	a5,32(a5)
    600108a8:	00078613          	mv	a2,a5
    600108ac:	00068593          	mv	a1,a3
    600108b0:	d21ff0ef          	jal	ra,600105d0 <memCpy>
    600108b4:	fec46703          	lwu	a4,-20(s0)
    600108b8:	00070793          	mv	a5,a4
    600108bc:	00379793          	slli	a5,a5,0x3
    600108c0:	40e787b3          	sub	a5,a5,a4
    600108c4:	00379793          	slli	a5,a5,0x3
    600108c8:	00078713          	mv	a4,a5
    600108cc:	fd843783          	ld	a5,-40(s0)
    600108d0:	00e787b3          	add	a5,a5,a4
    600108d4:	0287b683          	ld	a3,40(a5)
    600108d8:	fec46703          	lwu	a4,-20(s0)
    600108dc:	00070793          	mv	a5,a4
    600108e0:	00379793          	slli	a5,a5,0x3
    600108e4:	40e787b3          	sub	a5,a5,a4
    600108e8:	00379793          	slli	a5,a5,0x3
    600108ec:	00078713          	mv	a4,a5
    600108f0:	fd843783          	ld	a5,-40(s0)
    600108f4:	00e787b3          	add	a5,a5,a4
    600108f8:	0207b783          	ld	a5,32(a5)
    600108fc:	0ad7f663          	bgeu	a5,a3,600109a8 <load_elf+0x350>
    60010900:	fec46703          	lwu	a4,-20(s0)
    60010904:	00070793          	mv	a5,a4
    60010908:	00379793          	slli	a5,a5,0x3
    6001090c:	40e787b3          	sub	a5,a5,a4
    60010910:	00379793          	slli	a5,a5,0x3
    60010914:	00078713          	mv	a4,a5
    60010918:	fd843783          	ld	a5,-40(s0)
    6001091c:	00e787b3          	add	a5,a5,a4
    60010920:	0207b683          	ld	a3,32(a5)
    60010924:	fec46703          	lwu	a4,-20(s0)
    60010928:	00070793          	mv	a5,a4
    6001092c:	00379793          	slli	a5,a5,0x3
    60010930:	40e787b3          	sub	a5,a5,a4
    60010934:	00379793          	slli	a5,a5,0x3
    60010938:	00078713          	mv	a4,a5
    6001093c:	fd843783          	ld	a5,-40(s0)
    60010940:	00e787b3          	add	a5,a5,a4
    60010944:	0187b783          	ld	a5,24(a5)
    60010948:	00f687b3          	add	a5,a3,a5
    6001094c:	00078513          	mv	a0,a5
    60010950:	fec46703          	lwu	a4,-20(s0)
    60010954:	00070793          	mv	a5,a4
    60010958:	00379793          	slli	a5,a5,0x3
    6001095c:	40e787b3          	sub	a5,a5,a4
    60010960:	00379793          	slli	a5,a5,0x3
    60010964:	00078713          	mv	a4,a5
    60010968:	fd843783          	ld	a5,-40(s0)
    6001096c:	00e787b3          	add	a5,a5,a4
    60010970:	0287b683          	ld	a3,40(a5)
    60010974:	fec46703          	lwu	a4,-20(s0)
    60010978:	00070793          	mv	a5,a4
    6001097c:	00379793          	slli	a5,a5,0x3
    60010980:	40e787b3          	sub	a5,a5,a4
    60010984:	00379793          	slli	a5,a5,0x3
    60010988:	00078713          	mv	a4,a5
    6001098c:	fd843783          	ld	a5,-40(s0)
    60010990:	00e787b3          	add	a5,a5,a4
    60010994:	0207b783          	ld	a5,32(a5)
    60010998:	40f687b3          	sub	a5,a3,a5
    6001099c:	00078613          	mv	a2,a5
    600109a0:	00000593          	li	a1,0
    600109a4:	bb9ff0ef          	jal	ra,6001055c <memSet>
    600109a8:	fec42783          	lw	a5,-20(s0)
    600109ac:	0017879b          	addiw	a5,a5,1
    600109b0:	fef42623          	sw	a5,-20(s0)
    600109b4:	fe043783          	ld	a5,-32(s0)
    600109b8:	0387d783          	lhu	a5,56(a5)
    600109bc:	0007871b          	sext.w	a4,a5
    600109c0:	fec42783          	lw	a5,-20(s0)
    600109c4:	0007879b          	sext.w	a5,a5
    600109c8:	d8e7e6e3          	bltu	a5,a4,60010754 <load_elf+0xfc>
    600109cc:	00000793          	li	a5,0
    600109d0:	00078513          	mv	a0,a5
    600109d4:	03813083          	ld	ra,56(sp)
    600109d8:	03013403          	ld	s0,48(sp)
    600109dc:	04010113          	addi	sp,sp,64
    600109e0:	00008067          	ret

00000000600109e4 <spi_init>:
    600109e4:	ff010113          	addi	sp,sp,-16
    600109e8:	00813423          	sd	s0,8(sp)
    600109ec:	01010413          	addi	s0,sp,16
    600109f0:	600207b7          	lui	a5,0x60020
    600109f4:	f087b783          	ld	a5,-248(a5) # 6001ff08 <spi_base_ptr>
    600109f8:	00100713          	li	a4,1
    600109fc:	00e7a023          	sw	a4,0(a5)
    60010a00:	600207b7          	lui	a5,0x60020
    60010a04:	f087b783          	ld	a5,-248(a5) # 6001ff08 <spi_base_ptr>
    60010a08:	04078793          	addi	a5,a5,64
    60010a0c:	00a00713          	li	a4,10
    60010a10:	00e7a023          	sw	a4,0(a5)
    60010a14:	600207b7          	lui	a5,0x60020
    60010a18:	f087b783          	ld	a5,-248(a5) # 6001ff08 <spi_base_ptr>
    60010a1c:	06078793          	addi	a5,a5,96
    60010a20:	0e400713          	li	a4,228
    60010a24:	00e7a023          	sw	a4,0(a5)
    60010a28:	600207b7          	lui	a5,0x60020
    60010a2c:	f087b783          	ld	a5,-248(a5) # 6001ff08 <spi_base_ptr>
    60010a30:	01c78793          	addi	a5,a5,28
    60010a34:	0007a023          	sw	zero,0(a5)
    60010a38:	600207b7          	lui	a5,0x60020
    60010a3c:	f087b783          	ld	a5,-248(a5) # 6001ff08 <spi_base_ptr>
    60010a40:	06078793          	addi	a5,a5,96
    60010a44:	08600713          	li	a4,134
    60010a48:	00e7a023          	sw	a4,0(a5)
    60010a4c:	600207b7          	lui	a5,0x60020
    60010a50:	f087b783          	ld	a5,-248(a5) # 6001ff08 <spi_base_ptr>
    60010a54:	0007a023          	sw	zero,0(a5)
    60010a58:	00000013          	nop
    60010a5c:	00813403          	ld	s0,8(sp)
    60010a60:	01010113          	addi	sp,sp,16
    60010a64:	00008067          	ret

0000000060010a68 <spi_disable>:
    60010a68:	ff010113          	addi	sp,sp,-16
    60010a6c:	00813423          	sd	s0,8(sp)
    60010a70:	01010413          	addi	s0,sp,16
    60010a74:	600207b7          	lui	a5,0x60020
    60010a78:	f087b783          	ld	a5,-248(a5) # 6001ff08 <spi_base_ptr>
    60010a7c:	00100713          	li	a4,1
    60010a80:	00e7a023          	sw	a4,0(a5)
    60010a84:	600207b7          	lui	a5,0x60020
    60010a88:	f087b783          	ld	a5,-248(a5) # 6001ff08 <spi_base_ptr>
    60010a8c:	06078793          	addi	a5,a5,96
    60010a90:	0e400713          	li	a4,228
    60010a94:	00e7a023          	sw	a4,0(a5)
    60010a98:	00000013          	nop
    60010a9c:	00813403          	ld	s0,8(sp)
    60010aa0:	01010113          	addi	sp,sp,16
    60010aa4:	00008067          	ret

0000000060010aa8 <spi_send>:
    60010aa8:	fe010113          	addi	sp,sp,-32
    60010aac:	00813c23          	sd	s0,24(sp)
    60010ab0:	02010413          	addi	s0,sp,32
    60010ab4:	00050793          	mv	a5,a0
    60010ab8:	fef407a3          	sb	a5,-17(s0)
    60010abc:	600207b7          	lui	a5,0x60020
    60010ac0:	f087b783          	ld	a5,-248(a5) # 6001ff08 <spi_base_ptr>
    60010ac4:	06878793          	addi	a5,a5,104
    60010ac8:	fef44703          	lbu	a4,-17(s0)
    60010acc:	0007071b          	sext.w	a4,a4
    60010ad0:	00e7a023          	sw	a4,0(a5)
    60010ad4:	00000013          	nop
    60010ad8:	600207b7          	lui	a5,0x60020
    60010adc:	f087b783          	ld	a5,-248(a5) # 6001ff08 <spi_base_ptr>
    60010ae0:	06478793          	addi	a5,a5,100
    60010ae4:	0007a783          	lw	a5,0(a5)
    60010ae8:	0007879b          	sext.w	a5,a5
    60010aec:	0047f793          	andi	a5,a5,4
    60010af0:	0007879b          	sext.w	a5,a5
    60010af4:	fe0782e3          	beqz	a5,60010ad8 <spi_send+0x30>
    60010af8:	600207b7          	lui	a5,0x60020
    60010afc:	f087b783          	ld	a5,-248(a5) # 6001ff08 <spi_base_ptr>
    60010b00:	06c78793          	addi	a5,a5,108
    60010b04:	0007a783          	lw	a5,0(a5)
    60010b08:	0007879b          	sext.w	a5,a5
    60010b0c:	0ff7f793          	andi	a5,a5,255
    60010b10:	00078513          	mv	a0,a5
    60010b14:	01813403          	ld	s0,24(sp)
    60010b18:	02010113          	addi	sp,sp,32
    60010b1c:	00008067          	ret

0000000060010b20 <spi_send_multi>:
    60010b20:	fd010113          	addi	sp,sp,-48
    60010b24:	02813423          	sd	s0,40(sp)
    60010b28:	03010413          	addi	s0,sp,48
    60010b2c:	fca43c23          	sd	a0,-40(s0)
    60010b30:	00058793          	mv	a5,a1
    60010b34:	fcf40ba3          	sb	a5,-41(s0)
    60010b38:	fe0407a3          	sb	zero,-17(s0)
    60010b3c:	0340006f          	j	60010b70 <spi_send_multi+0x50>
    60010b40:	fd843783          	ld	a5,-40(s0)
    60010b44:	00178713          	addi	a4,a5,1
    60010b48:	fce43c23          	sd	a4,-40(s0)
    60010b4c:	0007c703          	lbu	a4,0(a5)
    60010b50:	600207b7          	lui	a5,0x60020
    60010b54:	f087b783          	ld	a5,-248(a5) # 6001ff08 <spi_base_ptr>
    60010b58:	06878793          	addi	a5,a5,104
    60010b5c:	0007071b          	sext.w	a4,a4
    60010b60:	00e7a023          	sw	a4,0(a5)
    60010b64:	fef44783          	lbu	a5,-17(s0)
    60010b68:	0017879b          	addiw	a5,a5,1
    60010b6c:	fef407a3          	sb	a5,-17(s0)
    60010b70:	fef44703          	lbu	a4,-17(s0)
    60010b74:	fd744783          	lbu	a5,-41(s0)
    60010b78:	0ff77713          	andi	a4,a4,255
    60010b7c:	0ff7f793          	andi	a5,a5,255
    60010b80:	fcf760e3          	bltu	a4,a5,60010b40 <spi_send_multi+0x20>
    60010b84:	00000013          	nop
    60010b88:	600207b7          	lui	a5,0x60020
    60010b8c:	f087b783          	ld	a5,-248(a5) # 6001ff08 <spi_base_ptr>
    60010b90:	06478793          	addi	a5,a5,100
    60010b94:	0007a783          	lw	a5,0(a5)
    60010b98:	0007879b          	sext.w	a5,a5
    60010b9c:	0047f793          	andi	a5,a5,4
    60010ba0:	0007879b          	sext.w	a5,a5
    60010ba4:	fe0782e3          	beqz	a5,60010b88 <spi_send_multi+0x68>
    60010ba8:	600207b7          	lui	a5,0x60020
    60010bac:	f087b783          	ld	a5,-248(a5) # 6001ff08 <spi_base_ptr>
    60010bb0:	06078793          	addi	a5,a5,96
    60010bb4:	0c600713          	li	a4,198
    60010bb8:	00e7a023          	sw	a4,0(a5)
    60010bbc:	00000013          	nop
    60010bc0:	02813403          	ld	s0,40(sp)
    60010bc4:	03010113          	addi	sp,sp,48
    60010bc8:	00008067          	ret

0000000060010bcc <spi_recv_multi>:
    60010bcc:	fd010113          	addi	sp,sp,-48
    60010bd0:	02813423          	sd	s0,40(sp)
    60010bd4:	03010413          	addi	s0,sp,48
    60010bd8:	fca43c23          	sd	a0,-40(s0)
    60010bdc:	00058793          	mv	a5,a1
    60010be0:	fcf40ba3          	sb	a5,-41(s0)
    60010be4:	fe0407a3          	sb	zero,-17(s0)
    60010be8:	0240006f          	j	60010c0c <spi_recv_multi+0x40>
    60010bec:	600207b7          	lui	a5,0x60020
    60010bf0:	f087b783          	ld	a5,-248(a5) # 6001ff08 <spi_base_ptr>
    60010bf4:	06878793          	addi	a5,a5,104
    60010bf8:	0ff00713          	li	a4,255
    60010bfc:	00e7a023          	sw	a4,0(a5)
    60010c00:	fef44783          	lbu	a5,-17(s0)
    60010c04:	0017879b          	addiw	a5,a5,1
    60010c08:	fef407a3          	sb	a5,-17(s0)
    60010c0c:	fef44703          	lbu	a4,-17(s0)
    60010c10:	fd744783          	lbu	a5,-41(s0)
    60010c14:	0ff77713          	andi	a4,a4,255
    60010c18:	0ff7f793          	andi	a5,a5,255
    60010c1c:	fcf768e3          	bltu	a4,a5,60010bec <spi_recv_multi+0x20>
    60010c20:	00000013          	nop
    60010c24:	600207b7          	lui	a5,0x60020
    60010c28:	f087b783          	ld	a5,-248(a5) # 6001ff08 <spi_base_ptr>
    60010c2c:	06478793          	addi	a5,a5,100
    60010c30:	0007a783          	lw	a5,0(a5)
    60010c34:	0007879b          	sext.w	a5,a5
    60010c38:	0047f793          	andi	a5,a5,4
    60010c3c:	0007879b          	sext.w	a5,a5
    60010c40:	fe0782e3          	beqz	a5,60010c24 <spi_recv_multi+0x58>
    60010c44:	fe0407a3          	sb	zero,-17(s0)
    60010c48:	03c0006f          	j	60010c84 <spi_recv_multi+0xb8>
    60010c4c:	600207b7          	lui	a5,0x60020
    60010c50:	f087b783          	ld	a5,-248(a5) # 6001ff08 <spi_base_ptr>
    60010c54:	06c78793          	addi	a5,a5,108
    60010c58:	0007a783          	lw	a5,0(a5)
    60010c5c:	0007869b          	sext.w	a3,a5
    60010c60:	fd843783          	ld	a5,-40(s0)
    60010c64:	00178713          	addi	a4,a5,1
    60010c68:	fce43c23          	sd	a4,-40(s0)
    60010c6c:	00068713          	mv	a4,a3
    60010c70:	0ff77713          	andi	a4,a4,255
    60010c74:	00e78023          	sb	a4,0(a5)
    60010c78:	fef44783          	lbu	a5,-17(s0)
    60010c7c:	0017879b          	addiw	a5,a5,1
    60010c80:	fef407a3          	sb	a5,-17(s0)
    60010c84:	fef44703          	lbu	a4,-17(s0)
    60010c88:	fd744783          	lbu	a5,-41(s0)
    60010c8c:	0ff77713          	andi	a4,a4,255
    60010c90:	0ff7f793          	andi	a5,a5,255
    60010c94:	faf76ce3          	bltu	a4,a5,60010c4c <spi_recv_multi+0x80>
    60010c98:	00000013          	nop
    60010c9c:	02813403          	ld	s0,40(sp)
    60010ca0:	03010113          	addi	sp,sp,48
    60010ca4:	00008067          	ret

0000000060010ca8 <spi_select_slave>:
    60010ca8:	fe010113          	addi	sp,sp,-32
    60010cac:	00813c23          	sd	s0,24(sp)
    60010cb0:	02010413          	addi	s0,sp,32
    60010cb4:	00050793          	mv	a5,a0
    60010cb8:	fef407a3          	sb	a5,-17(s0)
    60010cbc:	600207b7          	lui	a5,0x60020
    60010cc0:	f087b783          	ld	a5,-248(a5) # 6001ff08 <spi_base_ptr>
    60010cc4:	07078793          	addi	a5,a5,112
    60010cc8:	ffe00713          	li	a4,-2
    60010ccc:	00e7a023          	sw	a4,0(a5)
    60010cd0:	00000013          	nop
    60010cd4:	01813403          	ld	s0,24(sp)
    60010cd8:	02010113          	addi	sp,sp,32
    60010cdc:	00008067          	ret

0000000060010ce0 <spi_deselect_slave>:
    60010ce0:	fe010113          	addi	sp,sp,-32
    60010ce4:	00813c23          	sd	s0,24(sp)
    60010ce8:	02010413          	addi	s0,sp,32
    60010cec:	00050793          	mv	a5,a0
    60010cf0:	fef407a3          	sb	a5,-17(s0)
    60010cf4:	600207b7          	lui	a5,0x60020
    60010cf8:	f087b783          	ld	a5,-248(a5) # 6001ff08 <spi_base_ptr>
    60010cfc:	07078793          	addi	a5,a5,112
    60010d00:	fff00713          	li	a4,-1
    60010d04:	00e7a023          	sw	a4,0(a5)
    60010d08:	00000013          	nop
    60010d0c:	01813403          	ld	s0,24(sp)
    60010d10:	02010113          	addi	sp,sp,32
    60010d14:	00008067          	ret

0000000060010d18 <power_on>:
    60010d18:	fe010113          	addi	sp,sp,-32
    60010d1c:	00113c23          	sd	ra,24(sp)
    60010d20:	00813823          	sd	s0,16(sp)
    60010d24:	02010413          	addi	s0,sp,32
    60010d28:	000187b7          	lui	a5,0x18
    60010d2c:	6a07879b          	addiw	a5,a5,1696
    60010d30:	fef42623          	sw	a5,-20(s0)
    60010d34:	cb1ff0ef          	jal	ra,600109e4 <spi_init>
    60010d38:	00000013          	nop
    60010d3c:	fec42783          	lw	a5,-20(s0)
    60010d40:	fff7871b          	addiw	a4,a5,-1
    60010d44:	fee42623          	sw	a4,-20(s0)
    60010d48:	fe079ae3          	bnez	a5,60010d3c <power_on+0x24>
    60010d4c:	00000013          	nop
    60010d50:	01813083          	ld	ra,24(sp)
    60010d54:	01013403          	ld	s0,16(sp)
    60010d58:	02010113          	addi	sp,sp,32
    60010d5c:	00008067          	ret

0000000060010d60 <power_off>:
    60010d60:	ff010113          	addi	sp,sp,-16
    60010d64:	00113423          	sd	ra,8(sp)
    60010d68:	00813023          	sd	s0,0(sp)
    60010d6c:	01010413          	addi	s0,sp,16
    60010d70:	cf9ff0ef          	jal	ra,60010a68 <spi_disable>
    60010d74:	00000013          	nop
    60010d78:	00813083          	ld	ra,8(sp)
    60010d7c:	00013403          	ld	s0,0(sp)
    60010d80:	01010113          	addi	sp,sp,16
    60010d84:	00008067          	ret

0000000060010d88 <xchg_spi>:
    60010d88:	fe010113          	addi	sp,sp,-32
    60010d8c:	00113c23          	sd	ra,24(sp)
    60010d90:	00813823          	sd	s0,16(sp)
    60010d94:	02010413          	addi	s0,sp,32
    60010d98:	00050793          	mv	a5,a0
    60010d9c:	fef407a3          	sb	a5,-17(s0)
    60010da0:	fef44783          	lbu	a5,-17(s0)
    60010da4:	00078513          	mv	a0,a5
    60010da8:	d01ff0ef          	jal	ra,60010aa8 <spi_send>
    60010dac:	00050793          	mv	a5,a0
    60010db0:	00078513          	mv	a0,a5
    60010db4:	01813083          	ld	ra,24(sp)
    60010db8:	01013403          	ld	s0,16(sp)
    60010dbc:	02010113          	addi	sp,sp,32
    60010dc0:	00008067          	ret

0000000060010dc4 <xmit_spi_multi>:
    60010dc4:	fd010113          	addi	sp,sp,-48
    60010dc8:	02113423          	sd	ra,40(sp)
    60010dcc:	02813023          	sd	s0,32(sp)
    60010dd0:	03010413          	addi	s0,sp,48
    60010dd4:	fca43c23          	sd	a0,-40(s0)
    60010dd8:	00058793          	mv	a5,a1
    60010ddc:	fcf42a23          	sw	a5,-44(s0)
    60010de0:	fe042623          	sw	zero,-20(s0)
    60010de4:	fe042623          	sw	zero,-20(s0)
    60010de8:	0780006f          	j	60010e60 <xmit_spi_multi+0x9c>
    60010dec:	fec42783          	lw	a5,-20(s0)
    60010df0:	0107879b          	addiw	a5,a5,16
    60010df4:	0007879b          	sext.w	a5,a5
    60010df8:	0007871b          	sext.w	a4,a5
    60010dfc:	fd442783          	lw	a5,-44(s0)
    60010e00:	0007879b          	sext.w	a5,a5
    60010e04:	02e7e063          	bltu	a5,a4,60010e24 <xmit_spi_multi+0x60>
    60010e08:	fec42783          	lw	a5,-20(s0)
    60010e0c:	fd843703          	ld	a4,-40(s0)
    60010e10:	00f707b3          	add	a5,a4,a5
    60010e14:	01000593          	li	a1,16
    60010e18:	00078513          	mv	a0,a5
    60010e1c:	d05ff0ef          	jal	ra,60010b20 <spi_send_multi>
    60010e20:	0340006f          	j	60010e54 <xmit_spi_multi+0x90>
    60010e24:	fec42783          	lw	a5,-20(s0)
    60010e28:	fd843703          	ld	a4,-40(s0)
    60010e2c:	00f706b3          	add	a3,a4,a5
    60010e30:	fd442783          	lw	a5,-44(s0)
    60010e34:	0ff7f713          	andi	a4,a5,255
    60010e38:	fec42783          	lw	a5,-20(s0)
    60010e3c:	0ff7f793          	andi	a5,a5,255
    60010e40:	40f707bb          	subw	a5,a4,a5
    60010e44:	0ff7f793          	andi	a5,a5,255
    60010e48:	00078593          	mv	a1,a5
    60010e4c:	00068513          	mv	a0,a3
    60010e50:	cd1ff0ef          	jal	ra,60010b20 <spi_send_multi>
    60010e54:	fec42783          	lw	a5,-20(s0)
    60010e58:	0107879b          	addiw	a5,a5,16
    60010e5c:	fef42623          	sw	a5,-20(s0)
    60010e60:	fec42703          	lw	a4,-20(s0)
    60010e64:	fd442783          	lw	a5,-44(s0)
    60010e68:	0007879b          	sext.w	a5,a5
    60010e6c:	f8f760e3          	bltu	a4,a5,60010dec <xmit_spi_multi+0x28>
    60010e70:	00000013          	nop
    60010e74:	02813083          	ld	ra,40(sp)
    60010e78:	02013403          	ld	s0,32(sp)
    60010e7c:	03010113          	addi	sp,sp,48
    60010e80:	00008067          	ret

0000000060010e84 <rcvr_spi_multi>:
    60010e84:	fd010113          	addi	sp,sp,-48
    60010e88:	02113423          	sd	ra,40(sp)
    60010e8c:	02813023          	sd	s0,32(sp)
    60010e90:	03010413          	addi	s0,sp,48
    60010e94:	fca43c23          	sd	a0,-40(s0)
    60010e98:	00058793          	mv	a5,a1
    60010e9c:	fcf42a23          	sw	a5,-44(s0)
    60010ea0:	fe042623          	sw	zero,-20(s0)
    60010ea4:	fe042623          	sw	zero,-20(s0)
    60010ea8:	0780006f          	j	60010f20 <rcvr_spi_multi+0x9c>
    60010eac:	fec42783          	lw	a5,-20(s0)
    60010eb0:	0107879b          	addiw	a5,a5,16
    60010eb4:	0007879b          	sext.w	a5,a5
    60010eb8:	0007871b          	sext.w	a4,a5
    60010ebc:	fd442783          	lw	a5,-44(s0)
    60010ec0:	0007879b          	sext.w	a5,a5
    60010ec4:	02e7e063          	bltu	a5,a4,60010ee4 <rcvr_spi_multi+0x60>
    60010ec8:	fec42783          	lw	a5,-20(s0)
    60010ecc:	fd843703          	ld	a4,-40(s0)
    60010ed0:	00f707b3          	add	a5,a4,a5
    60010ed4:	01000593          	li	a1,16
    60010ed8:	00078513          	mv	a0,a5
    60010edc:	cf1ff0ef          	jal	ra,60010bcc <spi_recv_multi>
    60010ee0:	0340006f          	j	60010f14 <rcvr_spi_multi+0x90>
    60010ee4:	fec42783          	lw	a5,-20(s0)
    60010ee8:	fd843703          	ld	a4,-40(s0)
    60010eec:	00f706b3          	add	a3,a4,a5
    60010ef0:	fd442783          	lw	a5,-44(s0)
    60010ef4:	0ff7f713          	andi	a4,a5,255
    60010ef8:	fec42783          	lw	a5,-20(s0)
    60010efc:	0ff7f793          	andi	a5,a5,255
    60010f00:	40f707bb          	subw	a5,a4,a5
    60010f04:	0ff7f793          	andi	a5,a5,255
    60010f08:	00078593          	mv	a1,a5
    60010f0c:	00068513          	mv	a0,a3
    60010f10:	cbdff0ef          	jal	ra,60010bcc <spi_recv_multi>
    60010f14:	fec42783          	lw	a5,-20(s0)
    60010f18:	0107879b          	addiw	a5,a5,16
    60010f1c:	fef42623          	sw	a5,-20(s0)
    60010f20:	fec42703          	lw	a4,-20(s0)
    60010f24:	fd442783          	lw	a5,-44(s0)
    60010f28:	0007879b          	sext.w	a5,a5
    60010f2c:	f8f760e3          	bltu	a4,a5,60010eac <rcvr_spi_multi+0x28>
    60010f30:	00000013          	nop
    60010f34:	02813083          	ld	ra,40(sp)
    60010f38:	02013403          	ld	s0,32(sp)
    60010f3c:	03010113          	addi	sp,sp,48
    60010f40:	00008067          	ret

0000000060010f44 <wait_ready>:
    60010f44:	fd010113          	addi	sp,sp,-48
    60010f48:	02113423          	sd	ra,40(sp)
    60010f4c:	02813023          	sd	s0,32(sp)
    60010f50:	03010413          	addi	s0,sp,48
    60010f54:	00050793          	mv	a5,a0
    60010f58:	fcf42e23          	sw	a5,-36(s0)
    60010f5c:	fdc42703          	lw	a4,-36(s0)
    60010f60:	000017b7          	lui	a5,0x1
    60010f64:	3887879b          	addiw	a5,a5,904
    60010f68:	02f707bb          	mulw	a5,a4,a5
    60010f6c:	fef42623          	sw	a5,-20(s0)
    60010f70:	0ff00513          	li	a0,255
    60010f74:	e15ff0ef          	jal	ra,60010d88 <xchg_spi>
    60010f78:	00050793          	mv	a5,a0
    60010f7c:	fef405a3          	sb	a5,-21(s0)
    60010f80:	fec42783          	lw	a5,-20(s0)
    60010f84:	fff7879b          	addiw	a5,a5,-1
    60010f88:	fef42623          	sw	a5,-20(s0)
    60010f8c:	feb44783          	lbu	a5,-21(s0)
    60010f90:	0ff7f713          	andi	a4,a5,255
    60010f94:	0ff00793          	li	a5,255
    60010f98:	00f70863          	beq	a4,a5,60010fa8 <wait_ready+0x64>
    60010f9c:	fec42783          	lw	a5,-20(s0)
    60010fa0:	0007879b          	sext.w	a5,a5
    60010fa4:	fc0796e3          	bnez	a5,60010f70 <wait_ready+0x2c>
    60010fa8:	feb44783          	lbu	a5,-21(s0)
    60010fac:	0007871b          	sext.w	a4,a5
    60010fb0:	0ff00793          	li	a5,255
    60010fb4:	40f707b3          	sub	a5,a4,a5
    60010fb8:	0017b793          	seqz	a5,a5
    60010fbc:	0ff7f793          	andi	a5,a5,255
    60010fc0:	0007879b          	sext.w	a5,a5
    60010fc4:	00078513          	mv	a0,a5
    60010fc8:	02813083          	ld	ra,40(sp)
    60010fcc:	02013403          	ld	s0,32(sp)
    60010fd0:	03010113          	addi	sp,sp,48
    60010fd4:	00008067          	ret

0000000060010fd8 <deselect>:
    60010fd8:	ff010113          	addi	sp,sp,-16
    60010fdc:	00113423          	sd	ra,8(sp)
    60010fe0:	00813023          	sd	s0,0(sp)
    60010fe4:	01010413          	addi	s0,sp,16
    60010fe8:	00000513          	li	a0,0
    60010fec:	cf5ff0ef          	jal	ra,60010ce0 <spi_deselect_slave>
    60010ff0:	00000013          	nop
    60010ff4:	00813083          	ld	ra,8(sp)
    60010ff8:	00013403          	ld	s0,0(sp)
    60010ffc:	01010113          	addi	sp,sp,16
    60011000:	00008067          	ret

0000000060011004 <select>:
    60011004:	ff010113          	addi	sp,sp,-16
    60011008:	00113423          	sd	ra,8(sp)
    6001100c:	00813023          	sd	s0,0(sp)
    60011010:	01010413          	addi	s0,sp,16
    60011014:	00000513          	li	a0,0
    60011018:	c91ff0ef          	jal	ra,60010ca8 <spi_select_slave>
    6001101c:	1f400513          	li	a0,500
    60011020:	f25ff0ef          	jal	ra,60010f44 <wait_ready>
    60011024:	00050793          	mv	a5,a0
    60011028:	00078663          	beqz	a5,60011034 <select+0x30>
    6001102c:	00100793          	li	a5,1
    60011030:	00c0006f          	j	6001103c <select+0x38>
    60011034:	fa5ff0ef          	jal	ra,60010fd8 <deselect>
    60011038:	00000793          	li	a5,0
    6001103c:	00078513          	mv	a0,a5
    60011040:	00813083          	ld	ra,8(sp)
    60011044:	00013403          	ld	s0,0(sp)
    60011048:	01010113          	addi	sp,sp,16
    6001104c:	00008067          	ret

0000000060011050 <rcvr_datablock>:
    60011050:	fd010113          	addi	sp,sp,-48
    60011054:	02113423          	sd	ra,40(sp)
    60011058:	02813023          	sd	s0,32(sp)
    6001105c:	03010413          	addi	s0,sp,48
    60011060:	fca43c23          	sd	a0,-40(s0)
    60011064:	00058793          	mv	a5,a1
    60011068:	fcf42a23          	sw	a5,-44(s0)
    6001106c:	000f47b7          	lui	a5,0xf4
    60011070:	2407879b          	addiw	a5,a5,576
    60011074:	fef42623          	sw	a5,-20(s0)
    60011078:	0ff00513          	li	a0,255
    6001107c:	d0dff0ef          	jal	ra,60010d88 <xchg_spi>
    60011080:	00050793          	mv	a5,a0
    60011084:	fef405a3          	sb	a5,-21(s0)
    60011088:	fec42783          	lw	a5,-20(s0)
    6001108c:	fff7879b          	addiw	a5,a5,-1
    60011090:	fef42623          	sw	a5,-20(s0)
    60011094:	feb44783          	lbu	a5,-21(s0)
    60011098:	0ff7f713          	andi	a4,a5,255
    6001109c:	0ff00793          	li	a5,255
    600110a0:	00f71863          	bne	a4,a5,600110b0 <rcvr_datablock+0x60>
    600110a4:	fec42783          	lw	a5,-20(s0)
    600110a8:	0007879b          	sext.w	a5,a5
    600110ac:	fc0796e3          	bnez	a5,60011078 <rcvr_datablock+0x28>
    600110b0:	feb44783          	lbu	a5,-21(s0)
    600110b4:	0ff7f713          	andi	a4,a5,255
    600110b8:	0fe00793          	li	a5,254
    600110bc:	00f70663          	beq	a4,a5,600110c8 <rcvr_datablock+0x78>
    600110c0:	00000793          	li	a5,0
    600110c4:	0280006f          	j	600110ec <rcvr_datablock+0x9c>
    600110c8:	fd442783          	lw	a5,-44(s0)
    600110cc:	00078593          	mv	a1,a5
    600110d0:	fd843503          	ld	a0,-40(s0)
    600110d4:	db1ff0ef          	jal	ra,60010e84 <rcvr_spi_multi>
    600110d8:	0ff00513          	li	a0,255
    600110dc:	cadff0ef          	jal	ra,60010d88 <xchg_spi>
    600110e0:	0ff00513          	li	a0,255
    600110e4:	ca5ff0ef          	jal	ra,60010d88 <xchg_spi>
    600110e8:	00100793          	li	a5,1
    600110ec:	00078513          	mv	a0,a5
    600110f0:	02813083          	ld	ra,40(sp)
    600110f4:	02013403          	ld	s0,32(sp)
    600110f8:	03010113          	addi	sp,sp,48
    600110fc:	00008067          	ret

0000000060011100 <xmit_datablock>:
    60011100:	fd010113          	addi	sp,sp,-48
    60011104:	02113423          	sd	ra,40(sp)
    60011108:	02813023          	sd	s0,32(sp)
    6001110c:	03010413          	addi	s0,sp,48
    60011110:	fca43c23          	sd	a0,-40(s0)
    60011114:	00058793          	mv	a5,a1
    60011118:	fcf40ba3          	sb	a5,-41(s0)
    6001111c:	1f400513          	li	a0,500
    60011120:	e25ff0ef          	jal	ra,60010f44 <wait_ready>
    60011124:	00050793          	mv	a5,a0
    60011128:	00079663          	bnez	a5,60011134 <xmit_datablock+0x34>
    6001112c:	00000793          	li	a5,0
    60011130:	0940006f          	j	600111c4 <xmit_datablock+0xc4>
    60011134:	fd744783          	lbu	a5,-41(s0)
    60011138:	00078513          	mv	a0,a5
    6001113c:	c4dff0ef          	jal	ra,60010d88 <xchg_spi>
    60011140:	fd744783          	lbu	a5,-41(s0)
    60011144:	0ff7f713          	andi	a4,a5,255
    60011148:	0fd00793          	li	a5,253
    6001114c:	06f70663          	beq	a4,a5,600111b8 <xmit_datablock+0xb8>
    60011150:	20000593          	li	a1,512
    60011154:	fd843503          	ld	a0,-40(s0)
    60011158:	c6dff0ef          	jal	ra,60010dc4 <xmit_spi_multi>
    6001115c:	00000013          	nop
    60011160:	0ff00513          	li	a0,255
    60011164:	c25ff0ef          	jal	ra,60010d88 <xchg_spi>
    60011168:	00050793          	mv	a5,a0
    6001116c:	fe078ae3          	beqz	a5,60011160 <xmit_datablock+0x60>
    60011170:	00000013          	nop
    60011174:	0ff00513          	li	a0,255
    60011178:	c11ff0ef          	jal	ra,60010d88 <xchg_spi>
    6001117c:	00050793          	mv	a5,a0
    60011180:	fe078ae3          	beqz	a5,60011174 <xmit_datablock+0x74>
    60011184:	0ff00513          	li	a0,255
    60011188:	c01ff0ef          	jal	ra,60010d88 <xchg_spi>
    6001118c:	00050793          	mv	a5,a0
    60011190:	fef407a3          	sb	a5,-17(s0)
    60011194:	fef44783          	lbu	a5,-17(s0)
    60011198:	0007879b          	sext.w	a5,a5
    6001119c:	01f7f793          	andi	a5,a5,31
    600111a0:	0007879b          	sext.w	a5,a5
    600111a4:	00078713          	mv	a4,a5
    600111a8:	00500793          	li	a5,5
    600111ac:	00f70663          	beq	a4,a5,600111b8 <xmit_datablock+0xb8>
    600111b0:	00000793          	li	a5,0
    600111b4:	0100006f          	j	600111c4 <xmit_datablock+0xc4>
    600111b8:	1f400513          	li	a0,500
    600111bc:	d89ff0ef          	jal	ra,60010f44 <wait_ready>
    600111c0:	00100793          	li	a5,1
    600111c4:	00078513          	mv	a0,a5
    600111c8:	02813083          	ld	ra,40(sp)
    600111cc:	02013403          	ld	s0,32(sp)
    600111d0:	03010113          	addi	sp,sp,48
    600111d4:	00008067          	ret

00000000600111d8 <send_cmd>:
    600111d8:	fd010113          	addi	sp,sp,-48
    600111dc:	02113423          	sd	ra,40(sp)
    600111e0:	02813023          	sd	s0,32(sp)
    600111e4:	03010413          	addi	s0,sp,48
    600111e8:	00050793          	mv	a5,a0
    600111ec:	00058713          	mv	a4,a1
    600111f0:	fcf40fa3          	sb	a5,-33(s0)
    600111f4:	00070793          	mv	a5,a4
    600111f8:	fcf42c23          	sw	a5,-40(s0)
    600111fc:	000187b7          	lui	a5,0x18
    60011200:	6a07879b          	addiw	a5,a5,1696
    60011204:	fef42423          	sw	a5,-24(s0)
    60011208:	fdf40783          	lb	a5,-33(s0)
    6001120c:	0207de63          	bgez	a5,60011248 <send_cmd+0x70>
    60011210:	fdf44783          	lbu	a5,-33(s0)
    60011214:	07f7f793          	andi	a5,a5,127
    60011218:	fcf40fa3          	sb	a5,-33(s0)
    6001121c:	00000593          	li	a1,0
    60011220:	03700513          	li	a0,55
    60011224:	fb5ff0ef          	jal	ra,600111d8 <send_cmd>
    60011228:	00050793          	mv	a5,a0
    6001122c:	fef403a3          	sb	a5,-25(s0)
    60011230:	fe744783          	lbu	a5,-25(s0)
    60011234:	0ff7f713          	andi	a4,a5,255
    60011238:	00100793          	li	a5,1
    6001123c:	00e7f663          	bgeu	a5,a4,60011248 <send_cmd+0x70>
    60011240:	fe744783          	lbu	a5,-25(s0)
    60011244:	1500006f          	j	60011394 <send_cmd+0x1bc>
    60011248:	fdf44783          	lbu	a5,-33(s0)
    6001124c:	0ff7f713          	andi	a4,a5,255
    60011250:	0a900793          	li	a5,169
    60011254:	00f71c63          	bne	a4,a5,6001126c <send_cmd+0x94>
    60011258:	00000013          	nop
    6001125c:	fe842783          	lw	a5,-24(s0)
    60011260:	fff7871b          	addiw	a4,a5,-1
    60011264:	fee42423          	sw	a4,-24(s0)
    60011268:	fe079ae3          	bnez	a5,6001125c <send_cmd+0x84>
    6001126c:	fdf44783          	lbu	a5,-33(s0)
    60011270:	0ff7f713          	andi	a4,a5,255
    60011274:	00c00793          	li	a5,12
    60011278:	00f70e63          	beq	a4,a5,60011294 <send_cmd+0xbc>
    6001127c:	d5dff0ef          	jal	ra,60010fd8 <deselect>
    60011280:	d85ff0ef          	jal	ra,60011004 <select>
    60011284:	00050793          	mv	a5,a0
    60011288:	00079663          	bnez	a5,60011294 <send_cmd+0xbc>
    6001128c:	0ff00793          	li	a5,255
    60011290:	1040006f          	j	60011394 <send_cmd+0x1bc>
    60011294:	fdf44783          	lbu	a5,-33(s0)
    60011298:	0407e793          	ori	a5,a5,64
    6001129c:	0ff7f793          	andi	a5,a5,255
    600112a0:	00078513          	mv	a0,a5
    600112a4:	ae5ff0ef          	jal	ra,60010d88 <xchg_spi>
    600112a8:	fd842783          	lw	a5,-40(s0)
    600112ac:	0187d79b          	srliw	a5,a5,0x18
    600112b0:	0007879b          	sext.w	a5,a5
    600112b4:	0ff7f793          	andi	a5,a5,255
    600112b8:	00078513          	mv	a0,a5
    600112bc:	acdff0ef          	jal	ra,60010d88 <xchg_spi>
    600112c0:	fd842783          	lw	a5,-40(s0)
    600112c4:	0107d79b          	srliw	a5,a5,0x10
    600112c8:	0007879b          	sext.w	a5,a5
    600112cc:	0ff7f793          	andi	a5,a5,255
    600112d0:	00078513          	mv	a0,a5
    600112d4:	ab5ff0ef          	jal	ra,60010d88 <xchg_spi>
    600112d8:	fd842783          	lw	a5,-40(s0)
    600112dc:	0087d79b          	srliw	a5,a5,0x8
    600112e0:	0007879b          	sext.w	a5,a5
    600112e4:	0ff7f793          	andi	a5,a5,255
    600112e8:	00078513          	mv	a0,a5
    600112ec:	a9dff0ef          	jal	ra,60010d88 <xchg_spi>
    600112f0:	fd842783          	lw	a5,-40(s0)
    600112f4:	0ff7f793          	andi	a5,a5,255
    600112f8:	00078513          	mv	a0,a5
    600112fc:	a8dff0ef          	jal	ra,60010d88 <xchg_spi>
    60011300:	00100793          	li	a5,1
    60011304:	fef407a3          	sb	a5,-17(s0)
    60011308:	fdf44783          	lbu	a5,-33(s0)
    6001130c:	0ff7f793          	andi	a5,a5,255
    60011310:	00079663          	bnez	a5,6001131c <send_cmd+0x144>
    60011314:	f9500793          	li	a5,-107
    60011318:	fef407a3          	sb	a5,-17(s0)
    6001131c:	fdf44783          	lbu	a5,-33(s0)
    60011320:	0ff7f713          	andi	a4,a5,255
    60011324:	00800793          	li	a5,8
    60011328:	00f71663          	bne	a4,a5,60011334 <send_cmd+0x15c>
    6001132c:	f8700793          	li	a5,-121
    60011330:	fef407a3          	sb	a5,-17(s0)
    60011334:	fef44783          	lbu	a5,-17(s0)
    60011338:	00078513          	mv	a0,a5
    6001133c:	a4dff0ef          	jal	ra,60010d88 <xchg_spi>
    60011340:	fdf44783          	lbu	a5,-33(s0)
    60011344:	0ff7f713          	andi	a4,a5,255
    60011348:	00c00793          	li	a5,12
    6001134c:	00f71663          	bne	a4,a5,60011358 <send_cmd+0x180>
    60011350:	0ff00513          	li	a0,255
    60011354:	a35ff0ef          	jal	ra,60010d88 <xchg_spi>
    60011358:	00a00793          	li	a5,10
    6001135c:	fef407a3          	sb	a5,-17(s0)
    60011360:	0ff00513          	li	a0,255
    60011364:	a25ff0ef          	jal	ra,60010d88 <xchg_spi>
    60011368:	00050793          	mv	a5,a0
    6001136c:	fef403a3          	sb	a5,-25(s0)
    60011370:	fe740783          	lb	a5,-25(s0)
    60011374:	0007de63          	bgez	a5,60011390 <send_cmd+0x1b8>
    60011378:	fef44783          	lbu	a5,-17(s0)
    6001137c:	fff7879b          	addiw	a5,a5,-1
    60011380:	fef407a3          	sb	a5,-17(s0)
    60011384:	fef44783          	lbu	a5,-17(s0)
    60011388:	0ff7f793          	andi	a5,a5,255
    6001138c:	fc079ae3          	bnez	a5,60011360 <send_cmd+0x188>
    60011390:	fe744783          	lbu	a5,-25(s0)
    60011394:	00078513          	mv	a0,a5
    60011398:	02813083          	ld	ra,40(sp)
    6001139c:	02013403          	ld	s0,32(sp)
    600113a0:	03010113          	addi	sp,sp,48
    600113a4:	00008067          	ret

00000000600113a8 <disk_initialize>:
    600113a8:	fc010113          	addi	sp,sp,-64
    600113ac:	02113c23          	sd	ra,56(sp)
    600113b0:	02813823          	sd	s0,48(sp)
    600113b4:	02913423          	sd	s1,40(sp)
    600113b8:	04010413          	addi	s0,sp,64
    600113bc:	00050793          	mv	a5,a0
    600113c0:	fcf407a3          	sb	a5,-49(s0)
    600113c4:	000187b7          	lui	a5,0x18
    600113c8:	6a07879b          	addiw	a5,a5,1696
    600113cc:	fcf42a23          	sw	a5,-44(s0)
    600113d0:	fcf44783          	lbu	a5,-49(s0)
    600113d4:	0ff7f793          	andi	a5,a5,255
    600113d8:	00078663          	beqz	a5,600113e4 <disk_initialize+0x3c>
    600113dc:	00100793          	li	a5,1
    600113e0:	2f00006f          	j	600116d0 <disk_initialize+0x328>
    600113e4:	97dff0ef          	jal	ra,60010d60 <power_off>
    600113e8:	600207b7          	lui	a5,0x60020
    600113ec:	f107c783          	lbu	a5,-240(a5) # 6001ff10 <Stat>
    600113f0:	0ff7f793          	andi	a5,a5,255
    600113f4:	0007879b          	sext.w	a5,a5
    600113f8:	0027f793          	andi	a5,a5,2
    600113fc:	0007879b          	sext.w	a5,a5
    60011400:	00078a63          	beqz	a5,60011414 <disk_initialize+0x6c>
    60011404:	600207b7          	lui	a5,0x60020
    60011408:	f107c783          	lbu	a5,-240(a5) # 6001ff10 <Stat>
    6001140c:	0ff7f793          	andi	a5,a5,255
    60011410:	2c00006f          	j	600116d0 <disk_initialize+0x328>
    60011414:	905ff0ef          	jal	ra,60010d18 <power_on>
    60011418:	00a00793          	li	a5,10
    6001141c:	fcf40fa3          	sb	a5,-33(s0)
    60011420:	0180006f          	j	60011438 <disk_initialize+0x90>
    60011424:	0ff00513          	li	a0,255
    60011428:	961ff0ef          	jal	ra,60010d88 <xchg_spi>
    6001142c:	fdf44783          	lbu	a5,-33(s0)
    60011430:	fff7879b          	addiw	a5,a5,-1
    60011434:	fcf40fa3          	sb	a5,-33(s0)
    60011438:	fdf44783          	lbu	a5,-33(s0)
    6001143c:	0ff7f793          	andi	a5,a5,255
    60011440:	fe0792e3          	bnez	a5,60011424 <disk_initialize+0x7c>
    60011444:	fc040ea3          	sb	zero,-35(s0)
    60011448:	00000593          	li	a1,0
    6001144c:	00000513          	li	a0,0
    60011450:	d89ff0ef          	jal	ra,600111d8 <send_cmd>
    60011454:	00050793          	mv	a5,a0
    60011458:	00078713          	mv	a4,a5
    6001145c:	00100793          	li	a5,1
    60011460:	22f71663          	bne	a4,a5,6001168c <disk_initialize+0x2e4>
    60011464:	000f47b7          	lui	a5,0xf4
    60011468:	2407879b          	addiw	a5,a5,576
    6001146c:	fcf42c23          	sw	a5,-40(s0)
    60011470:	fd842783          	lw	a5,-40(s0)
    60011474:	fff7871b          	addiw	a4,a5,-1
    60011478:	fce42c23          	sw	a4,-40(s0)
    6001147c:	16078263          	beqz	a5,600115e0 <disk_initialize+0x238>
    60011480:	1aa00593          	li	a1,426
    60011484:	00800513          	li	a0,8
    60011488:	d51ff0ef          	jal	ra,600111d8 <send_cmd>
    6001148c:	00050793          	mv	a5,a0
    60011490:	00078713          	mv	a4,a5
    60011494:	00100793          	li	a5,1
    60011498:	14f71463          	bne	a4,a5,600115e0 <disk_initialize+0x238>
    6001149c:	fc040fa3          	sb	zero,-33(s0)
    600114a0:	0340006f          	j	600114d4 <disk_initialize+0x12c>
    600114a4:	fdf44783          	lbu	a5,-33(s0)
    600114a8:	0007849b          	sext.w	s1,a5
    600114ac:	0ff00513          	li	a0,255
    600114b0:	8d9ff0ef          	jal	ra,60010d88 <xchg_spi>
    600114b4:	00050793          	mv	a5,a0
    600114b8:	00078713          	mv	a4,a5
    600114bc:	fe040793          	addi	a5,s0,-32
    600114c0:	009787b3          	add	a5,a5,s1
    600114c4:	fee78823          	sb	a4,-16(a5) # f3ff0 <_start-0x5ff1c010>
    600114c8:	fdf44783          	lbu	a5,-33(s0)
    600114cc:	0017879b          	addiw	a5,a5,1
    600114d0:	fcf40fa3          	sb	a5,-33(s0)
    600114d4:	fdf44783          	lbu	a5,-33(s0)
    600114d8:	0ff7f713          	andi	a4,a5,255
    600114dc:	00300793          	li	a5,3
    600114e0:	fce7f2e3          	bgeu	a5,a4,600114a4 <disk_initialize+0xfc>
    600114e4:	fd244783          	lbu	a5,-46(s0)
    600114e8:	00078713          	mv	a4,a5
    600114ec:	00100793          	li	a5,1
    600114f0:	18f71c63          	bne	a4,a5,60011688 <disk_initialize+0x2e0>
    600114f4:	fd344783          	lbu	a5,-45(s0)
    600114f8:	00078713          	mv	a4,a5
    600114fc:	0aa00793          	li	a5,170
    60011500:	18f71463          	bne	a4,a5,60011688 <disk_initialize+0x2e0>
    60011504:	0240006f          	j	60011528 <disk_initialize+0x180>
    60011508:	00000013          	nop
    6001150c:	fd442783          	lw	a5,-44(s0)
    60011510:	fff7871b          	addiw	a4,a5,-1
    60011514:	fce42a23          	sw	a4,-44(s0)
    60011518:	fe079ae3          	bnez	a5,6001150c <disk_initialize+0x164>
    6001151c:	000187b7          	lui	a5,0x18
    60011520:	6a07879b          	addiw	a5,a5,1696
    60011524:	fcf42a23          	sw	a5,-44(s0)
    60011528:	fd842783          	lw	a5,-40(s0)
    6001152c:	fff7871b          	addiw	a4,a5,-1
    60011530:	fce42c23          	sw	a4,-40(s0)
    60011534:	00078c63          	beqz	a5,6001154c <disk_initialize+0x1a4>
    60011538:	400005b7          	lui	a1,0x40000
    6001153c:	0a900513          	li	a0,169
    60011540:	c99ff0ef          	jal	ra,600111d8 <send_cmd>
    60011544:	00050793          	mv	a5,a0
    60011548:	fc0790e3          	bnez	a5,60011508 <disk_initialize+0x160>
    6001154c:	fd842783          	lw	a5,-40(s0)
    60011550:	fff7871b          	addiw	a4,a5,-1
    60011554:	fce42c23          	sw	a4,-40(s0)
    60011558:	12078863          	beqz	a5,60011688 <disk_initialize+0x2e0>
    6001155c:	00000593          	li	a1,0
    60011560:	03a00513          	li	a0,58
    60011564:	c75ff0ef          	jal	ra,600111d8 <send_cmd>
    60011568:	00050793          	mv	a5,a0
    6001156c:	10079e63          	bnez	a5,60011688 <disk_initialize+0x2e0>
    60011570:	fc040fa3          	sb	zero,-33(s0)
    60011574:	0340006f          	j	600115a8 <disk_initialize+0x200>
    60011578:	fdf44783          	lbu	a5,-33(s0)
    6001157c:	0007849b          	sext.w	s1,a5
    60011580:	0ff00513          	li	a0,255
    60011584:	805ff0ef          	jal	ra,60010d88 <xchg_spi>
    60011588:	00050793          	mv	a5,a0
    6001158c:	00078713          	mv	a4,a5
    60011590:	fe040793          	addi	a5,s0,-32
    60011594:	009787b3          	add	a5,a5,s1
    60011598:	fee78823          	sb	a4,-16(a5) # 17ff0 <_start-0x5fff8010>
    6001159c:	fdf44783          	lbu	a5,-33(s0)
    600115a0:	0017879b          	addiw	a5,a5,1
    600115a4:	fcf40fa3          	sb	a5,-33(s0)
    600115a8:	fdf44783          	lbu	a5,-33(s0)
    600115ac:	0ff7f713          	andi	a4,a5,255
    600115b0:	00300793          	li	a5,3
    600115b4:	fce7f2e3          	bgeu	a5,a4,60011578 <disk_initialize+0x1d0>
    600115b8:	fd044783          	lbu	a5,-48(s0)
    600115bc:	0007879b          	sext.w	a5,a5
    600115c0:	0407f793          	andi	a5,a5,64
    600115c4:	0007879b          	sext.w	a5,a5
    600115c8:	00078663          	beqz	a5,600115d4 <disk_initialize+0x22c>
    600115cc:	00c00793          	li	a5,12
    600115d0:	0080006f          	j	600115d8 <disk_initialize+0x230>
    600115d4:	00400793          	li	a5,4
    600115d8:	fcf40ea3          	sb	a5,-35(s0)
    600115dc:	0ac0006f          	j	60011688 <disk_initialize+0x2e0>
    600115e0:	fd842783          	lw	a5,-40(s0)
    600115e4:	fff7871b          	addiw	a4,a5,-1
    600115e8:	fce42c23          	sw	a4,-40(s0)
    600115ec:	02078a63          	beqz	a5,60011620 <disk_initialize+0x278>
    600115f0:	00000593          	li	a1,0
    600115f4:	0a900513          	li	a0,169
    600115f8:	be1ff0ef          	jal	ra,600111d8 <send_cmd>
    600115fc:	00050793          	mv	a5,a0
    60011600:	00078713          	mv	a4,a5
    60011604:	00100793          	li	a5,1
    60011608:	00e7ec63          	bltu	a5,a4,60011620 <disk_initialize+0x278>
    6001160c:	00200793          	li	a5,2
    60011610:	fcf40ea3          	sb	a5,-35(s0)
    60011614:	fa900793          	li	a5,-87
    60011618:	fcf40f23          	sb	a5,-34(s0)
    6001161c:	0140006f          	j	60011630 <disk_initialize+0x288>
    60011620:	00100793          	li	a5,1
    60011624:	fcf40ea3          	sb	a5,-35(s0)
    60011628:	00100793          	li	a5,1
    6001162c:	fcf40f23          	sb	a5,-34(s0)
    60011630:	00000013          	nop
    60011634:	fd842783          	lw	a5,-40(s0)
    60011638:	fff7871b          	addiw	a4,a5,-1
    6001163c:	fce42c23          	sw	a4,-40(s0)
    60011640:	00078e63          	beqz	a5,6001165c <disk_initialize+0x2b4>
    60011644:	fde44783          	lbu	a5,-34(s0)
    60011648:	00000593          	li	a1,0
    6001164c:	00078513          	mv	a0,a5
    60011650:	b89ff0ef          	jal	ra,600111d8 <send_cmd>
    60011654:	00050793          	mv	a5,a0
    60011658:	fc079ee3          	bnez	a5,60011634 <disk_initialize+0x28c>
    6001165c:	fd842783          	lw	a5,-40(s0)
    60011660:	fff7871b          	addiw	a4,a5,-1
    60011664:	fce42c23          	sw	a4,-40(s0)
    60011668:	00079c63          	bnez	a5,60011680 <disk_initialize+0x2d8>
    6001166c:	20000593          	li	a1,512
    60011670:	01000513          	li	a0,16
    60011674:	b65ff0ef          	jal	ra,600111d8 <send_cmd>
    60011678:	00050793          	mv	a5,a0
    6001167c:	00078863          	beqz	a5,6001168c <disk_initialize+0x2e4>
    60011680:	fc040ea3          	sb	zero,-35(s0)
    60011684:	0080006f          	j	6001168c <disk_initialize+0x2e4>
    60011688:	00000013          	nop
    6001168c:	6001a7b7          	lui	a5,0x6001a
    60011690:	fdd44703          	lbu	a4,-35(s0)
    60011694:	2ae78c23          	sb	a4,696(a5) # 6001a2b8 <CardType>
    60011698:	941ff0ef          	jal	ra,60010fd8 <deselect>
    6001169c:	fdd44783          	lbu	a5,-35(s0)
    600116a0:	0ff7f793          	andi	a5,a5,255
    600116a4:	02078063          	beqz	a5,600116c4 <disk_initialize+0x31c>
    600116a8:	600207b7          	lui	a5,0x60020
    600116ac:	f107c783          	lbu	a5,-240(a5) # 6001ff10 <Stat>
    600116b0:	0ff7f793          	andi	a5,a5,255
    600116b4:	ffe7f793          	andi	a5,a5,-2
    600116b8:	0ff7f713          	andi	a4,a5,255
    600116bc:	600207b7          	lui	a5,0x60020
    600116c0:	f0e78823          	sb	a4,-240(a5) # 6001ff10 <Stat>
    600116c4:	600207b7          	lui	a5,0x60020
    600116c8:	f107c783          	lbu	a5,-240(a5) # 6001ff10 <Stat>
    600116cc:	0ff7f793          	andi	a5,a5,255
    600116d0:	00078513          	mv	a0,a5
    600116d4:	03813083          	ld	ra,56(sp)
    600116d8:	03013403          	ld	s0,48(sp)
    600116dc:	02813483          	ld	s1,40(sp)
    600116e0:	04010113          	addi	sp,sp,64
    600116e4:	00008067          	ret

00000000600116e8 <disk_status>:
    600116e8:	fe010113          	addi	sp,sp,-32
    600116ec:	00813c23          	sd	s0,24(sp)
    600116f0:	02010413          	addi	s0,sp,32
    600116f4:	00050793          	mv	a5,a0
    600116f8:	fef407a3          	sb	a5,-17(s0)
    600116fc:	fef44783          	lbu	a5,-17(s0)
    60011700:	0ff7f793          	andi	a5,a5,255
    60011704:	00078663          	beqz	a5,60011710 <disk_status+0x28>
    60011708:	00100793          	li	a5,1
    6001170c:	0100006f          	j	6001171c <disk_status+0x34>
    60011710:	600207b7          	lui	a5,0x60020
    60011714:	f107c783          	lbu	a5,-240(a5) # 6001ff10 <Stat>
    60011718:	0ff7f793          	andi	a5,a5,255
    6001171c:	00078513          	mv	a0,a5
    60011720:	01813403          	ld	s0,24(sp)
    60011724:	02010113          	addi	sp,sp,32
    60011728:	00008067          	ret

000000006001172c <disk_read>:
    6001172c:	fc010113          	addi	sp,sp,-64
    60011730:	02113c23          	sd	ra,56(sp)
    60011734:	02813823          	sd	s0,48(sp)
    60011738:	04010413          	addi	s0,sp,64
    6001173c:	00050793          	mv	a5,a0
    60011740:	fcb43823          	sd	a1,-48(s0)
    60011744:	00068713          	mv	a4,a3
    60011748:	fcf40fa3          	sb	a5,-33(s0)
    6001174c:	00060793          	mv	a5,a2
    60011750:	fcf42c23          	sw	a5,-40(s0)
    60011754:	00070793          	mv	a5,a4
    60011758:	fcf42623          	sw	a5,-52(s0)
    6001175c:	fdf44783          	lbu	a5,-33(s0)
    60011760:	0ff7f793          	andi	a5,a5,255
    60011764:	00079863          	bnez	a5,60011774 <disk_read+0x48>
    60011768:	fcc42783          	lw	a5,-52(s0)
    6001176c:	0007879b          	sext.w	a5,a5
    60011770:	00079663          	bnez	a5,6001177c <disk_read+0x50>
    60011774:	00400793          	li	a5,4
    60011778:	0fc0006f          	j	60011874 <disk_read+0x148>
    6001177c:	600207b7          	lui	a5,0x60020
    60011780:	f107c783          	lbu	a5,-240(a5) # 6001ff10 <Stat>
    60011784:	0ff7f793          	andi	a5,a5,255
    60011788:	0007879b          	sext.w	a5,a5
    6001178c:	0017f793          	andi	a5,a5,1
    60011790:	0007879b          	sext.w	a5,a5
    60011794:	00078663          	beqz	a5,600117a0 <disk_read+0x74>
    60011798:	00300793          	li	a5,3
    6001179c:	0d80006f          	j	60011874 <disk_read+0x148>
    600117a0:	6001a7b7          	lui	a5,0x6001a
    600117a4:	2b87c783          	lbu	a5,696(a5) # 6001a2b8 <CardType>
    600117a8:	0007879b          	sext.w	a5,a5
    600117ac:	0087f793          	andi	a5,a5,8
    600117b0:	0007879b          	sext.w	a5,a5
    600117b4:	00079863          	bnez	a5,600117c4 <disk_read+0x98>
    600117b8:	fd842783          	lw	a5,-40(s0)
    600117bc:	0097979b          	slliw	a5,a5,0x9
    600117c0:	fcf42c23          	sw	a5,-40(s0)
    600117c4:	fcc42783          	lw	a5,-52(s0)
    600117c8:	0007871b          	sext.w	a4,a5
    600117cc:	00100793          	li	a5,1
    600117d0:	00e7f663          	bgeu	a5,a4,600117dc <disk_read+0xb0>
    600117d4:	01200793          	li	a5,18
    600117d8:	0080006f          	j	600117e0 <disk_read+0xb4>
    600117dc:	01100793          	li	a5,17
    600117e0:	fef407a3          	sb	a5,-17(s0)
    600117e4:	fd842703          	lw	a4,-40(s0)
    600117e8:	fef44783          	lbu	a5,-17(s0)
    600117ec:	00070593          	mv	a1,a4
    600117f0:	00078513          	mv	a0,a5
    600117f4:	9e5ff0ef          	jal	ra,600111d8 <send_cmd>
    600117f8:	00050793          	mv	a5,a0
    600117fc:	06079063          	bnez	a5,6001185c <disk_read+0x130>
    60011800:	20000593          	li	a1,512
    60011804:	fd043503          	ld	a0,-48(s0)
    60011808:	849ff0ef          	jal	ra,60011050 <rcvr_datablock>
    6001180c:	00050793          	mv	a5,a0
    60011810:	02078663          	beqz	a5,6001183c <disk_read+0x110>
    60011814:	fd043783          	ld	a5,-48(s0)
    60011818:	20078793          	addi	a5,a5,512
    6001181c:	fcf43823          	sd	a5,-48(s0)
    60011820:	fcc42783          	lw	a5,-52(s0)
    60011824:	fff7879b          	addiw	a5,a5,-1
    60011828:	fcf42623          	sw	a5,-52(s0)
    6001182c:	fcc42783          	lw	a5,-52(s0)
    60011830:	0007879b          	sext.w	a5,a5
    60011834:	fc0796e3          	bnez	a5,60011800 <disk_read+0xd4>
    60011838:	0080006f          	j	60011840 <disk_read+0x114>
    6001183c:	00000013          	nop
    60011840:	fef44783          	lbu	a5,-17(s0)
    60011844:	0ff7f713          	andi	a4,a5,255
    60011848:	01200793          	li	a5,18
    6001184c:	00f71863          	bne	a4,a5,6001185c <disk_read+0x130>
    60011850:	00000593          	li	a1,0
    60011854:	00c00513          	li	a0,12
    60011858:	981ff0ef          	jal	ra,600111d8 <send_cmd>
    6001185c:	f7cff0ef          	jal	ra,60010fd8 <deselect>
    60011860:	fcc42783          	lw	a5,-52(s0)
    60011864:	0007879b          	sext.w	a5,a5
    60011868:	00f037b3          	snez	a5,a5
    6001186c:	0ff7f793          	andi	a5,a5,255
    60011870:	0007879b          	sext.w	a5,a5
    60011874:	00078513          	mv	a0,a5
    60011878:	03813083          	ld	ra,56(sp)
    6001187c:	03013403          	ld	s0,48(sp)
    60011880:	04010113          	addi	sp,sp,64
    60011884:	00008067          	ret

0000000060011888 <disk_write>:
    60011888:	fd010113          	addi	sp,sp,-48
    6001188c:	02113423          	sd	ra,40(sp)
    60011890:	02813023          	sd	s0,32(sp)
    60011894:	03010413          	addi	s0,sp,48
    60011898:	00050793          	mv	a5,a0
    6001189c:	feb43023          	sd	a1,-32(s0)
    600118a0:	00068713          	mv	a4,a3
    600118a4:	fef407a3          	sb	a5,-17(s0)
    600118a8:	00060793          	mv	a5,a2
    600118ac:	fef42423          	sw	a5,-24(s0)
    600118b0:	00070793          	mv	a5,a4
    600118b4:	fcf42e23          	sw	a5,-36(s0)
    600118b8:	fef44783          	lbu	a5,-17(s0)
    600118bc:	0ff7f793          	andi	a5,a5,255
    600118c0:	00079863          	bnez	a5,600118d0 <disk_write+0x48>
    600118c4:	fdc42783          	lw	a5,-36(s0)
    600118c8:	0007879b          	sext.w	a5,a5
    600118cc:	00079663          	bnez	a5,600118d8 <disk_write+0x50>
    600118d0:	00400793          	li	a5,4
    600118d4:	1680006f          	j	60011a3c <disk_write+0x1b4>
    600118d8:	600207b7          	lui	a5,0x60020
    600118dc:	f107c783          	lbu	a5,-240(a5) # 6001ff10 <Stat>
    600118e0:	0ff7f793          	andi	a5,a5,255
    600118e4:	0007879b          	sext.w	a5,a5
    600118e8:	0017f793          	andi	a5,a5,1
    600118ec:	0007879b          	sext.w	a5,a5
    600118f0:	00078663          	beqz	a5,600118fc <disk_write+0x74>
    600118f4:	00300793          	li	a5,3
    600118f8:	1440006f          	j	60011a3c <disk_write+0x1b4>
    600118fc:	600207b7          	lui	a5,0x60020
    60011900:	f107c783          	lbu	a5,-240(a5) # 6001ff10 <Stat>
    60011904:	0ff7f793          	andi	a5,a5,255
    60011908:	0007879b          	sext.w	a5,a5
    6001190c:	0047f793          	andi	a5,a5,4
    60011910:	0007879b          	sext.w	a5,a5
    60011914:	00078663          	beqz	a5,60011920 <disk_write+0x98>
    60011918:	00200793          	li	a5,2
    6001191c:	1200006f          	j	60011a3c <disk_write+0x1b4>
    60011920:	6001a7b7          	lui	a5,0x6001a
    60011924:	2b87c783          	lbu	a5,696(a5) # 6001a2b8 <CardType>
    60011928:	0007879b          	sext.w	a5,a5
    6001192c:	0087f793          	andi	a5,a5,8
    60011930:	0007879b          	sext.w	a5,a5
    60011934:	00079863          	bnez	a5,60011944 <disk_write+0xbc>
    60011938:	fe842783          	lw	a5,-24(s0)
    6001193c:	0097979b          	slliw	a5,a5,0x9
    60011940:	fef42423          	sw	a5,-24(s0)
    60011944:	fdc42783          	lw	a5,-36(s0)
    60011948:	0007871b          	sext.w	a4,a5
    6001194c:	00100793          	li	a5,1
    60011950:	02f71c63          	bne	a4,a5,60011988 <disk_write+0x100>
    60011954:	fe842783          	lw	a5,-24(s0)
    60011958:	00078593          	mv	a1,a5
    6001195c:	01800513          	li	a0,24
    60011960:	879ff0ef          	jal	ra,600111d8 <send_cmd>
    60011964:	00050793          	mv	a5,a0
    60011968:	0a079e63          	bnez	a5,60011a24 <disk_write+0x19c>
    6001196c:	0fe00593          	li	a1,254
    60011970:	fe043503          	ld	a0,-32(s0)
    60011974:	f8cff0ef          	jal	ra,60011100 <xmit_datablock>
    60011978:	00050793          	mv	a5,a0
    6001197c:	0a078463          	beqz	a5,60011a24 <disk_write+0x19c>
    60011980:	fc042e23          	sw	zero,-36(s0)
    60011984:	0a00006f          	j	60011a24 <disk_write+0x19c>
    60011988:	6001a7b7          	lui	a5,0x6001a
    6001198c:	2b87c783          	lbu	a5,696(a5) # 6001a2b8 <CardType>
    60011990:	0007879b          	sext.w	a5,a5
    60011994:	0067f793          	andi	a5,a5,6
    60011998:	0007879b          	sext.w	a5,a5
    6001199c:	00078a63          	beqz	a5,600119b0 <disk_write+0x128>
    600119a0:	fdc42783          	lw	a5,-36(s0)
    600119a4:	00078593          	mv	a1,a5
    600119a8:	09700513          	li	a0,151
    600119ac:	82dff0ef          	jal	ra,600111d8 <send_cmd>
    600119b0:	fe842783          	lw	a5,-24(s0)
    600119b4:	00078593          	mv	a1,a5
    600119b8:	01900513          	li	a0,25
    600119bc:	81dff0ef          	jal	ra,600111d8 <send_cmd>
    600119c0:	00050793          	mv	a5,a0
    600119c4:	06079063          	bnez	a5,60011a24 <disk_write+0x19c>
    600119c8:	0fc00593          	li	a1,252
    600119cc:	fe043503          	ld	a0,-32(s0)
    600119d0:	f30ff0ef          	jal	ra,60011100 <xmit_datablock>
    600119d4:	00050793          	mv	a5,a0
    600119d8:	02078663          	beqz	a5,60011a04 <disk_write+0x17c>
    600119dc:	fe043783          	ld	a5,-32(s0)
    600119e0:	20078793          	addi	a5,a5,512
    600119e4:	fef43023          	sd	a5,-32(s0)
    600119e8:	fdc42783          	lw	a5,-36(s0)
    600119ec:	fff7879b          	addiw	a5,a5,-1
    600119f0:	fcf42e23          	sw	a5,-36(s0)
    600119f4:	fdc42783          	lw	a5,-36(s0)
    600119f8:	0007879b          	sext.w	a5,a5
    600119fc:	fc0796e3          	bnez	a5,600119c8 <disk_write+0x140>
    60011a00:	0080006f          	j	60011a08 <disk_write+0x180>
    60011a04:	00000013          	nop
    60011a08:	0fd00593          	li	a1,253
    60011a0c:	00000513          	li	a0,0
    60011a10:	ef0ff0ef          	jal	ra,60011100 <xmit_datablock>
    60011a14:	00050793          	mv	a5,a0
    60011a18:	00079663          	bnez	a5,60011a24 <disk_write+0x19c>
    60011a1c:	00100793          	li	a5,1
    60011a20:	fcf42e23          	sw	a5,-36(s0)
    60011a24:	db4ff0ef          	jal	ra,60010fd8 <deselect>
    60011a28:	fdc42783          	lw	a5,-36(s0)
    60011a2c:	0007879b          	sext.w	a5,a5
    60011a30:	00f037b3          	snez	a5,a5
    60011a34:	0ff7f793          	andi	a5,a5,255
    60011a38:	0007879b          	sext.w	a5,a5
    60011a3c:	00078513          	mv	a0,a5
    60011a40:	02813083          	ld	ra,40(sp)
    60011a44:	02013403          	ld	s0,32(sp)
    60011a48:	03010113          	addi	sp,sp,48
    60011a4c:	00008067          	ret

0000000060011a50 <disk_ioctl>:
    60011a50:	fa010113          	addi	sp,sp,-96
    60011a54:	04113c23          	sd	ra,88(sp)
    60011a58:	04813823          	sd	s0,80(sp)
    60011a5c:	04913423          	sd	s1,72(sp)
    60011a60:	06010413          	addi	s0,sp,96
    60011a64:	00050793          	mv	a5,a0
    60011a68:	00058713          	mv	a4,a1
    60011a6c:	fac43023          	sd	a2,-96(s0)
    60011a70:	faf407a3          	sb	a5,-81(s0)
    60011a74:	00070793          	mv	a5,a4
    60011a78:	faf40723          	sb	a5,-82(s0)
    60011a7c:	fa043783          	ld	a5,-96(s0)
    60011a80:	fcf43823          	sd	a5,-48(s0)
    60011a84:	faf44783          	lbu	a5,-81(s0)
    60011a88:	0ff7f793          	andi	a5,a5,255
    60011a8c:	00078663          	beqz	a5,60011a98 <disk_ioctl+0x48>
    60011a90:	00400793          	li	a5,4
    60011a94:	5480006f          	j	60011fdc <disk_ioctl+0x58c>
    60011a98:	00100793          	li	a5,1
    60011a9c:	fcf42e23          	sw	a5,-36(s0)
    60011aa0:	600207b7          	lui	a5,0x60020
    60011aa4:	f107c783          	lbu	a5,-240(a5) # 6001ff10 <Stat>
    60011aa8:	0ff7f793          	andi	a5,a5,255
    60011aac:	0007879b          	sext.w	a5,a5
    60011ab0:	0017f793          	andi	a5,a5,1
    60011ab4:	0007879b          	sext.w	a5,a5
    60011ab8:	00078663          	beqz	a5,60011ac4 <disk_ioctl+0x74>
    60011abc:	00300793          	li	a5,3
    60011ac0:	51c0006f          	j	60011fdc <disk_ioctl+0x58c>
    60011ac4:	fae44783          	lbu	a5,-82(s0)
    60011ac8:	0007879b          	sext.w	a5,a5
    60011acc:	00078693          	mv	a3,a5
    60011ad0:	03600713          	li	a4,54
    60011ad4:	4cd76063          	bltu	a4,a3,60011f94 <disk_ioctl+0x544>
    60011ad8:	00279713          	slli	a4,a5,0x2
    60011adc:	6001a7b7          	lui	a5,0x6001a
    60011ae0:	1bc78793          	addi	a5,a5,444 # 6001a1bc <get_flash_base+0x104c>
    60011ae4:	00f707b3          	add	a5,a4,a5
    60011ae8:	0007a783          	lw	a5,0(a5)
    60011aec:	00078067          	jr	a5
    60011af0:	d14ff0ef          	jal	ra,60011004 <select>
    60011af4:	00050793          	mv	a5,a0
    60011af8:	4a078463          	beqz	a5,60011fa0 <disk_ioctl+0x550>
    60011afc:	fc042e23          	sw	zero,-36(s0)
    60011b00:	4a00006f          	j	60011fa0 <disk_ioctl+0x550>
    60011b04:	00000593          	li	a1,0
    60011b08:	00900513          	li	a0,9
    60011b0c:	eccff0ef          	jal	ra,600111d8 <send_cmd>
    60011b10:	00050793          	mv	a5,a0
    60011b14:	48079a63          	bnez	a5,60011fa8 <disk_ioctl+0x558>
    60011b18:	fb840793          	addi	a5,s0,-72
    60011b1c:	01000593          	li	a1,16
    60011b20:	00078513          	mv	a0,a5
    60011b24:	d2cff0ef          	jal	ra,60011050 <rcvr_datablock>
    60011b28:	00050793          	mv	a5,a0
    60011b2c:	46078e63          	beqz	a5,60011fa8 <disk_ioctl+0x558>
    60011b30:	fb844783          	lbu	a5,-72(s0)
    60011b34:	0067d79b          	srliw	a5,a5,0x6
    60011b38:	0ff7f793          	andi	a5,a5,255
    60011b3c:	00078713          	mv	a4,a5
    60011b40:	00100793          	li	a5,1
    60011b44:	06f71863          	bne	a4,a5,60011bb4 <disk_ioctl+0x164>
    60011b48:	fc144783          	lbu	a5,-63(s0)
    60011b4c:	0007871b          	sext.w	a4,a5
    60011b50:	fc044783          	lbu	a5,-64(s0)
    60011b54:	0007879b          	sext.w	a5,a5
    60011b58:	0087979b          	slliw	a5,a5,0x8
    60011b5c:	0007879b          	sext.w	a5,a5
    60011b60:	00f707bb          	addw	a5,a4,a5
    60011b64:	0007879b          	sext.w	a5,a5
    60011b68:	0007871b          	sext.w	a4,a5
    60011b6c:	fbf44783          	lbu	a5,-65(s0)
    60011b70:	0007879b          	sext.w	a5,a5
    60011b74:	0107979b          	slliw	a5,a5,0x10
    60011b78:	0007879b          	sext.w	a5,a5
    60011b7c:	00078693          	mv	a3,a5
    60011b80:	003f07b7          	lui	a5,0x3f0
    60011b84:	00f6f7b3          	and	a5,a3,a5
    60011b88:	0007879b          	sext.w	a5,a5
    60011b8c:	00f707bb          	addw	a5,a4,a5
    60011b90:	0007879b          	sext.w	a5,a5
    60011b94:	0017879b          	addiw	a5,a5,1
    60011b98:	fcf42623          	sw	a5,-52(s0)
    60011b9c:	fcc42783          	lw	a5,-52(s0)
    60011ba0:	00a7979b          	slliw	a5,a5,0xa
    60011ba4:	0007871b          	sext.w	a4,a5
    60011ba8:	fa043783          	ld	a5,-96(s0)
    60011bac:	00e7a023          	sw	a4,0(a5) # 3f0000 <_start-0x5fc20000>
    60011bb0:	0d40006f          	j	60011c84 <disk_ioctl+0x234>
    60011bb4:	fbd44783          	lbu	a5,-67(s0)
    60011bb8:	00f7f793          	andi	a5,a5,15
    60011bbc:	0ff7f713          	andi	a4,a5,255
    60011bc0:	fc244783          	lbu	a5,-62(s0)
    60011bc4:	0077d79b          	srliw	a5,a5,0x7
    60011bc8:	0ff7f793          	andi	a5,a5,255
    60011bcc:	00f707bb          	addw	a5,a4,a5
    60011bd0:	0ff7f713          	andi	a4,a5,255
    60011bd4:	fc144783          	lbu	a5,-63(s0)
    60011bd8:	0007879b          	sext.w	a5,a5
    60011bdc:	0017979b          	slliw	a5,a5,0x1
    60011be0:	0007879b          	sext.w	a5,a5
    60011be4:	0ff7f793          	andi	a5,a5,255
    60011be8:	0067f793          	andi	a5,a5,6
    60011bec:	0ff7f793          	andi	a5,a5,255
    60011bf0:	00f707bb          	addw	a5,a4,a5
    60011bf4:	0ff7f793          	andi	a5,a5,255
    60011bf8:	0027879b          	addiw	a5,a5,2
    60011bfc:	fcf40da3          	sb	a5,-37(s0)
    60011c00:	fc044783          	lbu	a5,-64(s0)
    60011c04:	0067d79b          	srliw	a5,a5,0x6
    60011c08:	0ff7f793          	andi	a5,a5,255
    60011c0c:	0007871b          	sext.w	a4,a5
    60011c10:	fbf44783          	lbu	a5,-65(s0)
    60011c14:	0007879b          	sext.w	a5,a5
    60011c18:	0027979b          	slliw	a5,a5,0x2
    60011c1c:	0007879b          	sext.w	a5,a5
    60011c20:	00f707bb          	addw	a5,a4,a5
    60011c24:	0007871b          	sext.w	a4,a5
    60011c28:	fbe44783          	lbu	a5,-66(s0)
    60011c2c:	0007879b          	sext.w	a5,a5
    60011c30:	00a7979b          	slliw	a5,a5,0xa
    60011c34:	0007869b          	sext.w	a3,a5
    60011c38:	000017b7          	lui	a5,0x1
    60011c3c:	c0078793          	addi	a5,a5,-1024 # c00 <_start-0x6000f400>
    60011c40:	00f6f7b3          	and	a5,a3,a5
    60011c44:	0007879b          	sext.w	a5,a5
    60011c48:	00f707bb          	addw	a5,a4,a5
    60011c4c:	0007879b          	sext.w	a5,a5
    60011c50:	0017879b          	addiw	a5,a5,1
    60011c54:	0007879b          	sext.w	a5,a5
    60011c58:	fcf42623          	sw	a5,-52(s0)
    60011c5c:	fdb44783          	lbu	a5,-37(s0)
    60011c60:	0007879b          	sext.w	a5,a5
    60011c64:	ff77879b          	addiw	a5,a5,-9
    60011c68:	0007879b          	sext.w	a5,a5
    60011c6c:	00078713          	mv	a4,a5
    60011c70:	fcc42783          	lw	a5,-52(s0)
    60011c74:	00e797bb          	sllw	a5,a5,a4
    60011c78:	0007871b          	sext.w	a4,a5
    60011c7c:	fa043783          	ld	a5,-96(s0)
    60011c80:	00e7a023          	sw	a4,0(a5)
    60011c84:	fc042e23          	sw	zero,-36(s0)
    60011c88:	3200006f          	j	60011fa8 <disk_ioctl+0x558>
    60011c8c:	6001a7b7          	lui	a5,0x6001a
    60011c90:	2b87c783          	lbu	a5,696(a5) # 6001a2b8 <CardType>
    60011c94:	0007879b          	sext.w	a5,a5
    60011c98:	0047f793          	andi	a5,a5,4
    60011c9c:	0007879b          	sext.w	a5,a5
    60011ca0:	08078a63          	beqz	a5,60011d34 <disk_ioctl+0x2e4>
    60011ca4:	00000593          	li	a1,0
    60011ca8:	08d00513          	li	a0,141
    60011cac:	d2cff0ef          	jal	ra,600111d8 <send_cmd>
    60011cb0:	00050793          	mv	a5,a0
    60011cb4:	2e079e63          	bnez	a5,60011fb0 <disk_ioctl+0x560>
    60011cb8:	0ff00513          	li	a0,255
    60011cbc:	8ccff0ef          	jal	ra,60010d88 <xchg_spi>
    60011cc0:	fb840793          	addi	a5,s0,-72
    60011cc4:	01000593          	li	a1,16
    60011cc8:	00078513          	mv	a0,a5
    60011ccc:	b84ff0ef          	jal	ra,60011050 <rcvr_datablock>
    60011cd0:	00050793          	mv	a5,a0
    60011cd4:	2c078e63          	beqz	a5,60011fb0 <disk_ioctl+0x560>
    60011cd8:	03000793          	li	a5,48
    60011cdc:	fcf40da3          	sb	a5,-37(s0)
    60011ce0:	0180006f          	j	60011cf8 <disk_ioctl+0x2a8>
    60011ce4:	0ff00513          	li	a0,255
    60011ce8:	8a0ff0ef          	jal	ra,60010d88 <xchg_spi>
    60011cec:	fdb44783          	lbu	a5,-37(s0)
    60011cf0:	fff7879b          	addiw	a5,a5,-1
    60011cf4:	fcf40da3          	sb	a5,-37(s0)
    60011cf8:	fdb44783          	lbu	a5,-37(s0)
    60011cfc:	0ff7f793          	andi	a5,a5,255
    60011d00:	fe0792e3          	bnez	a5,60011ce4 <disk_ioctl+0x294>
    60011d04:	fc244783          	lbu	a5,-62(s0)
    60011d08:	0047d79b          	srliw	a5,a5,0x4
    60011d0c:	0ff7f793          	andi	a5,a5,255
    60011d10:	0007879b          	sext.w	a5,a5
    60011d14:	00078713          	mv	a4,a5
    60011d18:	01000793          	li	a5,16
    60011d1c:	00e797b3          	sll	a5,a5,a4
    60011d20:	0007871b          	sext.w	a4,a5
    60011d24:	fa043783          	ld	a5,-96(s0)
    60011d28:	00e7a023          	sw	a4,0(a5)
    60011d2c:	fc042e23          	sw	zero,-36(s0)
    60011d30:	2800006f          	j	60011fb0 <disk_ioctl+0x560>
    60011d34:	00000593          	li	a1,0
    60011d38:	00900513          	li	a0,9
    60011d3c:	c9cff0ef          	jal	ra,600111d8 <send_cmd>
    60011d40:	00050793          	mv	a5,a0
    60011d44:	26079663          	bnez	a5,60011fb0 <disk_ioctl+0x560>
    60011d48:	fb840793          	addi	a5,s0,-72
    60011d4c:	01000593          	li	a1,16
    60011d50:	00078513          	mv	a0,a5
    60011d54:	afcff0ef          	jal	ra,60011050 <rcvr_datablock>
    60011d58:	00050793          	mv	a5,a0
    60011d5c:	24078a63          	beqz	a5,60011fb0 <disk_ioctl+0x560>
    60011d60:	6001a7b7          	lui	a5,0x6001a
    60011d64:	2b87c783          	lbu	a5,696(a5) # 6001a2b8 <CardType>
    60011d68:	0007879b          	sext.w	a5,a5
    60011d6c:	0027f793          	andi	a5,a5,2
    60011d70:	0007879b          	sext.w	a5,a5
    60011d74:	06078663          	beqz	a5,60011de0 <disk_ioctl+0x390>
    60011d78:	fc244783          	lbu	a5,-62(s0)
    60011d7c:	0007879b          	sext.w	a5,a5
    60011d80:	0017979b          	slliw	a5,a5,0x1
    60011d84:	0007879b          	sext.w	a5,a5
    60011d88:	07e7f793          	andi	a5,a5,126
    60011d8c:	0007871b          	sext.w	a4,a5
    60011d90:	fc344783          	lbu	a5,-61(s0)
    60011d94:	0077d79b          	srliw	a5,a5,0x7
    60011d98:	0ff7f793          	andi	a5,a5,255
    60011d9c:	0007879b          	sext.w	a5,a5
    60011da0:	00f707bb          	addw	a5,a4,a5
    60011da4:	0007879b          	sext.w	a5,a5
    60011da8:	0017879b          	addiw	a5,a5,1
    60011dac:	0007871b          	sext.w	a4,a5
    60011db0:	fc544783          	lbu	a5,-59(s0)
    60011db4:	0067d79b          	srliw	a5,a5,0x6
    60011db8:	0ff7f793          	andi	a5,a5,255
    60011dbc:	0007879b          	sext.w	a5,a5
    60011dc0:	fff7879b          	addiw	a5,a5,-1
    60011dc4:	0007879b          	sext.w	a5,a5
    60011dc8:	00f717bb          	sllw	a5,a4,a5
    60011dcc:	0007879b          	sext.w	a5,a5
    60011dd0:	0007871b          	sext.w	a4,a5
    60011dd4:	fa043783          	ld	a5,-96(s0)
    60011dd8:	00e7a023          	sw	a4,0(a5)
    60011ddc:	07c0006f          	j	60011e58 <disk_ioctl+0x408>
    60011de0:	fc244783          	lbu	a5,-62(s0)
    60011de4:	0007879b          	sext.w	a5,a5
    60011de8:	4027d79b          	sraiw	a5,a5,0x2
    60011dec:	0007879b          	sext.w	a5,a5
    60011df0:	03079793          	slli	a5,a5,0x30
    60011df4:	0307d793          	srli	a5,a5,0x30
    60011df8:	0007879b          	sext.w	a5,a5
    60011dfc:	01f7f793          	andi	a5,a5,31
    60011e00:	0007879b          	sext.w	a5,a5
    60011e04:	0017879b          	addiw	a5,a5,1
    60011e08:	0007871b          	sext.w	a4,a5
    60011e0c:	fc344783          	lbu	a5,-61(s0)
    60011e10:	0007879b          	sext.w	a5,a5
    60011e14:	0037979b          	slliw	a5,a5,0x3
    60011e18:	0007879b          	sext.w	a5,a5
    60011e1c:	0187f793          	andi	a5,a5,24
    60011e20:	0007869b          	sext.w	a3,a5
    60011e24:	fc344783          	lbu	a5,-61(s0)
    60011e28:	0057d79b          	srliw	a5,a5,0x5
    60011e2c:	0ff7f793          	andi	a5,a5,255
    60011e30:	0007879b          	sext.w	a5,a5
    60011e34:	00f687bb          	addw	a5,a3,a5
    60011e38:	0007879b          	sext.w	a5,a5
    60011e3c:	0017879b          	addiw	a5,a5,1
    60011e40:	0007879b          	sext.w	a5,a5
    60011e44:	02f707bb          	mulw	a5,a4,a5
    60011e48:	0007879b          	sext.w	a5,a5
    60011e4c:	0007871b          	sext.w	a4,a5
    60011e50:	fa043783          	ld	a5,-96(s0)
    60011e54:	00e7a023          	sw	a4,0(a5)
    60011e58:	fc042e23          	sw	zero,-36(s0)
    60011e5c:	1540006f          	j	60011fb0 <disk_ioctl+0x560>
    60011e60:	6001a7b7          	lui	a5,0x6001a
    60011e64:	2b87c703          	lbu	a4,696(a5) # 6001a2b8 <CardType>
    60011e68:	fd043783          	ld	a5,-48(s0)
    60011e6c:	00e78023          	sb	a4,0(a5)
    60011e70:	fc042e23          	sw	zero,-36(s0)
    60011e74:	1600006f          	j	60011fd4 <disk_ioctl+0x584>
    60011e78:	00000593          	li	a1,0
    60011e7c:	00900513          	li	a0,9
    60011e80:	b58ff0ef          	jal	ra,600111d8 <send_cmd>
    60011e84:	00050793          	mv	a5,a0
    60011e88:	12079863          	bnez	a5,60011fb8 <disk_ioctl+0x568>
    60011e8c:	01000593          	li	a1,16
    60011e90:	fd043503          	ld	a0,-48(s0)
    60011e94:	9bcff0ef          	jal	ra,60011050 <rcvr_datablock>
    60011e98:	00050793          	mv	a5,a0
    60011e9c:	10078e63          	beqz	a5,60011fb8 <disk_ioctl+0x568>
    60011ea0:	fc042e23          	sw	zero,-36(s0)
    60011ea4:	1140006f          	j	60011fb8 <disk_ioctl+0x568>
    60011ea8:	00000593          	li	a1,0
    60011eac:	00a00513          	li	a0,10
    60011eb0:	b28ff0ef          	jal	ra,600111d8 <send_cmd>
    60011eb4:	00050793          	mv	a5,a0
    60011eb8:	10079463          	bnez	a5,60011fc0 <disk_ioctl+0x570>
    60011ebc:	01000593          	li	a1,16
    60011ec0:	fd043503          	ld	a0,-48(s0)
    60011ec4:	98cff0ef          	jal	ra,60011050 <rcvr_datablock>
    60011ec8:	00050793          	mv	a5,a0
    60011ecc:	0e078a63          	beqz	a5,60011fc0 <disk_ioctl+0x570>
    60011ed0:	fc042e23          	sw	zero,-36(s0)
    60011ed4:	0ec0006f          	j	60011fc0 <disk_ioctl+0x570>
    60011ed8:	00000593          	li	a1,0
    60011edc:	03a00513          	li	a0,58
    60011ee0:	af8ff0ef          	jal	ra,600111d8 <send_cmd>
    60011ee4:	00050793          	mv	a5,a0
    60011ee8:	0e079063          	bnez	a5,60011fc8 <disk_ioctl+0x578>
    60011eec:	00400793          	li	a5,4
    60011ef0:	fcf40da3          	sb	a5,-37(s0)
    60011ef4:	02c0006f          	j	60011f20 <disk_ioctl+0x4d0>
    60011ef8:	fd043483          	ld	s1,-48(s0)
    60011efc:	00148793          	addi	a5,s1,1
    60011f00:	fcf43823          	sd	a5,-48(s0)
    60011f04:	0ff00513          	li	a0,255
    60011f08:	e81fe0ef          	jal	ra,60010d88 <xchg_spi>
    60011f0c:	00050793          	mv	a5,a0
    60011f10:	00f48023          	sb	a5,0(s1)
    60011f14:	fdb44783          	lbu	a5,-37(s0)
    60011f18:	fff7879b          	addiw	a5,a5,-1
    60011f1c:	fcf40da3          	sb	a5,-37(s0)
    60011f20:	fdb44783          	lbu	a5,-37(s0)
    60011f24:	0ff7f793          	andi	a5,a5,255
    60011f28:	fc0798e3          	bnez	a5,60011ef8 <disk_ioctl+0x4a8>
    60011f2c:	fc042e23          	sw	zero,-36(s0)
    60011f30:	0980006f          	j	60011fc8 <disk_ioctl+0x578>
    60011f34:	00000593          	li	a1,0
    60011f38:	08d00513          	li	a0,141
    60011f3c:	a9cff0ef          	jal	ra,600111d8 <send_cmd>
    60011f40:	00050793          	mv	a5,a0
    60011f44:	08079663          	bnez	a5,60011fd0 <disk_ioctl+0x580>
    60011f48:	0ff00513          	li	a0,255
    60011f4c:	e3dfe0ef          	jal	ra,60010d88 <xchg_spi>
    60011f50:	04000593          	li	a1,64
    60011f54:	fd043503          	ld	a0,-48(s0)
    60011f58:	8f8ff0ef          	jal	ra,60011050 <rcvr_datablock>
    60011f5c:	00050793          	mv	a5,a0
    60011f60:	06078863          	beqz	a5,60011fd0 <disk_ioctl+0x580>
    60011f64:	fc042e23          	sw	zero,-36(s0)
    60011f68:	0680006f          	j	60011fd0 <disk_ioctl+0x580>
    60011f6c:	df5fe0ef          	jal	ra,60010d60 <power_off>
    60011f70:	600207b7          	lui	a5,0x60020
    60011f74:	f107c783          	lbu	a5,-240(a5) # 6001ff10 <Stat>
    60011f78:	0ff7f793          	andi	a5,a5,255
    60011f7c:	0017e793          	ori	a5,a5,1
    60011f80:	0ff7f713          	andi	a4,a5,255
    60011f84:	600207b7          	lui	a5,0x60020
    60011f88:	f0e78823          	sb	a4,-240(a5) # 6001ff10 <Stat>
    60011f8c:	fc042e23          	sw	zero,-36(s0)
    60011f90:	0440006f          	j	60011fd4 <disk_ioctl+0x584>
    60011f94:	00400793          	li	a5,4
    60011f98:	fcf42e23          	sw	a5,-36(s0)
    60011f9c:	0380006f          	j	60011fd4 <disk_ioctl+0x584>
    60011fa0:	00000013          	nop
    60011fa4:	0300006f          	j	60011fd4 <disk_ioctl+0x584>
    60011fa8:	00000013          	nop
    60011fac:	0280006f          	j	60011fd4 <disk_ioctl+0x584>
    60011fb0:	00000013          	nop
    60011fb4:	0200006f          	j	60011fd4 <disk_ioctl+0x584>
    60011fb8:	00000013          	nop
    60011fbc:	0180006f          	j	60011fd4 <disk_ioctl+0x584>
    60011fc0:	00000013          	nop
    60011fc4:	0100006f          	j	60011fd4 <disk_ioctl+0x584>
    60011fc8:	00000013          	nop
    60011fcc:	0080006f          	j	60011fd4 <disk_ioctl+0x584>
    60011fd0:	00000013          	nop
    60011fd4:	804ff0ef          	jal	ra,60010fd8 <deselect>
    60011fd8:	fdc42783          	lw	a5,-36(s0)
    60011fdc:	00078513          	mv	a0,a5
    60011fe0:	05813083          	ld	ra,88(sp)
    60011fe4:	05013403          	ld	s0,80(sp)
    60011fe8:	04813483          	ld	s1,72(sp)
    60011fec:	06010113          	addi	sp,sp,96
    60011ff0:	00008067          	ret

0000000060011ff4 <mem_cpy>:
    60011ff4:	fc010113          	addi	sp,sp,-64
    60011ff8:	02813c23          	sd	s0,56(sp)
    60011ffc:	04010413          	addi	s0,sp,64
    60012000:	fca43c23          	sd	a0,-40(s0)
    60012004:	fcb43823          	sd	a1,-48(s0)
    60012008:	00060793          	mv	a5,a2
    6001200c:	fcf42623          	sw	a5,-52(s0)
    60012010:	fd843783          	ld	a5,-40(s0)
    60012014:	fef43423          	sd	a5,-24(s0)
    60012018:	fd043783          	ld	a5,-48(s0)
    6001201c:	fef43023          	sd	a5,-32(s0)
    60012020:	0240006f          	j	60012044 <mem_cpy+0x50>
    60012024:	fe043703          	ld	a4,-32(s0)
    60012028:	00170793          	addi	a5,a4,1
    6001202c:	fef43023          	sd	a5,-32(s0)
    60012030:	fe843783          	ld	a5,-24(s0)
    60012034:	00178693          	addi	a3,a5,1
    60012038:	fed43423          	sd	a3,-24(s0)
    6001203c:	00074703          	lbu	a4,0(a4)
    60012040:	00e78023          	sb	a4,0(a5)
    60012044:	fcc42783          	lw	a5,-52(s0)
    60012048:	fff7871b          	addiw	a4,a5,-1
    6001204c:	fce42623          	sw	a4,-52(s0)
    60012050:	fc079ae3          	bnez	a5,60012024 <mem_cpy+0x30>
    60012054:	00000013          	nop
    60012058:	03813403          	ld	s0,56(sp)
    6001205c:	04010113          	addi	sp,sp,64
    60012060:	00008067          	ret

0000000060012064 <mem_set>:
    60012064:	fd010113          	addi	sp,sp,-48
    60012068:	02813423          	sd	s0,40(sp)
    6001206c:	03010413          	addi	s0,sp,48
    60012070:	fca43c23          	sd	a0,-40(s0)
    60012074:	00058793          	mv	a5,a1
    60012078:	00060713          	mv	a4,a2
    6001207c:	fcf42a23          	sw	a5,-44(s0)
    60012080:	00070793          	mv	a5,a4
    60012084:	fcf42823          	sw	a5,-48(s0)
    60012088:	fd843783          	ld	a5,-40(s0)
    6001208c:	fef43423          	sd	a5,-24(s0)
    60012090:	01c0006f          	j	600120ac <mem_set+0x48>
    60012094:	fe843783          	ld	a5,-24(s0)
    60012098:	00178713          	addi	a4,a5,1
    6001209c:	fee43423          	sd	a4,-24(s0)
    600120a0:	fd442703          	lw	a4,-44(s0)
    600120a4:	0ff77713          	andi	a4,a4,255
    600120a8:	00e78023          	sb	a4,0(a5)
    600120ac:	fd042783          	lw	a5,-48(s0)
    600120b0:	fff7871b          	addiw	a4,a5,-1
    600120b4:	fce42823          	sw	a4,-48(s0)
    600120b8:	fc079ee3          	bnez	a5,60012094 <mem_set+0x30>
    600120bc:	00000013          	nop
    600120c0:	02813403          	ld	s0,40(sp)
    600120c4:	03010113          	addi	sp,sp,48
    600120c8:	00008067          	ret

00000000600120cc <mem_cmp>:
    600120cc:	fb010113          	addi	sp,sp,-80
    600120d0:	04813423          	sd	s0,72(sp)
    600120d4:	05010413          	addi	s0,sp,80
    600120d8:	fca43423          	sd	a0,-56(s0)
    600120dc:	fcb43023          	sd	a1,-64(s0)
    600120e0:	00060793          	mv	a5,a2
    600120e4:	faf42e23          	sw	a5,-68(s0)
    600120e8:	fc843783          	ld	a5,-56(s0)
    600120ec:	fef43423          	sd	a5,-24(s0)
    600120f0:	fc043783          	ld	a5,-64(s0)
    600120f4:	fef43023          	sd	a5,-32(s0)
    600120f8:	fc042e23          	sw	zero,-36(s0)
    600120fc:	00000013          	nop
    60012100:	fbc42783          	lw	a5,-68(s0)
    60012104:	fff7871b          	addiw	a4,a5,-1
    60012108:	fae42e23          	sw	a4,-68(s0)
    6001210c:	04078063          	beqz	a5,6001214c <mem_cmp+0x80>
    60012110:	fe843783          	ld	a5,-24(s0)
    60012114:	00178713          	addi	a4,a5,1
    60012118:	fee43423          	sd	a4,-24(s0)
    6001211c:	0007c783          	lbu	a5,0(a5)
    60012120:	0007871b          	sext.w	a4,a5
    60012124:	fe043783          	ld	a5,-32(s0)
    60012128:	00178693          	addi	a3,a5,1
    6001212c:	fed43023          	sd	a3,-32(s0)
    60012130:	0007c783          	lbu	a5,0(a5)
    60012134:	0007879b          	sext.w	a5,a5
    60012138:	40f707bb          	subw	a5,a4,a5
    6001213c:	fcf42e23          	sw	a5,-36(s0)
    60012140:	fdc42783          	lw	a5,-36(s0)
    60012144:	0007879b          	sext.w	a5,a5
    60012148:	fa078ce3          	beqz	a5,60012100 <mem_cmp+0x34>
    6001214c:	fdc42783          	lw	a5,-36(s0)
    60012150:	00078513          	mv	a0,a5
    60012154:	04813403          	ld	s0,72(sp)
    60012158:	05010113          	addi	sp,sp,80
    6001215c:	00008067          	ret

0000000060012160 <chk_chr>:
    60012160:	fe010113          	addi	sp,sp,-32
    60012164:	00813c23          	sd	s0,24(sp)
    60012168:	02010413          	addi	s0,sp,32
    6001216c:	fea43423          	sd	a0,-24(s0)
    60012170:	00058793          	mv	a5,a1
    60012174:	fef42223          	sw	a5,-28(s0)
    60012178:	0100006f          	j	60012188 <chk_chr+0x28>
    6001217c:	fe843783          	ld	a5,-24(s0)
    60012180:	00178793          	addi	a5,a5,1
    60012184:	fef43423          	sd	a5,-24(s0)
    60012188:	fe843783          	ld	a5,-24(s0)
    6001218c:	0007c783          	lbu	a5,0(a5)
    60012190:	00078e63          	beqz	a5,600121ac <chk_chr+0x4c>
    60012194:	fe843783          	ld	a5,-24(s0)
    60012198:	0007c783          	lbu	a5,0(a5)
    6001219c:	0007871b          	sext.w	a4,a5
    600121a0:	fe442783          	lw	a5,-28(s0)
    600121a4:	0007879b          	sext.w	a5,a5
    600121a8:	fce79ae3          	bne	a5,a4,6001217c <chk_chr+0x1c>
    600121ac:	fe843783          	ld	a5,-24(s0)
    600121b0:	0007c783          	lbu	a5,0(a5)
    600121b4:	0007879b          	sext.w	a5,a5
    600121b8:	00078513          	mv	a0,a5
    600121bc:	01813403          	ld	s0,24(sp)
    600121c0:	02010113          	addi	sp,sp,32
    600121c4:	00008067          	ret

00000000600121c8 <sync_window>:
    600121c8:	fd010113          	addi	sp,sp,-48
    600121cc:	02113423          	sd	ra,40(sp)
    600121d0:	02813023          	sd	s0,32(sp)
    600121d4:	03010413          	addi	s0,sp,48
    600121d8:	fca43c23          	sd	a0,-40(s0)
    600121dc:	fe042223          	sw	zero,-28(s0)
    600121e0:	fd843783          	ld	a5,-40(s0)
    600121e4:	0047c783          	lbu	a5,4(a5)
    600121e8:	0c078c63          	beqz	a5,600122c0 <sync_window+0xf8>
    600121ec:	fd843783          	ld	a5,-40(s0)
    600121f0:	0307a783          	lw	a5,48(a5)
    600121f4:	fef42623          	sw	a5,-20(s0)
    600121f8:	fd843783          	ld	a5,-40(s0)
    600121fc:	0017c703          	lbu	a4,1(a5)
    60012200:	fd843783          	ld	a5,-40(s0)
    60012204:	03478793          	addi	a5,a5,52
    60012208:	fec42603          	lw	a2,-20(s0)
    6001220c:	00100693          	li	a3,1
    60012210:	00078593          	mv	a1,a5
    60012214:	00070513          	mv	a0,a4
    60012218:	e70ff0ef          	jal	ra,60011888 <disk_write>
    6001221c:	00050793          	mv	a5,a0
    60012220:	0007879b          	sext.w	a5,a5
    60012224:	00078863          	beqz	a5,60012234 <sync_window+0x6c>
    60012228:	00100793          	li	a5,1
    6001222c:	fef42223          	sw	a5,-28(s0)
    60012230:	0900006f          	j	600122c0 <sync_window+0xf8>
    60012234:	fd843783          	ld	a5,-40(s0)
    60012238:	00078223          	sb	zero,4(a5)
    6001223c:	fd843783          	ld	a5,-40(s0)
    60012240:	0247a783          	lw	a5,36(a5)
    60012244:	fec42703          	lw	a4,-20(s0)
    60012248:	40f707bb          	subw	a5,a4,a5
    6001224c:	0007871b          	sext.w	a4,a5
    60012250:	fd843783          	ld	a5,-40(s0)
    60012254:	01c7a783          	lw	a5,28(a5)
    60012258:	06f77463          	bgeu	a4,a5,600122c0 <sync_window+0xf8>
    6001225c:	fd843783          	ld	a5,-40(s0)
    60012260:	0037c783          	lbu	a5,3(a5)
    60012264:	fef42423          	sw	a5,-24(s0)
    60012268:	0480006f          	j	600122b0 <sync_window+0xe8>
    6001226c:	fd843783          	ld	a5,-40(s0)
    60012270:	01c7a783          	lw	a5,28(a5)
    60012274:	fec42703          	lw	a4,-20(s0)
    60012278:	00f707bb          	addw	a5,a4,a5
    6001227c:	fef42623          	sw	a5,-20(s0)
    60012280:	fd843783          	ld	a5,-40(s0)
    60012284:	0017c703          	lbu	a4,1(a5)
    60012288:	fd843783          	ld	a5,-40(s0)
    6001228c:	03478793          	addi	a5,a5,52
    60012290:	fec42603          	lw	a2,-20(s0)
    60012294:	00100693          	li	a3,1
    60012298:	00078593          	mv	a1,a5
    6001229c:	00070513          	mv	a0,a4
    600122a0:	de8ff0ef          	jal	ra,60011888 <disk_write>
    600122a4:	fe842783          	lw	a5,-24(s0)
    600122a8:	fff7879b          	addiw	a5,a5,-1
    600122ac:	fef42423          	sw	a5,-24(s0)
    600122b0:	fe842783          	lw	a5,-24(s0)
    600122b4:	0007871b          	sext.w	a4,a5
    600122b8:	00100793          	li	a5,1
    600122bc:	fae7e8e3          	bltu	a5,a4,6001226c <sync_window+0xa4>
    600122c0:	fe442783          	lw	a5,-28(s0)
    600122c4:	00078513          	mv	a0,a5
    600122c8:	02813083          	ld	ra,40(sp)
    600122cc:	02013403          	ld	s0,32(sp)
    600122d0:	03010113          	addi	sp,sp,48
    600122d4:	00008067          	ret

00000000600122d8 <move_window>:
    600122d8:	fd010113          	addi	sp,sp,-48
    600122dc:	02113423          	sd	ra,40(sp)
    600122e0:	02813023          	sd	s0,32(sp)
    600122e4:	03010413          	addi	s0,sp,48
    600122e8:	fca43c23          	sd	a0,-40(s0)
    600122ec:	00058793          	mv	a5,a1
    600122f0:	fcf42a23          	sw	a5,-44(s0)
    600122f4:	fe042623          	sw	zero,-20(s0)
    600122f8:	fd843783          	ld	a5,-40(s0)
    600122fc:	0307a703          	lw	a4,48(a5)
    60012300:	fd442783          	lw	a5,-44(s0)
    60012304:	0007879b          	sext.w	a5,a5
    60012308:	06e78663          	beq	a5,a4,60012374 <move_window+0x9c>
    6001230c:	fd843503          	ld	a0,-40(s0)
    60012310:	eb9ff0ef          	jal	ra,600121c8 <sync_window>
    60012314:	00050793          	mv	a5,a0
    60012318:	fef42623          	sw	a5,-20(s0)
    6001231c:	fec42783          	lw	a5,-20(s0)
    60012320:	0007879b          	sext.w	a5,a5
    60012324:	04079863          	bnez	a5,60012374 <move_window+0x9c>
    60012328:	fd843783          	ld	a5,-40(s0)
    6001232c:	0017c703          	lbu	a4,1(a5)
    60012330:	fd843783          	ld	a5,-40(s0)
    60012334:	03478793          	addi	a5,a5,52
    60012338:	fd442603          	lw	a2,-44(s0)
    6001233c:	00100693          	li	a3,1
    60012340:	00078593          	mv	a1,a5
    60012344:	00070513          	mv	a0,a4
    60012348:	be4ff0ef          	jal	ra,6001172c <disk_read>
    6001234c:	00050793          	mv	a5,a0
    60012350:	0007879b          	sext.w	a5,a5
    60012354:	00078a63          	beqz	a5,60012368 <move_window+0x90>
    60012358:	fff00793          	li	a5,-1
    6001235c:	fcf42a23          	sw	a5,-44(s0)
    60012360:	00100793          	li	a5,1
    60012364:	fef42623          	sw	a5,-20(s0)
    60012368:	fd843783          	ld	a5,-40(s0)
    6001236c:	fd442703          	lw	a4,-44(s0)
    60012370:	02e7a823          	sw	a4,48(a5)
    60012374:	fec42783          	lw	a5,-20(s0)
    60012378:	00078513          	mv	a0,a5
    6001237c:	02813083          	ld	ra,40(sp)
    60012380:	02013403          	ld	s0,32(sp)
    60012384:	03010113          	addi	sp,sp,48
    60012388:	00008067          	ret

000000006001238c <sync_fs>:
    6001238c:	fd010113          	addi	sp,sp,-48
    60012390:	02113423          	sd	ra,40(sp)
    60012394:	02813023          	sd	s0,32(sp)
    60012398:	03010413          	addi	s0,sp,48
    6001239c:	fca43c23          	sd	a0,-40(s0)
    600123a0:	fd843503          	ld	a0,-40(s0)
    600123a4:	e25ff0ef          	jal	ra,600121c8 <sync_window>
    600123a8:	00050793          	mv	a5,a0
    600123ac:	fef42623          	sw	a5,-20(s0)
    600123b0:	fec42783          	lw	a5,-20(s0)
    600123b4:	0007879b          	sext.w	a5,a5
    600123b8:	20079c63          	bnez	a5,600125d0 <sync_fs+0x244>
    600123bc:	fd843783          	ld	a5,-40(s0)
    600123c0:	0007c783          	lbu	a5,0(a5)
    600123c4:	00078713          	mv	a4,a5
    600123c8:	00300793          	li	a5,3
    600123cc:	1cf71c63          	bne	a4,a5,600125a4 <sync_fs+0x218>
    600123d0:	fd843783          	ld	a5,-40(s0)
    600123d4:	0057c783          	lbu	a5,5(a5)
    600123d8:	00078713          	mv	a4,a5
    600123dc:	00100793          	li	a5,1
    600123e0:	1cf71263          	bne	a4,a5,600125a4 <sync_fs+0x218>
    600123e4:	fd843783          	ld	a5,-40(s0)
    600123e8:	03478793          	addi	a5,a5,52
    600123ec:	20000613          	li	a2,512
    600123f0:	00000593          	li	a1,0
    600123f4:	00078513          	mv	a0,a5
    600123f8:	c6dff0ef          	jal	ra,60012064 <mem_set>
    600123fc:	fd843783          	ld	a5,-40(s0)
    60012400:	05500713          	li	a4,85
    60012404:	22e78923          	sb	a4,562(a5)
    60012408:	fd843783          	ld	a5,-40(s0)
    6001240c:	faa00713          	li	a4,-86
    60012410:	22e789a3          	sb	a4,563(a5)
    60012414:	fd843783          	ld	a5,-40(s0)
    60012418:	05200713          	li	a4,82
    6001241c:	02e78a23          	sb	a4,52(a5)
    60012420:	fd843783          	ld	a5,-40(s0)
    60012424:	05200713          	li	a4,82
    60012428:	02e78aa3          	sb	a4,53(a5)
    6001242c:	fd843783          	ld	a5,-40(s0)
    60012430:	06100713          	li	a4,97
    60012434:	02e78b23          	sb	a4,54(a5)
    60012438:	fd843783          	ld	a5,-40(s0)
    6001243c:	04100713          	li	a4,65
    60012440:	02e78ba3          	sb	a4,55(a5)
    60012444:	fd843783          	ld	a5,-40(s0)
    60012448:	07200713          	li	a4,114
    6001244c:	20e78c23          	sb	a4,536(a5)
    60012450:	fd843783          	ld	a5,-40(s0)
    60012454:	07200713          	li	a4,114
    60012458:	20e78ca3          	sb	a4,537(a5)
    6001245c:	fd843783          	ld	a5,-40(s0)
    60012460:	04100713          	li	a4,65
    60012464:	20e78d23          	sb	a4,538(a5)
    60012468:	fd843783          	ld	a5,-40(s0)
    6001246c:	06100713          	li	a4,97
    60012470:	20e78da3          	sb	a4,539(a5)
    60012474:	fd843783          	ld	a5,-40(s0)
    60012478:	0107a783          	lw	a5,16(a5)
    6001247c:	0ff7f713          	andi	a4,a5,255
    60012480:	fd843783          	ld	a5,-40(s0)
    60012484:	20e78e23          	sb	a4,540(a5)
    60012488:	fd843783          	ld	a5,-40(s0)
    6001248c:	0107a783          	lw	a5,16(a5)
    60012490:	03079793          	slli	a5,a5,0x30
    60012494:	0307d793          	srli	a5,a5,0x30
    60012498:	0087d79b          	srliw	a5,a5,0x8
    6001249c:	03079793          	slli	a5,a5,0x30
    600124a0:	0307d793          	srli	a5,a5,0x30
    600124a4:	0ff7f713          	andi	a4,a5,255
    600124a8:	fd843783          	ld	a5,-40(s0)
    600124ac:	20e78ea3          	sb	a4,541(a5)
    600124b0:	fd843783          	ld	a5,-40(s0)
    600124b4:	0107a783          	lw	a5,16(a5)
    600124b8:	0107d79b          	srliw	a5,a5,0x10
    600124bc:	0007879b          	sext.w	a5,a5
    600124c0:	0ff7f713          	andi	a4,a5,255
    600124c4:	fd843783          	ld	a5,-40(s0)
    600124c8:	20e78f23          	sb	a4,542(a5)
    600124cc:	fd843783          	ld	a5,-40(s0)
    600124d0:	0107a783          	lw	a5,16(a5)
    600124d4:	0187d79b          	srliw	a5,a5,0x18
    600124d8:	0007879b          	sext.w	a5,a5
    600124dc:	0ff7f713          	andi	a4,a5,255
    600124e0:	fd843783          	ld	a5,-40(s0)
    600124e4:	20e78fa3          	sb	a4,543(a5)
    600124e8:	fd843783          	ld	a5,-40(s0)
    600124ec:	00c7a783          	lw	a5,12(a5)
    600124f0:	0ff7f713          	andi	a4,a5,255
    600124f4:	fd843783          	ld	a5,-40(s0)
    600124f8:	22e78023          	sb	a4,544(a5)
    600124fc:	fd843783          	ld	a5,-40(s0)
    60012500:	00c7a783          	lw	a5,12(a5)
    60012504:	03079793          	slli	a5,a5,0x30
    60012508:	0307d793          	srli	a5,a5,0x30
    6001250c:	0087d79b          	srliw	a5,a5,0x8
    60012510:	03079793          	slli	a5,a5,0x30
    60012514:	0307d793          	srli	a5,a5,0x30
    60012518:	0ff7f713          	andi	a4,a5,255
    6001251c:	fd843783          	ld	a5,-40(s0)
    60012520:	22e780a3          	sb	a4,545(a5)
    60012524:	fd843783          	ld	a5,-40(s0)
    60012528:	00c7a783          	lw	a5,12(a5)
    6001252c:	0107d79b          	srliw	a5,a5,0x10
    60012530:	0007879b          	sext.w	a5,a5
    60012534:	0ff7f713          	andi	a4,a5,255
    60012538:	fd843783          	ld	a5,-40(s0)
    6001253c:	22e78123          	sb	a4,546(a5)
    60012540:	fd843783          	ld	a5,-40(s0)
    60012544:	00c7a783          	lw	a5,12(a5)
    60012548:	0187d79b          	srliw	a5,a5,0x18
    6001254c:	0007879b          	sext.w	a5,a5
    60012550:	0ff7f713          	andi	a4,a5,255
    60012554:	fd843783          	ld	a5,-40(s0)
    60012558:	22e781a3          	sb	a4,547(a5)
    6001255c:	fd843783          	ld	a5,-40(s0)
    60012560:	0207a783          	lw	a5,32(a5)
    60012564:	0017879b          	addiw	a5,a5,1
    60012568:	0007871b          	sext.w	a4,a5
    6001256c:	fd843783          	ld	a5,-40(s0)
    60012570:	02e7a823          	sw	a4,48(a5)
    60012574:	fd843783          	ld	a5,-40(s0)
    60012578:	0017c703          	lbu	a4,1(a5)
    6001257c:	fd843783          	ld	a5,-40(s0)
    60012580:	03478593          	addi	a1,a5,52
    60012584:	fd843783          	ld	a5,-40(s0)
    60012588:	0307a783          	lw	a5,48(a5)
    6001258c:	00100693          	li	a3,1
    60012590:	00078613          	mv	a2,a5
    60012594:	00070513          	mv	a0,a4
    60012598:	af0ff0ef          	jal	ra,60011888 <disk_write>
    6001259c:	fd843783          	ld	a5,-40(s0)
    600125a0:	000782a3          	sb	zero,5(a5)
    600125a4:	fd843783          	ld	a5,-40(s0)
    600125a8:	0017c783          	lbu	a5,1(a5)
    600125ac:	00000613          	li	a2,0
    600125b0:	00000593          	li	a1,0
    600125b4:	00078513          	mv	a0,a5
    600125b8:	c98ff0ef          	jal	ra,60011a50 <disk_ioctl>
    600125bc:	00050793          	mv	a5,a0
    600125c0:	0007879b          	sext.w	a5,a5
    600125c4:	00078663          	beqz	a5,600125d0 <sync_fs+0x244>
    600125c8:	00100793          	li	a5,1
    600125cc:	fef42623          	sw	a5,-20(s0)
    600125d0:	fec42783          	lw	a5,-20(s0)
    600125d4:	00078513          	mv	a0,a5
    600125d8:	02813083          	ld	ra,40(sp)
    600125dc:	02013403          	ld	s0,32(sp)
    600125e0:	03010113          	addi	sp,sp,48
    600125e4:	00008067          	ret

00000000600125e8 <clust2sect>:
    600125e8:	fe010113          	addi	sp,sp,-32
    600125ec:	00813c23          	sd	s0,24(sp)
    600125f0:	02010413          	addi	s0,sp,32
    600125f4:	fea43423          	sd	a0,-24(s0)
    600125f8:	00058793          	mv	a5,a1
    600125fc:	fef42223          	sw	a5,-28(s0)
    60012600:	fe442783          	lw	a5,-28(s0)
    60012604:	ffe7879b          	addiw	a5,a5,-2
    60012608:	fef42223          	sw	a5,-28(s0)
    6001260c:	fe843783          	ld	a5,-24(s0)
    60012610:	0187a783          	lw	a5,24(a5)
    60012614:	ffe7879b          	addiw	a5,a5,-2
    60012618:	0007871b          	sext.w	a4,a5
    6001261c:	fe442783          	lw	a5,-28(s0)
    60012620:	0007879b          	sext.w	a5,a5
    60012624:	00e7e663          	bltu	a5,a4,60012630 <clust2sect+0x48>
    60012628:	00000793          	li	a5,0
    6001262c:	02c0006f          	j	60012658 <clust2sect+0x70>
    60012630:	fe843783          	ld	a5,-24(s0)
    60012634:	0027c783          	lbu	a5,2(a5)
    60012638:	0007879b          	sext.w	a5,a5
    6001263c:	fe442703          	lw	a4,-28(s0)
    60012640:	02f707bb          	mulw	a5,a4,a5
    60012644:	0007871b          	sext.w	a4,a5
    60012648:	fe843783          	ld	a5,-24(s0)
    6001264c:	02c7a783          	lw	a5,44(a5)
    60012650:	00f707bb          	addw	a5,a4,a5
    60012654:	0007879b          	sext.w	a5,a5
    60012658:	00078513          	mv	a0,a5
    6001265c:	01813403          	ld	s0,24(sp)
    60012660:	02010113          	addi	sp,sp,32
    60012664:	00008067          	ret

0000000060012668 <get_fat>:
    60012668:	fc010113          	addi	sp,sp,-64
    6001266c:	02113c23          	sd	ra,56(sp)
    60012670:	02813823          	sd	s0,48(sp)
    60012674:	04010413          	addi	s0,sp,64
    60012678:	fca43423          	sd	a0,-56(s0)
    6001267c:	00058793          	mv	a5,a1
    60012680:	fcf42223          	sw	a5,-60(s0)
    60012684:	fc442783          	lw	a5,-60(s0)
    60012688:	0007871b          	sext.w	a4,a5
    6001268c:	00100793          	li	a5,1
    60012690:	00e7fc63          	bgeu	a5,a4,600126a8 <get_fat+0x40>
    60012694:	fc843783          	ld	a5,-56(s0)
    60012698:	0187a703          	lw	a4,24(a5)
    6001269c:	fc442783          	lw	a5,-60(s0)
    600126a0:	0007879b          	sext.w	a5,a5
    600126a4:	00e7e863          	bltu	a5,a4,600126b4 <get_fat+0x4c>
    600126a8:	00100793          	li	a5,1
    600126ac:	fef42623          	sw	a5,-20(s0)
    600126b0:	32c0006f          	j	600129dc <get_fat+0x374>
    600126b4:	fff00793          	li	a5,-1
    600126b8:	fef42623          	sw	a5,-20(s0)
    600126bc:	fc843783          	ld	a5,-56(s0)
    600126c0:	0007c783          	lbu	a5,0(a5)
    600126c4:	0007879b          	sext.w	a5,a5
    600126c8:	00078693          	mv	a3,a5
    600126cc:	00200713          	li	a4,2
    600126d0:	14e68463          	beq	a3,a4,60012818 <get_fat+0x1b0>
    600126d4:	00078693          	mv	a3,a5
    600126d8:	00300713          	li	a4,3
    600126dc:	1ee68663          	beq	a3,a4,600128c8 <get_fat+0x260>
    600126e0:	00078713          	mv	a4,a5
    600126e4:	00100793          	li	a5,1
    600126e8:	2cf71663          	bne	a4,a5,600129b4 <get_fat+0x34c>
    600126ec:	fc442783          	lw	a5,-60(s0)
    600126f0:	fef42423          	sw	a5,-24(s0)
    600126f4:	fe842783          	lw	a5,-24(s0)
    600126f8:	0017d79b          	srliw	a5,a5,0x1
    600126fc:	0007879b          	sext.w	a5,a5
    60012700:	fe842703          	lw	a4,-24(s0)
    60012704:	00f707bb          	addw	a5,a4,a5
    60012708:	fef42423          	sw	a5,-24(s0)
    6001270c:	fc843783          	ld	a5,-56(s0)
    60012710:	0247a703          	lw	a4,36(a5)
    60012714:	fe842783          	lw	a5,-24(s0)
    60012718:	0097d79b          	srliw	a5,a5,0x9
    6001271c:	0007879b          	sext.w	a5,a5
    60012720:	00f707bb          	addw	a5,a4,a5
    60012724:	0007879b          	sext.w	a5,a5
    60012728:	00078593          	mv	a1,a5
    6001272c:	fc843503          	ld	a0,-56(s0)
    60012730:	ba9ff0ef          	jal	ra,600122d8 <move_window>
    60012734:	00050793          	mv	a5,a0
    60012738:	0007879b          	sext.w	a5,a5
    6001273c:	28079263          	bnez	a5,600129c0 <get_fat+0x358>
    60012740:	fe842783          	lw	a5,-24(s0)
    60012744:	0017871b          	addiw	a4,a5,1
    60012748:	fee42423          	sw	a4,-24(s0)
    6001274c:	1ff7f793          	andi	a5,a5,511
    60012750:	0007879b          	sext.w	a5,a5
    60012754:	fc843703          	ld	a4,-56(s0)
    60012758:	02079793          	slli	a5,a5,0x20
    6001275c:	0207d793          	srli	a5,a5,0x20
    60012760:	00f707b3          	add	a5,a4,a5
    60012764:	0347c783          	lbu	a5,52(a5)
    60012768:	fef42223          	sw	a5,-28(s0)
    6001276c:	fc843783          	ld	a5,-56(s0)
    60012770:	0247a703          	lw	a4,36(a5)
    60012774:	fe842783          	lw	a5,-24(s0)
    60012778:	0097d79b          	srliw	a5,a5,0x9
    6001277c:	0007879b          	sext.w	a5,a5
    60012780:	00f707bb          	addw	a5,a4,a5
    60012784:	0007879b          	sext.w	a5,a5
    60012788:	00078593          	mv	a1,a5
    6001278c:	fc843503          	ld	a0,-56(s0)
    60012790:	b49ff0ef          	jal	ra,600122d8 <move_window>
    60012794:	00050793          	mv	a5,a0
    60012798:	0007879b          	sext.w	a5,a5
    6001279c:	22079663          	bnez	a5,600129c8 <get_fat+0x360>
    600127a0:	fe842783          	lw	a5,-24(s0)
    600127a4:	1ff7f793          	andi	a5,a5,511
    600127a8:	0007879b          	sext.w	a5,a5
    600127ac:	fc843703          	ld	a4,-56(s0)
    600127b0:	02079793          	slli	a5,a5,0x20
    600127b4:	0207d793          	srli	a5,a5,0x20
    600127b8:	00f707b3          	add	a5,a4,a5
    600127bc:	0347c783          	lbu	a5,52(a5)
    600127c0:	0007879b          	sext.w	a5,a5
    600127c4:	0087979b          	slliw	a5,a5,0x8
    600127c8:	0007879b          	sext.w	a5,a5
    600127cc:	0007871b          	sext.w	a4,a5
    600127d0:	fe442783          	lw	a5,-28(s0)
    600127d4:	00e7e7b3          	or	a5,a5,a4
    600127d8:	fef42223          	sw	a5,-28(s0)
    600127dc:	fc442783          	lw	a5,-60(s0)
    600127e0:	0017f793          	andi	a5,a5,1
    600127e4:	0007879b          	sext.w	a5,a5
    600127e8:	00078a63          	beqz	a5,600127fc <get_fat+0x194>
    600127ec:	fe442783          	lw	a5,-28(s0)
    600127f0:	0047d79b          	srliw	a5,a5,0x4
    600127f4:	0007879b          	sext.w	a5,a5
    600127f8:	0180006f          	j	60012810 <get_fat+0x1a8>
    600127fc:	fe442703          	lw	a4,-28(s0)
    60012800:	000017b7          	lui	a5,0x1
    60012804:	fff78793          	addi	a5,a5,-1 # fff <_start-0x6000f001>
    60012808:	00f777b3          	and	a5,a4,a5
    6001280c:	0007879b          	sext.w	a5,a5
    60012810:	fef42623          	sw	a5,-20(s0)
    60012814:	1c80006f          	j	600129dc <get_fat+0x374>
    60012818:	fc843783          	ld	a5,-56(s0)
    6001281c:	0247a703          	lw	a4,36(a5)
    60012820:	fc442783          	lw	a5,-60(s0)
    60012824:	0087d79b          	srliw	a5,a5,0x8
    60012828:	0007879b          	sext.w	a5,a5
    6001282c:	00f707bb          	addw	a5,a4,a5
    60012830:	0007879b          	sext.w	a5,a5
    60012834:	00078593          	mv	a1,a5
    60012838:	fc843503          	ld	a0,-56(s0)
    6001283c:	a9dff0ef          	jal	ra,600122d8 <move_window>
    60012840:	00050793          	mv	a5,a0
    60012844:	0007879b          	sext.w	a5,a5
    60012848:	18079463          	bnez	a5,600129d0 <get_fat+0x368>
    6001284c:	fc442783          	lw	a5,-60(s0)
    60012850:	0017979b          	slliw	a5,a5,0x1
    60012854:	0007879b          	sext.w	a5,a5
    60012858:	1fe7f793          	andi	a5,a5,510
    6001285c:	0007879b          	sext.w	a5,a5
    60012860:	02079793          	slli	a5,a5,0x20
    60012864:	0207d793          	srli	a5,a5,0x20
    60012868:	03078793          	addi	a5,a5,48
    6001286c:	fc843703          	ld	a4,-56(s0)
    60012870:	00f707b3          	add	a5,a4,a5
    60012874:	00478793          	addi	a5,a5,4
    60012878:	fcf43c23          	sd	a5,-40(s0)
    6001287c:	fd843783          	ld	a5,-40(s0)
    60012880:	00178793          	addi	a5,a5,1
    60012884:	0007c783          	lbu	a5,0(a5)
    60012888:	0007879b          	sext.w	a5,a5
    6001288c:	0087979b          	slliw	a5,a5,0x8
    60012890:	0007879b          	sext.w	a5,a5
    60012894:	0107971b          	slliw	a4,a5,0x10
    60012898:	4107571b          	sraiw	a4,a4,0x10
    6001289c:	fd843783          	ld	a5,-40(s0)
    600128a0:	0007c783          	lbu	a5,0(a5)
    600128a4:	0107979b          	slliw	a5,a5,0x10
    600128a8:	4107d79b          	sraiw	a5,a5,0x10
    600128ac:	00f767b3          	or	a5,a4,a5
    600128b0:	0107979b          	slliw	a5,a5,0x10
    600128b4:	4107d79b          	sraiw	a5,a5,0x10
    600128b8:	03079793          	slli	a5,a5,0x30
    600128bc:	0307d793          	srli	a5,a5,0x30
    600128c0:	fef42623          	sw	a5,-20(s0)
    600128c4:	1180006f          	j	600129dc <get_fat+0x374>
    600128c8:	fc843783          	ld	a5,-56(s0)
    600128cc:	0247a703          	lw	a4,36(a5)
    600128d0:	fc442783          	lw	a5,-60(s0)
    600128d4:	0077d79b          	srliw	a5,a5,0x7
    600128d8:	0007879b          	sext.w	a5,a5
    600128dc:	00f707bb          	addw	a5,a4,a5
    600128e0:	0007879b          	sext.w	a5,a5
    600128e4:	00078593          	mv	a1,a5
    600128e8:	fc843503          	ld	a0,-56(s0)
    600128ec:	9edff0ef          	jal	ra,600122d8 <move_window>
    600128f0:	00050793          	mv	a5,a0
    600128f4:	0007879b          	sext.w	a5,a5
    600128f8:	0e079063          	bnez	a5,600129d8 <get_fat+0x370>
    600128fc:	fc442783          	lw	a5,-60(s0)
    60012900:	0027979b          	slliw	a5,a5,0x2
    60012904:	0007879b          	sext.w	a5,a5
    60012908:	1fc7f793          	andi	a5,a5,508
    6001290c:	0007879b          	sext.w	a5,a5
    60012910:	02079793          	slli	a5,a5,0x20
    60012914:	0207d793          	srli	a5,a5,0x20
    60012918:	03078793          	addi	a5,a5,48
    6001291c:	fc843703          	ld	a4,-56(s0)
    60012920:	00f707b3          	add	a5,a4,a5
    60012924:	00478793          	addi	a5,a5,4
    60012928:	fcf43c23          	sd	a5,-40(s0)
    6001292c:	fd843783          	ld	a5,-40(s0)
    60012930:	00378793          	addi	a5,a5,3
    60012934:	0007c783          	lbu	a5,0(a5)
    60012938:	0007879b          	sext.w	a5,a5
    6001293c:	0187979b          	slliw	a5,a5,0x18
    60012940:	0007871b          	sext.w	a4,a5
    60012944:	fd843783          	ld	a5,-40(s0)
    60012948:	00278793          	addi	a5,a5,2
    6001294c:	0007c783          	lbu	a5,0(a5)
    60012950:	0007879b          	sext.w	a5,a5
    60012954:	0107979b          	slliw	a5,a5,0x10
    60012958:	0007879b          	sext.w	a5,a5
    6001295c:	00f767b3          	or	a5,a4,a5
    60012960:	0007871b          	sext.w	a4,a5
    60012964:	fd843783          	ld	a5,-40(s0)
    60012968:	00178793          	addi	a5,a5,1
    6001296c:	0007c783          	lbu	a5,0(a5)
    60012970:	0007879b          	sext.w	a5,a5
    60012974:	0087979b          	slliw	a5,a5,0x8
    60012978:	0007879b          	sext.w	a5,a5
    6001297c:	0007879b          	sext.w	a5,a5
    60012980:	00f767b3          	or	a5,a4,a5
    60012984:	0007871b          	sext.w	a4,a5
    60012988:	fd843783          	ld	a5,-40(s0)
    6001298c:	0007c783          	lbu	a5,0(a5)
    60012990:	0007879b          	sext.w	a5,a5
    60012994:	00f767b3          	or	a5,a4,a5
    60012998:	0007879b          	sext.w	a5,a5
    6001299c:	00078713          	mv	a4,a5
    600129a0:	100007b7          	lui	a5,0x10000
    600129a4:	fff78793          	addi	a5,a5,-1 # fffffff <_start-0x50010001>
    600129a8:	00f777b3          	and	a5,a4,a5
    600129ac:	fef42623          	sw	a5,-20(s0)
    600129b0:	02c0006f          	j	600129dc <get_fat+0x374>
    600129b4:	00100793          	li	a5,1
    600129b8:	fef42623          	sw	a5,-20(s0)
    600129bc:	0200006f          	j	600129dc <get_fat+0x374>
    600129c0:	00000013          	nop
    600129c4:	0180006f          	j	600129dc <get_fat+0x374>
    600129c8:	00000013          	nop
    600129cc:	0100006f          	j	600129dc <get_fat+0x374>
    600129d0:	00000013          	nop
    600129d4:	0080006f          	j	600129dc <get_fat+0x374>
    600129d8:	00000013          	nop
    600129dc:	fec42783          	lw	a5,-20(s0)
    600129e0:	00078513          	mv	a0,a5
    600129e4:	03813083          	ld	ra,56(sp)
    600129e8:	03013403          	ld	s0,48(sp)
    600129ec:	04010113          	addi	sp,sp,64
    600129f0:	00008067          	ret

00000000600129f4 <put_fat>:
    600129f4:	fd010113          	addi	sp,sp,-48
    600129f8:	02113423          	sd	ra,40(sp)
    600129fc:	02813023          	sd	s0,32(sp)
    60012a00:	03010413          	addi	s0,sp,48
    60012a04:	fca43c23          	sd	a0,-40(s0)
    60012a08:	00058793          	mv	a5,a1
    60012a0c:	00060713          	mv	a4,a2
    60012a10:	fcf42a23          	sw	a5,-44(s0)
    60012a14:	00070793          	mv	a5,a4
    60012a18:	fcf42823          	sw	a5,-48(s0)
    60012a1c:	fd442783          	lw	a5,-44(s0)
    60012a20:	0007871b          	sext.w	a4,a5
    60012a24:	00100793          	li	a5,1
    60012a28:	00e7fc63          	bgeu	a5,a4,60012a40 <put_fat+0x4c>
    60012a2c:	fd843783          	ld	a5,-40(s0)
    60012a30:	0187a703          	lw	a4,24(a5)
    60012a34:	fd442783          	lw	a5,-44(s0)
    60012a38:	0007879b          	sext.w	a5,a5
    60012a3c:	00e7e863          	bltu	a5,a4,60012a4c <put_fat+0x58>
    60012a40:	00200793          	li	a5,2
    60012a44:	fef42623          	sw	a5,-20(s0)
    60012a48:	4780006f          	j	60012ec0 <put_fat+0x4cc>
    60012a4c:	fd843783          	ld	a5,-40(s0)
    60012a50:	0007c783          	lbu	a5,0(a5)
    60012a54:	0007879b          	sext.w	a5,a5
    60012a58:	00078693          	mv	a3,a5
    60012a5c:	00200713          	li	a4,2
    60012a60:	20e68663          	beq	a3,a4,60012c6c <put_fat+0x278>
    60012a64:	00078693          	mv	a3,a5
    60012a68:	00300713          	li	a4,3
    60012a6c:	2ae68a63          	beq	a3,a4,60012d20 <put_fat+0x32c>
    60012a70:	00078713          	mv	a4,a5
    60012a74:	00100793          	li	a5,1
    60012a78:	42f71063          	bne	a4,a5,60012e98 <put_fat+0x4a4>
    60012a7c:	fd442783          	lw	a5,-44(s0)
    60012a80:	fef42423          	sw	a5,-24(s0)
    60012a84:	fe842783          	lw	a5,-24(s0)
    60012a88:	0017d79b          	srliw	a5,a5,0x1
    60012a8c:	0007879b          	sext.w	a5,a5
    60012a90:	fe842703          	lw	a4,-24(s0)
    60012a94:	00f707bb          	addw	a5,a4,a5
    60012a98:	fef42423          	sw	a5,-24(s0)
    60012a9c:	fd843783          	ld	a5,-40(s0)
    60012aa0:	0247a703          	lw	a4,36(a5)
    60012aa4:	fe842783          	lw	a5,-24(s0)
    60012aa8:	0097d79b          	srliw	a5,a5,0x9
    60012aac:	0007879b          	sext.w	a5,a5
    60012ab0:	00f707bb          	addw	a5,a4,a5
    60012ab4:	0007879b          	sext.w	a5,a5
    60012ab8:	00078593          	mv	a1,a5
    60012abc:	fd843503          	ld	a0,-40(s0)
    60012ac0:	819ff0ef          	jal	ra,600122d8 <move_window>
    60012ac4:	00050793          	mv	a5,a0
    60012ac8:	fef42623          	sw	a5,-20(s0)
    60012acc:	fec42783          	lw	a5,-20(s0)
    60012ad0:	0007879b          	sext.w	a5,a5
    60012ad4:	3c079863          	bnez	a5,60012ea4 <put_fat+0x4b0>
    60012ad8:	fe842783          	lw	a5,-24(s0)
    60012adc:	0017871b          	addiw	a4,a5,1
    60012ae0:	fee42423          	sw	a4,-24(s0)
    60012ae4:	1ff7f793          	andi	a5,a5,511
    60012ae8:	0007879b          	sext.w	a5,a5
    60012aec:	02079793          	slli	a5,a5,0x20
    60012af0:	0207d793          	srli	a5,a5,0x20
    60012af4:	03078793          	addi	a5,a5,48
    60012af8:	fd843703          	ld	a4,-40(s0)
    60012afc:	00f707b3          	add	a5,a4,a5
    60012b00:	00478793          	addi	a5,a5,4
    60012b04:	fef43023          	sd	a5,-32(s0)
    60012b08:	fd442783          	lw	a5,-44(s0)
    60012b0c:	0017f793          	andi	a5,a5,1
    60012b10:	0007879b          	sext.w	a5,a5
    60012b14:	04078863          	beqz	a5,60012b64 <put_fat+0x170>
    60012b18:	fe043783          	ld	a5,-32(s0)
    60012b1c:	0007c783          	lbu	a5,0(a5)
    60012b20:	0187979b          	slliw	a5,a5,0x18
    60012b24:	4187d79b          	sraiw	a5,a5,0x18
    60012b28:	00f7f793          	andi	a5,a5,15
    60012b2c:	0187971b          	slliw	a4,a5,0x18
    60012b30:	4187571b          	sraiw	a4,a4,0x18
    60012b34:	fd042783          	lw	a5,-48(s0)
    60012b38:	0ff7f793          	andi	a5,a5,255
    60012b3c:	0007879b          	sext.w	a5,a5
    60012b40:	0047979b          	slliw	a5,a5,0x4
    60012b44:	0007879b          	sext.w	a5,a5
    60012b48:	0187979b          	slliw	a5,a5,0x18
    60012b4c:	4187d79b          	sraiw	a5,a5,0x18
    60012b50:	00f767b3          	or	a5,a4,a5
    60012b54:	0187979b          	slliw	a5,a5,0x18
    60012b58:	4187d79b          	sraiw	a5,a5,0x18
    60012b5c:	0ff7f793          	andi	a5,a5,255
    60012b60:	00c0006f          	j	60012b6c <put_fat+0x178>
    60012b64:	fd042783          	lw	a5,-48(s0)
    60012b68:	0ff7f793          	andi	a5,a5,255
    60012b6c:	fe043703          	ld	a4,-32(s0)
    60012b70:	00f70023          	sb	a5,0(a4)
    60012b74:	fd843783          	ld	a5,-40(s0)
    60012b78:	00100713          	li	a4,1
    60012b7c:	00e78223          	sb	a4,4(a5)
    60012b80:	fd843783          	ld	a5,-40(s0)
    60012b84:	0247a703          	lw	a4,36(a5)
    60012b88:	fe842783          	lw	a5,-24(s0)
    60012b8c:	0097d79b          	srliw	a5,a5,0x9
    60012b90:	0007879b          	sext.w	a5,a5
    60012b94:	00f707bb          	addw	a5,a4,a5
    60012b98:	0007879b          	sext.w	a5,a5
    60012b9c:	00078593          	mv	a1,a5
    60012ba0:	fd843503          	ld	a0,-40(s0)
    60012ba4:	f34ff0ef          	jal	ra,600122d8 <move_window>
    60012ba8:	00050793          	mv	a5,a0
    60012bac:	fef42623          	sw	a5,-20(s0)
    60012bb0:	fec42783          	lw	a5,-20(s0)
    60012bb4:	0007879b          	sext.w	a5,a5
    60012bb8:	2e079a63          	bnez	a5,60012eac <put_fat+0x4b8>
    60012bbc:	fe842783          	lw	a5,-24(s0)
    60012bc0:	1ff7f793          	andi	a5,a5,511
    60012bc4:	0007879b          	sext.w	a5,a5
    60012bc8:	02079793          	slli	a5,a5,0x20
    60012bcc:	0207d793          	srli	a5,a5,0x20
    60012bd0:	03078793          	addi	a5,a5,48
    60012bd4:	fd843703          	ld	a4,-40(s0)
    60012bd8:	00f707b3          	add	a5,a4,a5
    60012bdc:	00478793          	addi	a5,a5,4
    60012be0:	fef43023          	sd	a5,-32(s0)
    60012be4:	fd442783          	lw	a5,-44(s0)
    60012be8:	0017f793          	andi	a5,a5,1
    60012bec:	0007879b          	sext.w	a5,a5
    60012bf0:	00078c63          	beqz	a5,60012c08 <put_fat+0x214>
    60012bf4:	fd042783          	lw	a5,-48(s0)
    60012bf8:	0047d79b          	srliw	a5,a5,0x4
    60012bfc:	0007879b          	sext.w	a5,a5
    60012c00:	0ff7f793          	andi	a5,a5,255
    60012c04:	0500006f          	j	60012c54 <put_fat+0x260>
    60012c08:	fe043783          	ld	a5,-32(s0)
    60012c0c:	0007c783          	lbu	a5,0(a5)
    60012c10:	0187979b          	slliw	a5,a5,0x18
    60012c14:	4187d79b          	sraiw	a5,a5,0x18
    60012c18:	ff07f793          	andi	a5,a5,-16
    60012c1c:	0187971b          	slliw	a4,a5,0x18
    60012c20:	4187571b          	sraiw	a4,a4,0x18
    60012c24:	fd042783          	lw	a5,-48(s0)
    60012c28:	0087d79b          	srliw	a5,a5,0x8
    60012c2c:	0007879b          	sext.w	a5,a5
    60012c30:	0187979b          	slliw	a5,a5,0x18
    60012c34:	4187d79b          	sraiw	a5,a5,0x18
    60012c38:	00f7f793          	andi	a5,a5,15
    60012c3c:	0187979b          	slliw	a5,a5,0x18
    60012c40:	4187d79b          	sraiw	a5,a5,0x18
    60012c44:	00f767b3          	or	a5,a4,a5
    60012c48:	0187979b          	slliw	a5,a5,0x18
    60012c4c:	4187d79b          	sraiw	a5,a5,0x18
    60012c50:	0ff7f793          	andi	a5,a5,255
    60012c54:	fe043703          	ld	a4,-32(s0)
    60012c58:	00f70023          	sb	a5,0(a4)
    60012c5c:	fd843783          	ld	a5,-40(s0)
    60012c60:	00100713          	li	a4,1
    60012c64:	00e78223          	sb	a4,4(a5)
    60012c68:	2580006f          	j	60012ec0 <put_fat+0x4cc>
    60012c6c:	fd843783          	ld	a5,-40(s0)
    60012c70:	0247a703          	lw	a4,36(a5)
    60012c74:	fd442783          	lw	a5,-44(s0)
    60012c78:	0087d79b          	srliw	a5,a5,0x8
    60012c7c:	0007879b          	sext.w	a5,a5
    60012c80:	00f707bb          	addw	a5,a4,a5
    60012c84:	0007879b          	sext.w	a5,a5
    60012c88:	00078593          	mv	a1,a5
    60012c8c:	fd843503          	ld	a0,-40(s0)
    60012c90:	e48ff0ef          	jal	ra,600122d8 <move_window>
    60012c94:	00050793          	mv	a5,a0
    60012c98:	fef42623          	sw	a5,-20(s0)
    60012c9c:	fec42783          	lw	a5,-20(s0)
    60012ca0:	0007879b          	sext.w	a5,a5
    60012ca4:	20079863          	bnez	a5,60012eb4 <put_fat+0x4c0>
    60012ca8:	fd442783          	lw	a5,-44(s0)
    60012cac:	0017979b          	slliw	a5,a5,0x1
    60012cb0:	0007879b          	sext.w	a5,a5
    60012cb4:	1fe7f793          	andi	a5,a5,510
    60012cb8:	0007879b          	sext.w	a5,a5
    60012cbc:	02079793          	slli	a5,a5,0x20
    60012cc0:	0207d793          	srli	a5,a5,0x20
    60012cc4:	03078793          	addi	a5,a5,48
    60012cc8:	fd843703          	ld	a4,-40(s0)
    60012ccc:	00f707b3          	add	a5,a4,a5
    60012cd0:	00478793          	addi	a5,a5,4
    60012cd4:	fef43023          	sd	a5,-32(s0)
    60012cd8:	fd042783          	lw	a5,-48(s0)
    60012cdc:	0ff7f713          	andi	a4,a5,255
    60012ce0:	fe043783          	ld	a5,-32(s0)
    60012ce4:	00e78023          	sb	a4,0(a5)
    60012ce8:	fd042783          	lw	a5,-48(s0)
    60012cec:	03079793          	slli	a5,a5,0x30
    60012cf0:	0307d793          	srli	a5,a5,0x30
    60012cf4:	0087d79b          	srliw	a5,a5,0x8
    60012cf8:	03079713          	slli	a4,a5,0x30
    60012cfc:	03075713          	srli	a4,a4,0x30
    60012d00:	fe043783          	ld	a5,-32(s0)
    60012d04:	00178793          	addi	a5,a5,1
    60012d08:	0ff77713          	andi	a4,a4,255
    60012d0c:	00e78023          	sb	a4,0(a5)
    60012d10:	fd843783          	ld	a5,-40(s0)
    60012d14:	00100713          	li	a4,1
    60012d18:	00e78223          	sb	a4,4(a5)
    60012d1c:	1a40006f          	j	60012ec0 <put_fat+0x4cc>
    60012d20:	fd843783          	ld	a5,-40(s0)
    60012d24:	0247a703          	lw	a4,36(a5)
    60012d28:	fd442783          	lw	a5,-44(s0)
    60012d2c:	0077d79b          	srliw	a5,a5,0x7
    60012d30:	0007879b          	sext.w	a5,a5
    60012d34:	00f707bb          	addw	a5,a4,a5
    60012d38:	0007879b          	sext.w	a5,a5
    60012d3c:	00078593          	mv	a1,a5
    60012d40:	fd843503          	ld	a0,-40(s0)
    60012d44:	d94ff0ef          	jal	ra,600122d8 <move_window>
    60012d48:	00050793          	mv	a5,a0
    60012d4c:	fef42623          	sw	a5,-20(s0)
    60012d50:	fec42783          	lw	a5,-20(s0)
    60012d54:	0007879b          	sext.w	a5,a5
    60012d58:	16079263          	bnez	a5,60012ebc <put_fat+0x4c8>
    60012d5c:	fd442783          	lw	a5,-44(s0)
    60012d60:	0027979b          	slliw	a5,a5,0x2
    60012d64:	0007879b          	sext.w	a5,a5
    60012d68:	1fc7f793          	andi	a5,a5,508
    60012d6c:	0007879b          	sext.w	a5,a5
    60012d70:	02079793          	slli	a5,a5,0x20
    60012d74:	0207d793          	srli	a5,a5,0x20
    60012d78:	03078793          	addi	a5,a5,48
    60012d7c:	fd843703          	ld	a4,-40(s0)
    60012d80:	00f707b3          	add	a5,a4,a5
    60012d84:	00478793          	addi	a5,a5,4
    60012d88:	fef43023          	sd	a5,-32(s0)
    60012d8c:	fe043783          	ld	a5,-32(s0)
    60012d90:	00378793          	addi	a5,a5,3
    60012d94:	0007c783          	lbu	a5,0(a5)
    60012d98:	0007879b          	sext.w	a5,a5
    60012d9c:	0187979b          	slliw	a5,a5,0x18
    60012da0:	0007871b          	sext.w	a4,a5
    60012da4:	fe043783          	ld	a5,-32(s0)
    60012da8:	00278793          	addi	a5,a5,2
    60012dac:	0007c783          	lbu	a5,0(a5)
    60012db0:	0007879b          	sext.w	a5,a5
    60012db4:	0107979b          	slliw	a5,a5,0x10
    60012db8:	0007879b          	sext.w	a5,a5
    60012dbc:	00f767b3          	or	a5,a4,a5
    60012dc0:	0007871b          	sext.w	a4,a5
    60012dc4:	fe043783          	ld	a5,-32(s0)
    60012dc8:	00178793          	addi	a5,a5,1
    60012dcc:	0007c783          	lbu	a5,0(a5)
    60012dd0:	0007879b          	sext.w	a5,a5
    60012dd4:	0087979b          	slliw	a5,a5,0x8
    60012dd8:	0007879b          	sext.w	a5,a5
    60012ddc:	0007879b          	sext.w	a5,a5
    60012de0:	00f767b3          	or	a5,a4,a5
    60012de4:	0007871b          	sext.w	a4,a5
    60012de8:	fe043783          	ld	a5,-32(s0)
    60012dec:	0007c783          	lbu	a5,0(a5)
    60012df0:	0007879b          	sext.w	a5,a5
    60012df4:	00f767b3          	or	a5,a4,a5
    60012df8:	0007879b          	sext.w	a5,a5
    60012dfc:	00078713          	mv	a4,a5
    60012e00:	f00007b7          	lui	a5,0xf0000
    60012e04:	00f777b3          	and	a5,a4,a5
    60012e08:	0007871b          	sext.w	a4,a5
    60012e0c:	fd042783          	lw	a5,-48(s0)
    60012e10:	00e7e7b3          	or	a5,a5,a4
    60012e14:	fcf42823          	sw	a5,-48(s0)
    60012e18:	fd042783          	lw	a5,-48(s0)
    60012e1c:	0ff7f713          	andi	a4,a5,255
    60012e20:	fe043783          	ld	a5,-32(s0)
    60012e24:	00e78023          	sb	a4,0(a5) # fffffffff0000000 <Stat+0xffffffff8ffe00f0>
    60012e28:	fd042783          	lw	a5,-48(s0)
    60012e2c:	03079793          	slli	a5,a5,0x30
    60012e30:	0307d793          	srli	a5,a5,0x30
    60012e34:	0087d79b          	srliw	a5,a5,0x8
    60012e38:	03079713          	slli	a4,a5,0x30
    60012e3c:	03075713          	srli	a4,a4,0x30
    60012e40:	fe043783          	ld	a5,-32(s0)
    60012e44:	00178793          	addi	a5,a5,1
    60012e48:	0ff77713          	andi	a4,a4,255
    60012e4c:	00e78023          	sb	a4,0(a5)
    60012e50:	fd042783          	lw	a5,-48(s0)
    60012e54:	0107d79b          	srliw	a5,a5,0x10
    60012e58:	0007871b          	sext.w	a4,a5
    60012e5c:	fe043783          	ld	a5,-32(s0)
    60012e60:	00278793          	addi	a5,a5,2
    60012e64:	0ff77713          	andi	a4,a4,255
    60012e68:	00e78023          	sb	a4,0(a5)
    60012e6c:	fd042783          	lw	a5,-48(s0)
    60012e70:	0187d79b          	srliw	a5,a5,0x18
    60012e74:	0007871b          	sext.w	a4,a5
    60012e78:	fe043783          	ld	a5,-32(s0)
    60012e7c:	00378793          	addi	a5,a5,3
    60012e80:	0ff77713          	andi	a4,a4,255
    60012e84:	00e78023          	sb	a4,0(a5)
    60012e88:	fd843783          	ld	a5,-40(s0)
    60012e8c:	00100713          	li	a4,1
    60012e90:	00e78223          	sb	a4,4(a5)
    60012e94:	02c0006f          	j	60012ec0 <put_fat+0x4cc>
    60012e98:	00200793          	li	a5,2
    60012e9c:	fef42623          	sw	a5,-20(s0)
    60012ea0:	0200006f          	j	60012ec0 <put_fat+0x4cc>
    60012ea4:	00000013          	nop
    60012ea8:	0180006f          	j	60012ec0 <put_fat+0x4cc>
    60012eac:	00000013          	nop
    60012eb0:	0100006f          	j	60012ec0 <put_fat+0x4cc>
    60012eb4:	00000013          	nop
    60012eb8:	0080006f          	j	60012ec0 <put_fat+0x4cc>
    60012ebc:	00000013          	nop
    60012ec0:	fec42783          	lw	a5,-20(s0)
    60012ec4:	00078513          	mv	a0,a5
    60012ec8:	02813083          	ld	ra,40(sp)
    60012ecc:	02013403          	ld	s0,32(sp)
    60012ed0:	03010113          	addi	sp,sp,48
    60012ed4:	00008067          	ret

0000000060012ed8 <remove_chain>:
    60012ed8:	fd010113          	addi	sp,sp,-48
    60012edc:	02113423          	sd	ra,40(sp)
    60012ee0:	02813023          	sd	s0,32(sp)
    60012ee4:	03010413          	addi	s0,sp,48
    60012ee8:	fca43c23          	sd	a0,-40(s0)
    60012eec:	00058793          	mv	a5,a1
    60012ef0:	fcf42a23          	sw	a5,-44(s0)
    60012ef4:	fd442783          	lw	a5,-44(s0)
    60012ef8:	0007871b          	sext.w	a4,a5
    60012efc:	00100793          	li	a5,1
    60012f00:	00e7fc63          	bgeu	a5,a4,60012f18 <remove_chain+0x40>
    60012f04:	fd843783          	ld	a5,-40(s0)
    60012f08:	0187a703          	lw	a4,24(a5)
    60012f0c:	fd442783          	lw	a5,-44(s0)
    60012f10:	0007879b          	sext.w	a5,a5
    60012f14:	00e7e863          	bltu	a5,a4,60012f24 <remove_chain+0x4c>
    60012f18:	00200793          	li	a5,2
    60012f1c:	fef42623          	sw	a5,-20(s0)
    60012f20:	1000006f          	j	60013020 <remove_chain+0x148>
    60012f24:	fe042623          	sw	zero,-20(s0)
    60012f28:	0d40006f          	j	60012ffc <remove_chain+0x124>
    60012f2c:	fd442783          	lw	a5,-44(s0)
    60012f30:	00078593          	mv	a1,a5
    60012f34:	fd843503          	ld	a0,-40(s0)
    60012f38:	f30ff0ef          	jal	ra,60012668 <get_fat>
    60012f3c:	00050793          	mv	a5,a0
    60012f40:	fef42423          	sw	a5,-24(s0)
    60012f44:	fe842783          	lw	a5,-24(s0)
    60012f48:	0007879b          	sext.w	a5,a5
    60012f4c:	0c078463          	beqz	a5,60013014 <remove_chain+0x13c>
    60012f50:	fe842783          	lw	a5,-24(s0)
    60012f54:	0007871b          	sext.w	a4,a5
    60012f58:	00100793          	li	a5,1
    60012f5c:	00f71863          	bne	a4,a5,60012f6c <remove_chain+0x94>
    60012f60:	00200793          	li	a5,2
    60012f64:	fef42623          	sw	a5,-20(s0)
    60012f68:	0b80006f          	j	60013020 <remove_chain+0x148>
    60012f6c:	fe842783          	lw	a5,-24(s0)
    60012f70:	0007871b          	sext.w	a4,a5
    60012f74:	fff00793          	li	a5,-1
    60012f78:	00f71863          	bne	a4,a5,60012f88 <remove_chain+0xb0>
    60012f7c:	00100793          	li	a5,1
    60012f80:	fef42623          	sw	a5,-20(s0)
    60012f84:	09c0006f          	j	60013020 <remove_chain+0x148>
    60012f88:	fd442783          	lw	a5,-44(s0)
    60012f8c:	00000613          	li	a2,0
    60012f90:	00078593          	mv	a1,a5
    60012f94:	fd843503          	ld	a0,-40(s0)
    60012f98:	a5dff0ef          	jal	ra,600129f4 <put_fat>
    60012f9c:	00050793          	mv	a5,a0
    60012fa0:	fef42623          	sw	a5,-20(s0)
    60012fa4:	fec42783          	lw	a5,-20(s0)
    60012fa8:	0007879b          	sext.w	a5,a5
    60012fac:	06079863          	bnez	a5,6001301c <remove_chain+0x144>
    60012fb0:	fd843783          	ld	a5,-40(s0)
    60012fb4:	0107a783          	lw	a5,16(a5)
    60012fb8:	00078713          	mv	a4,a5
    60012fbc:	fff00793          	li	a5,-1
    60012fc0:	02f70a63          	beq	a4,a5,60012ff4 <remove_chain+0x11c>
    60012fc4:	fd843783          	ld	a5,-40(s0)
    60012fc8:	0107a783          	lw	a5,16(a5)
    60012fcc:	0017879b          	addiw	a5,a5,1
    60012fd0:	0007871b          	sext.w	a4,a5
    60012fd4:	fd843783          	ld	a5,-40(s0)
    60012fd8:	00e7a823          	sw	a4,16(a5)
    60012fdc:	fd843783          	ld	a5,-40(s0)
    60012fe0:	0057c783          	lbu	a5,5(a5)
    60012fe4:	0017e793          	ori	a5,a5,1
    60012fe8:	0ff7f713          	andi	a4,a5,255
    60012fec:	fd843783          	ld	a5,-40(s0)
    60012ff0:	00e782a3          	sb	a4,5(a5)
    60012ff4:	fe842783          	lw	a5,-24(s0)
    60012ff8:	fcf42a23          	sw	a5,-44(s0)
    60012ffc:	fd843783          	ld	a5,-40(s0)
    60013000:	0187a703          	lw	a4,24(a5)
    60013004:	fd442783          	lw	a5,-44(s0)
    60013008:	0007879b          	sext.w	a5,a5
    6001300c:	f2e7e0e3          	bltu	a5,a4,60012f2c <remove_chain+0x54>
    60013010:	0100006f          	j	60013020 <remove_chain+0x148>
    60013014:	00000013          	nop
    60013018:	0080006f          	j	60013020 <remove_chain+0x148>
    6001301c:	00000013          	nop
    60013020:	fec42783          	lw	a5,-20(s0)
    60013024:	00078513          	mv	a0,a5
    60013028:	02813083          	ld	ra,40(sp)
    6001302c:	02013403          	ld	s0,32(sp)
    60013030:	03010113          	addi	sp,sp,48
    60013034:	00008067          	ret

0000000060013038 <create_chain>:
    60013038:	fd010113          	addi	sp,sp,-48
    6001303c:	02113423          	sd	ra,40(sp)
    60013040:	02813023          	sd	s0,32(sp)
    60013044:	03010413          	addi	s0,sp,48
    60013048:	fca43c23          	sd	a0,-40(s0)
    6001304c:	00058793          	mv	a5,a1
    60013050:	fcf42a23          	sw	a5,-44(s0)
    60013054:	fd442783          	lw	a5,-44(s0)
    60013058:	0007879b          	sext.w	a5,a5
    6001305c:	02079e63          	bnez	a5,60013098 <create_chain+0x60>
    60013060:	fd843783          	ld	a5,-40(s0)
    60013064:	00c7a783          	lw	a5,12(a5)
    60013068:	fef42423          	sw	a5,-24(s0)
    6001306c:	fe842783          	lw	a5,-24(s0)
    60013070:	0007879b          	sext.w	a5,a5
    60013074:	00078c63          	beqz	a5,6001308c <create_chain+0x54>
    60013078:	fd843783          	ld	a5,-40(s0)
    6001307c:	0187a703          	lw	a4,24(a5)
    60013080:	fe842783          	lw	a5,-24(s0)
    60013084:	0007879b          	sext.w	a5,a5
    60013088:	06e7ee63          	bltu	a5,a4,60013104 <create_chain+0xcc>
    6001308c:	00100793          	li	a5,1
    60013090:	fef42423          	sw	a5,-24(s0)
    60013094:	0700006f          	j	60013104 <create_chain+0xcc>
    60013098:	fd442783          	lw	a5,-44(s0)
    6001309c:	00078593          	mv	a1,a5
    600130a0:	fd843503          	ld	a0,-40(s0)
    600130a4:	dc4ff0ef          	jal	ra,60012668 <get_fat>
    600130a8:	00050793          	mv	a5,a0
    600130ac:	fef42023          	sw	a5,-32(s0)
    600130b0:	fe042783          	lw	a5,-32(s0)
    600130b4:	0007871b          	sext.w	a4,a5
    600130b8:	00100793          	li	a5,1
    600130bc:	00e7e663          	bltu	a5,a4,600130c8 <create_chain+0x90>
    600130c0:	00100793          	li	a5,1
    600130c4:	1d40006f          	j	60013298 <create_chain+0x260>
    600130c8:	fe042783          	lw	a5,-32(s0)
    600130cc:	0007871b          	sext.w	a4,a5
    600130d0:	fff00793          	li	a5,-1
    600130d4:	00f71663          	bne	a4,a5,600130e0 <create_chain+0xa8>
    600130d8:	fe042783          	lw	a5,-32(s0)
    600130dc:	1bc0006f          	j	60013298 <create_chain+0x260>
    600130e0:	fd843783          	ld	a5,-40(s0)
    600130e4:	0187a703          	lw	a4,24(a5)
    600130e8:	fe042783          	lw	a5,-32(s0)
    600130ec:	0007879b          	sext.w	a5,a5
    600130f0:	00e7f663          	bgeu	a5,a4,600130fc <create_chain+0xc4>
    600130f4:	fe042783          	lw	a5,-32(s0)
    600130f8:	1a00006f          	j	60013298 <create_chain+0x260>
    600130fc:	fd442783          	lw	a5,-44(s0)
    60013100:	fef42423          	sw	a5,-24(s0)
    60013104:	fe842783          	lw	a5,-24(s0)
    60013108:	fef42623          	sw	a5,-20(s0)
    6001310c:	fec42783          	lw	a5,-20(s0)
    60013110:	0017879b          	addiw	a5,a5,1
    60013114:	fef42623          	sw	a5,-20(s0)
    60013118:	fd843783          	ld	a5,-40(s0)
    6001311c:	0187a703          	lw	a4,24(a5)
    60013120:	fec42783          	lw	a5,-20(s0)
    60013124:	0007879b          	sext.w	a5,a5
    60013128:	02e7e463          	bltu	a5,a4,60013150 <create_chain+0x118>
    6001312c:	00200793          	li	a5,2
    60013130:	fef42623          	sw	a5,-20(s0)
    60013134:	fec42703          	lw	a4,-20(s0)
    60013138:	fe842783          	lw	a5,-24(s0)
    6001313c:	0007071b          	sext.w	a4,a4
    60013140:	0007879b          	sext.w	a5,a5
    60013144:	00e7f663          	bgeu	a5,a4,60013150 <create_chain+0x118>
    60013148:	00000793          	li	a5,0
    6001314c:	14c0006f          	j	60013298 <create_chain+0x260>
    60013150:	fec42783          	lw	a5,-20(s0)
    60013154:	00078593          	mv	a1,a5
    60013158:	fd843503          	ld	a0,-40(s0)
    6001315c:	d0cff0ef          	jal	ra,60012668 <get_fat>
    60013160:	00050793          	mv	a5,a0
    60013164:	fef42023          	sw	a5,-32(s0)
    60013168:	fe042783          	lw	a5,-32(s0)
    6001316c:	0007879b          	sext.w	a5,a5
    60013170:	04078463          	beqz	a5,600131b8 <create_chain+0x180>
    60013174:	fe042783          	lw	a5,-32(s0)
    60013178:	0007871b          	sext.w	a4,a5
    6001317c:	fff00793          	li	a5,-1
    60013180:	00f70a63          	beq	a4,a5,60013194 <create_chain+0x15c>
    60013184:	fe042783          	lw	a5,-32(s0)
    60013188:	0007871b          	sext.w	a4,a5
    6001318c:	00100793          	li	a5,1
    60013190:	00f71663          	bne	a4,a5,6001319c <create_chain+0x164>
    60013194:	fe042783          	lw	a5,-32(s0)
    60013198:	1000006f          	j	60013298 <create_chain+0x260>
    6001319c:	fec42703          	lw	a4,-20(s0)
    600131a0:	fe842783          	lw	a5,-24(s0)
    600131a4:	0007071b          	sext.w	a4,a4
    600131a8:	0007879b          	sext.w	a5,a5
    600131ac:	f6f710e3          	bne	a4,a5,6001310c <create_chain+0xd4>
    600131b0:	00000793          	li	a5,0
    600131b4:	0e40006f          	j	60013298 <create_chain+0x260>
    600131b8:	00000013          	nop
    600131bc:	fec42703          	lw	a4,-20(s0)
    600131c0:	100007b7          	lui	a5,0x10000
    600131c4:	fff78613          	addi	a2,a5,-1 # fffffff <_start-0x50010001>
    600131c8:	00070593          	mv	a1,a4
    600131cc:	fd843503          	ld	a0,-40(s0)
    600131d0:	825ff0ef          	jal	ra,600129f4 <put_fat>
    600131d4:	00050793          	mv	a5,a0
    600131d8:	fef42223          	sw	a5,-28(s0)
    600131dc:	fe442783          	lw	a5,-28(s0)
    600131e0:	0007879b          	sext.w	a5,a5
    600131e4:	02079863          	bnez	a5,60013214 <create_chain+0x1dc>
    600131e8:	fd442783          	lw	a5,-44(s0)
    600131ec:	0007879b          	sext.w	a5,a5
    600131f0:	02078263          	beqz	a5,60013214 <create_chain+0x1dc>
    600131f4:	fec42703          	lw	a4,-20(s0)
    600131f8:	fd442783          	lw	a5,-44(s0)
    600131fc:	00070613          	mv	a2,a4
    60013200:	00078593          	mv	a1,a5
    60013204:	fd843503          	ld	a0,-40(s0)
    60013208:	fecff0ef          	jal	ra,600129f4 <put_fat>
    6001320c:	00050793          	mv	a5,a0
    60013210:	fef42223          	sw	a5,-28(s0)
    60013214:	fe442783          	lw	a5,-28(s0)
    60013218:	0007879b          	sext.w	a5,a5
    6001321c:	04079c63          	bnez	a5,60013274 <create_chain+0x23c>
    60013220:	fd843783          	ld	a5,-40(s0)
    60013224:	fec42703          	lw	a4,-20(s0)
    60013228:	00e7a623          	sw	a4,12(a5)
    6001322c:	fd843783          	ld	a5,-40(s0)
    60013230:	0107a783          	lw	a5,16(a5)
    60013234:	00078713          	mv	a4,a5
    60013238:	fff00793          	li	a5,-1
    6001323c:	04f70c63          	beq	a4,a5,60013294 <create_chain+0x25c>
    60013240:	fd843783          	ld	a5,-40(s0)
    60013244:	0107a783          	lw	a5,16(a5)
    60013248:	fff7879b          	addiw	a5,a5,-1
    6001324c:	0007871b          	sext.w	a4,a5
    60013250:	fd843783          	ld	a5,-40(s0)
    60013254:	00e7a823          	sw	a4,16(a5)
    60013258:	fd843783          	ld	a5,-40(s0)
    6001325c:	0057c783          	lbu	a5,5(a5)
    60013260:	0017e793          	ori	a5,a5,1
    60013264:	0ff7f713          	andi	a4,a5,255
    60013268:	fd843783          	ld	a5,-40(s0)
    6001326c:	00e782a3          	sb	a4,5(a5)
    60013270:	0240006f          	j	60013294 <create_chain+0x25c>
    60013274:	fe442783          	lw	a5,-28(s0)
    60013278:	0007871b          	sext.w	a4,a5
    6001327c:	00100793          	li	a5,1
    60013280:	00f71663          	bne	a4,a5,6001328c <create_chain+0x254>
    60013284:	fff00793          	li	a5,-1
    60013288:	0080006f          	j	60013290 <create_chain+0x258>
    6001328c:	00100793          	li	a5,1
    60013290:	fef42623          	sw	a5,-20(s0)
    60013294:	fec42783          	lw	a5,-20(s0)
    60013298:	00078513          	mv	a0,a5
    6001329c:	02813083          	ld	ra,40(sp)
    600132a0:	02013403          	ld	s0,32(sp)
    600132a4:	03010113          	addi	sp,sp,48
    600132a8:	00008067          	ret

00000000600132ac <dir_sdi>:
    600132ac:	fd010113          	addi	sp,sp,-48
    600132b0:	02113423          	sd	ra,40(sp)
    600132b4:	02813023          	sd	s0,32(sp)
    600132b8:	03010413          	addi	s0,sp,48
    600132bc:	fca43c23          	sd	a0,-40(s0)
    600132c0:	00058793          	mv	a5,a1
    600132c4:	fcf42a23          	sw	a5,-44(s0)
    600132c8:	fd442783          	lw	a5,-44(s0)
    600132cc:	03079713          	slli	a4,a5,0x30
    600132d0:	03075713          	srli	a4,a4,0x30
    600132d4:	fd843783          	ld	a5,-40(s0)
    600132d8:	00e79523          	sh	a4,10(a5)
    600132dc:	fd843783          	ld	a5,-40(s0)
    600132e0:	00c7a783          	lw	a5,12(a5)
    600132e4:	fef42623          	sw	a5,-20(s0)
    600132e8:	fec42783          	lw	a5,-20(s0)
    600132ec:	0007871b          	sext.w	a4,a5
    600132f0:	00100793          	li	a5,1
    600132f4:	00f70e63          	beq	a4,a5,60013310 <dir_sdi+0x64>
    600132f8:	fd843783          	ld	a5,-40(s0)
    600132fc:	0007b783          	ld	a5,0(a5)
    60013300:	0187a703          	lw	a4,24(a5)
    60013304:	fec42783          	lw	a5,-20(s0)
    60013308:	0007879b          	sext.w	a5,a5
    6001330c:	00e7e663          	bltu	a5,a4,60013318 <dir_sdi+0x6c>
    60013310:	00200793          	li	a5,2
    60013314:	1bc0006f          	j	600134d0 <dir_sdi+0x224>
    60013318:	fec42783          	lw	a5,-20(s0)
    6001331c:	0007879b          	sext.w	a5,a5
    60013320:	02079663          	bnez	a5,6001334c <dir_sdi+0xa0>
    60013324:	fd843783          	ld	a5,-40(s0)
    60013328:	0007b783          	ld	a5,0(a5)
    6001332c:	0007c783          	lbu	a5,0(a5)
    60013330:	00078713          	mv	a4,a5
    60013334:	00300793          	li	a5,3
    60013338:	00f71a63          	bne	a4,a5,6001334c <dir_sdi+0xa0>
    6001333c:	fd843783          	ld	a5,-40(s0)
    60013340:	0007b783          	ld	a5,0(a5)
    60013344:	0287a783          	lw	a5,40(a5)
    60013348:	fef42623          	sw	a5,-20(s0)
    6001334c:	fec42783          	lw	a5,-20(s0)
    60013350:	0007879b          	sext.w	a5,a5
    60013354:	02079e63          	bnez	a5,60013390 <dir_sdi+0xe4>
    60013358:	fd843783          	ld	a5,-40(s0)
    6001335c:	0007b783          	ld	a5,0(a5)
    60013360:	0087d783          	lhu	a5,8(a5)
    60013364:	0007871b          	sext.w	a4,a5
    60013368:	fd442783          	lw	a5,-44(s0)
    6001336c:	0007879b          	sext.w	a5,a5
    60013370:	00e7e663          	bltu	a5,a4,6001337c <dir_sdi+0xd0>
    60013374:	00200793          	li	a5,2
    60013378:	1580006f          	j	600134d0 <dir_sdi+0x224>
    6001337c:	fd843783          	ld	a5,-40(s0)
    60013380:	0007b783          	ld	a5,0(a5)
    60013384:	0287a783          	lw	a5,40(a5)
    60013388:	fef42423          	sw	a5,-24(s0)
    6001338c:	0cc0006f          	j	60013458 <dir_sdi+0x1ac>
    60013390:	fd843783          	ld	a5,-40(s0)
    60013394:	0007b783          	ld	a5,0(a5)
    60013398:	0027c783          	lbu	a5,2(a5)
    6001339c:	0007879b          	sext.w	a5,a5
    600133a0:	0047979b          	slliw	a5,a5,0x4
    600133a4:	fef42223          	sw	a5,-28(s0)
    600133a8:	07c0006f          	j	60013424 <dir_sdi+0x178>
    600133ac:	fd843783          	ld	a5,-40(s0)
    600133b0:	0007b783          	ld	a5,0(a5)
    600133b4:	fec42703          	lw	a4,-20(s0)
    600133b8:	00070593          	mv	a1,a4
    600133bc:	00078513          	mv	a0,a5
    600133c0:	aa8ff0ef          	jal	ra,60012668 <get_fat>
    600133c4:	00050793          	mv	a5,a0
    600133c8:	fef42623          	sw	a5,-20(s0)
    600133cc:	fec42783          	lw	a5,-20(s0)
    600133d0:	0007871b          	sext.w	a4,a5
    600133d4:	fff00793          	li	a5,-1
    600133d8:	00f71663          	bne	a4,a5,600133e4 <dir_sdi+0x138>
    600133dc:	00100793          	li	a5,1
    600133e0:	0f00006f          	j	600134d0 <dir_sdi+0x224>
    600133e4:	fec42783          	lw	a5,-20(s0)
    600133e8:	0007871b          	sext.w	a4,a5
    600133ec:	00100793          	li	a5,1
    600133f0:	00e7fe63          	bgeu	a5,a4,6001340c <dir_sdi+0x160>
    600133f4:	fd843783          	ld	a5,-40(s0)
    600133f8:	0007b783          	ld	a5,0(a5)
    600133fc:	0187a703          	lw	a4,24(a5)
    60013400:	fec42783          	lw	a5,-20(s0)
    60013404:	0007879b          	sext.w	a5,a5
    60013408:	00e7e663          	bltu	a5,a4,60013414 <dir_sdi+0x168>
    6001340c:	00200793          	li	a5,2
    60013410:	0c00006f          	j	600134d0 <dir_sdi+0x224>
    60013414:	fd442703          	lw	a4,-44(s0)
    60013418:	fe442783          	lw	a5,-28(s0)
    6001341c:	40f707bb          	subw	a5,a4,a5
    60013420:	fcf42a23          	sw	a5,-44(s0)
    60013424:	fd442703          	lw	a4,-44(s0)
    60013428:	fe442783          	lw	a5,-28(s0)
    6001342c:	0007071b          	sext.w	a4,a4
    60013430:	0007879b          	sext.w	a5,a5
    60013434:	f6f77ce3          	bgeu	a4,a5,600133ac <dir_sdi+0x100>
    60013438:	fd843783          	ld	a5,-40(s0)
    6001343c:	0007b783          	ld	a5,0(a5)
    60013440:	fec42703          	lw	a4,-20(s0)
    60013444:	00070593          	mv	a1,a4
    60013448:	00078513          	mv	a0,a5
    6001344c:	99cff0ef          	jal	ra,600125e8 <clust2sect>
    60013450:	00050793          	mv	a5,a0
    60013454:	fef42423          	sw	a5,-24(s0)
    60013458:	fd843783          	ld	a5,-40(s0)
    6001345c:	fec42703          	lw	a4,-20(s0)
    60013460:	00e7a823          	sw	a4,16(a5)
    60013464:	fe842783          	lw	a5,-24(s0)
    60013468:	0007879b          	sext.w	a5,a5
    6001346c:	00079663          	bnez	a5,60013478 <dir_sdi+0x1cc>
    60013470:	00200793          	li	a5,2
    60013474:	05c0006f          	j	600134d0 <dir_sdi+0x224>
    60013478:	fd442783          	lw	a5,-44(s0)
    6001347c:	0047d79b          	srliw	a5,a5,0x4
    60013480:	0007879b          	sext.w	a5,a5
    60013484:	fe842703          	lw	a4,-24(s0)
    60013488:	00f707bb          	addw	a5,a4,a5
    6001348c:	0007871b          	sext.w	a4,a5
    60013490:	fd843783          	ld	a5,-40(s0)
    60013494:	00e7aa23          	sw	a4,20(a5)
    60013498:	fd843783          	ld	a5,-40(s0)
    6001349c:	0007b783          	ld	a5,0(a5)
    600134a0:	03478713          	addi	a4,a5,52
    600134a4:	fd442783          	lw	a5,-44(s0)
    600134a8:	00f7f793          	andi	a5,a5,15
    600134ac:	0007879b          	sext.w	a5,a5
    600134b0:	0057979b          	slliw	a5,a5,0x5
    600134b4:	0007879b          	sext.w	a5,a5
    600134b8:	02079793          	slli	a5,a5,0x20
    600134bc:	0207d793          	srli	a5,a5,0x20
    600134c0:	00f70733          	add	a4,a4,a5
    600134c4:	fd843783          	ld	a5,-40(s0)
    600134c8:	00e7bc23          	sd	a4,24(a5)
    600134cc:	00000793          	li	a5,0
    600134d0:	00078513          	mv	a0,a5
    600134d4:	02813083          	ld	ra,40(sp)
    600134d8:	02013403          	ld	s0,32(sp)
    600134dc:	03010113          	addi	sp,sp,48
    600134e0:	00008067          	ret

00000000600134e4 <dir_next>:
    600134e4:	fc010113          	addi	sp,sp,-64
    600134e8:	02113c23          	sd	ra,56(sp)
    600134ec:	02813823          	sd	s0,48(sp)
    600134f0:	02913423          	sd	s1,40(sp)
    600134f4:	04010413          	addi	s0,sp,64
    600134f8:	fca43423          	sd	a0,-56(s0)
    600134fc:	00058793          	mv	a5,a1
    60013500:	fcf42223          	sw	a5,-60(s0)
    60013504:	fc843783          	ld	a5,-56(s0)
    60013508:	00a7d783          	lhu	a5,10(a5)
    6001350c:	0007879b          	sext.w	a5,a5
    60013510:	0017879b          	addiw	a5,a5,1
    60013514:	0007879b          	sext.w	a5,a5
    60013518:	fcf42a23          	sw	a5,-44(s0)
    6001351c:	fd442703          	lw	a4,-44(s0)
    60013520:	000107b7          	lui	a5,0x10
    60013524:	fff78793          	addi	a5,a5,-1 # ffff <_start-0x60000001>
    60013528:	00f777b3          	and	a5,a4,a5
    6001352c:	0007879b          	sext.w	a5,a5
    60013530:	00078863          	beqz	a5,60013540 <dir_next+0x5c>
    60013534:	fc843783          	ld	a5,-56(s0)
    60013538:	0147a783          	lw	a5,20(a5)
    6001353c:	00079663          	bnez	a5,60013548 <dir_next+0x64>
    60013540:	00400793          	li	a5,4
    60013544:	3040006f          	j	60013848 <dir_next+0x364>
    60013548:	fd442783          	lw	a5,-44(s0)
    6001354c:	00f7f793          	andi	a5,a5,15
    60013550:	0007879b          	sext.w	a5,a5
    60013554:	2a079463          	bnez	a5,600137fc <dir_next+0x318>
    60013558:	fc843783          	ld	a5,-56(s0)
    6001355c:	0147a783          	lw	a5,20(a5)
    60013560:	0017879b          	addiw	a5,a5,1
    60013564:	0007871b          	sext.w	a4,a5
    60013568:	fc843783          	ld	a5,-56(s0)
    6001356c:	00e7aa23          	sw	a4,20(a5)
    60013570:	fc843783          	ld	a5,-56(s0)
    60013574:	0107a783          	lw	a5,16(a5)
    60013578:	02079463          	bnez	a5,600135a0 <dir_next+0xbc>
    6001357c:	fc843783          	ld	a5,-56(s0)
    60013580:	0007b783          	ld	a5,0(a5)
    60013584:	0087d783          	lhu	a5,8(a5)
    60013588:	0007871b          	sext.w	a4,a5
    6001358c:	fd442783          	lw	a5,-44(s0)
    60013590:	0007879b          	sext.w	a5,a5
    60013594:	26e7e463          	bltu	a5,a4,600137fc <dir_next+0x318>
    60013598:	00400793          	li	a5,4
    6001359c:	2ac0006f          	j	60013848 <dir_next+0x364>
    600135a0:	fd442783          	lw	a5,-44(s0)
    600135a4:	0047d79b          	srliw	a5,a5,0x4
    600135a8:	0007871b          	sext.w	a4,a5
    600135ac:	fc843783          	ld	a5,-56(s0)
    600135b0:	0007b783          	ld	a5,0(a5)
    600135b4:	0027c783          	lbu	a5,2(a5)
    600135b8:	0007879b          	sext.w	a5,a5
    600135bc:	fff7879b          	addiw	a5,a5,-1
    600135c0:	0007879b          	sext.w	a5,a5
    600135c4:	0007879b          	sext.w	a5,a5
    600135c8:	00f777b3          	and	a5,a4,a5
    600135cc:	0007879b          	sext.w	a5,a5
    600135d0:	22079663          	bnez	a5,600137fc <dir_next+0x318>
    600135d4:	fc843783          	ld	a5,-56(s0)
    600135d8:	0007b703          	ld	a4,0(a5)
    600135dc:	fc843783          	ld	a5,-56(s0)
    600135e0:	0107a783          	lw	a5,16(a5)
    600135e4:	00078593          	mv	a1,a5
    600135e8:	00070513          	mv	a0,a4
    600135ec:	87cff0ef          	jal	ra,60012668 <get_fat>
    600135f0:	00050793          	mv	a5,a0
    600135f4:	fcf42e23          	sw	a5,-36(s0)
    600135f8:	fdc42783          	lw	a5,-36(s0)
    600135fc:	0007871b          	sext.w	a4,a5
    60013600:	00100793          	li	a5,1
    60013604:	00e7e663          	bltu	a5,a4,60013610 <dir_next+0x12c>
    60013608:	00200793          	li	a5,2
    6001360c:	23c0006f          	j	60013848 <dir_next+0x364>
    60013610:	fdc42783          	lw	a5,-36(s0)
    60013614:	0007871b          	sext.w	a4,a5
    60013618:	fff00793          	li	a5,-1
    6001361c:	00f71663          	bne	a4,a5,60013628 <dir_next+0x144>
    60013620:	00100793          	li	a5,1
    60013624:	2240006f          	j	60013848 <dir_next+0x364>
    60013628:	fc843783          	ld	a5,-56(s0)
    6001362c:	0007b783          	ld	a5,0(a5)
    60013630:	0187a703          	lw	a4,24(a5)
    60013634:	fdc42783          	lw	a5,-36(s0)
    60013638:	0007879b          	sext.w	a5,a5
    6001363c:	18e7e663          	bltu	a5,a4,600137c8 <dir_next+0x2e4>
    60013640:	fc442783          	lw	a5,-60(s0)
    60013644:	0007879b          	sext.w	a5,a5
    60013648:	00079663          	bnez	a5,60013654 <dir_next+0x170>
    6001364c:	00400793          	li	a5,4
    60013650:	1f80006f          	j	60013848 <dir_next+0x364>
    60013654:	fc843783          	ld	a5,-56(s0)
    60013658:	0007b703          	ld	a4,0(a5)
    6001365c:	fc843783          	ld	a5,-56(s0)
    60013660:	0107a783          	lw	a5,16(a5)
    60013664:	00078593          	mv	a1,a5
    60013668:	00070513          	mv	a0,a4
    6001366c:	9cdff0ef          	jal	ra,60013038 <create_chain>
    60013670:	00050793          	mv	a5,a0
    60013674:	fcf42e23          	sw	a5,-36(s0)
    60013678:	fdc42783          	lw	a5,-36(s0)
    6001367c:	0007879b          	sext.w	a5,a5
    60013680:	00079663          	bnez	a5,6001368c <dir_next+0x1a8>
    60013684:	00700793          	li	a5,7
    60013688:	1c00006f          	j	60013848 <dir_next+0x364>
    6001368c:	fdc42783          	lw	a5,-36(s0)
    60013690:	0007871b          	sext.w	a4,a5
    60013694:	00100793          	li	a5,1
    60013698:	00f71663          	bne	a4,a5,600136a4 <dir_next+0x1c0>
    6001369c:	00200793          	li	a5,2
    600136a0:	1a80006f          	j	60013848 <dir_next+0x364>
    600136a4:	fdc42783          	lw	a5,-36(s0)
    600136a8:	0007871b          	sext.w	a4,a5
    600136ac:	fff00793          	li	a5,-1
    600136b0:	00f71663          	bne	a4,a5,600136bc <dir_next+0x1d8>
    600136b4:	00100793          	li	a5,1
    600136b8:	1900006f          	j	60013848 <dir_next+0x364>
    600136bc:	fc843783          	ld	a5,-56(s0)
    600136c0:	0007b783          	ld	a5,0(a5)
    600136c4:	00078513          	mv	a0,a5
    600136c8:	b01fe0ef          	jal	ra,600121c8 <sync_window>
    600136cc:	00050793          	mv	a5,a0
    600136d0:	0007879b          	sext.w	a5,a5
    600136d4:	00078663          	beqz	a5,600136e0 <dir_next+0x1fc>
    600136d8:	00100793          	li	a5,1
    600136dc:	16c0006f          	j	60013848 <dir_next+0x364>
    600136e0:	fc843783          	ld	a5,-56(s0)
    600136e4:	0007b783          	ld	a5,0(a5)
    600136e8:	03478793          	addi	a5,a5,52
    600136ec:	20000613          	li	a2,512
    600136f0:	00000593          	li	a1,0
    600136f4:	00078513          	mv	a0,a5
    600136f8:	96dfe0ef          	jal	ra,60012064 <mem_set>
    600136fc:	fc843783          	ld	a5,-56(s0)
    60013700:	0007b703          	ld	a4,0(a5)
    60013704:	fc843783          	ld	a5,-56(s0)
    60013708:	0007b483          	ld	s1,0(a5)
    6001370c:	fdc42783          	lw	a5,-36(s0)
    60013710:	00078593          	mv	a1,a5
    60013714:	00070513          	mv	a0,a4
    60013718:	ed1fe0ef          	jal	ra,600125e8 <clust2sect>
    6001371c:	00050793          	mv	a5,a0
    60013720:	0007879b          	sext.w	a5,a5
    60013724:	02f4a823          	sw	a5,48(s1)
    60013728:	fc042c23          	sw	zero,-40(s0)
    6001372c:	05c0006f          	j	60013788 <dir_next+0x2a4>
    60013730:	fc843783          	ld	a5,-56(s0)
    60013734:	0007b783          	ld	a5,0(a5)
    60013738:	00100713          	li	a4,1
    6001373c:	00e78223          	sb	a4,4(a5)
    60013740:	fc843783          	ld	a5,-56(s0)
    60013744:	0007b783          	ld	a5,0(a5)
    60013748:	00078513          	mv	a0,a5
    6001374c:	a7dfe0ef          	jal	ra,600121c8 <sync_window>
    60013750:	00050793          	mv	a5,a0
    60013754:	0007879b          	sext.w	a5,a5
    60013758:	00078663          	beqz	a5,60013764 <dir_next+0x280>
    6001375c:	00100793          	li	a5,1
    60013760:	0e80006f          	j	60013848 <dir_next+0x364>
    60013764:	fc843783          	ld	a5,-56(s0)
    60013768:	0007b783          	ld	a5,0(a5)
    6001376c:	0307a703          	lw	a4,48(a5)
    60013770:	0017071b          	addiw	a4,a4,1
    60013774:	0007071b          	sext.w	a4,a4
    60013778:	02e7a823          	sw	a4,48(a5)
    6001377c:	fd842783          	lw	a5,-40(s0)
    60013780:	0017879b          	addiw	a5,a5,1
    60013784:	fcf42c23          	sw	a5,-40(s0)
    60013788:	fc843783          	ld	a5,-56(s0)
    6001378c:	0007b783          	ld	a5,0(a5)
    60013790:	0027c783          	lbu	a5,2(a5)
    60013794:	0007871b          	sext.w	a4,a5
    60013798:	fd842783          	lw	a5,-40(s0)
    6001379c:	0007879b          	sext.w	a5,a5
    600137a0:	f8e7e8e3          	bltu	a5,a4,60013730 <dir_next+0x24c>
    600137a4:	fc843783          	ld	a5,-56(s0)
    600137a8:	0007b783          	ld	a5,0(a5)
    600137ac:	0307a683          	lw	a3,48(a5)
    600137b0:	fc843783          	ld	a5,-56(s0)
    600137b4:	0007b783          	ld	a5,0(a5)
    600137b8:	fd842703          	lw	a4,-40(s0)
    600137bc:	40e6873b          	subw	a4,a3,a4
    600137c0:	0007071b          	sext.w	a4,a4
    600137c4:	02e7a823          	sw	a4,48(a5)
    600137c8:	fc843783          	ld	a5,-56(s0)
    600137cc:	fdc42703          	lw	a4,-36(s0)
    600137d0:	00e7a823          	sw	a4,16(a5)
    600137d4:	fc843783          	ld	a5,-56(s0)
    600137d8:	0007b783          	ld	a5,0(a5)
    600137dc:	fdc42703          	lw	a4,-36(s0)
    600137e0:	00070593          	mv	a1,a4
    600137e4:	00078513          	mv	a0,a5
    600137e8:	e01fe0ef          	jal	ra,600125e8 <clust2sect>
    600137ec:	00050793          	mv	a5,a0
    600137f0:	0007871b          	sext.w	a4,a5
    600137f4:	fc843783          	ld	a5,-56(s0)
    600137f8:	00e7aa23          	sw	a4,20(a5)
    600137fc:	fd442783          	lw	a5,-44(s0)
    60013800:	03079713          	slli	a4,a5,0x30
    60013804:	03075713          	srli	a4,a4,0x30
    60013808:	fc843783          	ld	a5,-56(s0)
    6001380c:	00e79523          	sh	a4,10(a5)
    60013810:	fc843783          	ld	a5,-56(s0)
    60013814:	0007b783          	ld	a5,0(a5)
    60013818:	03478713          	addi	a4,a5,52
    6001381c:	fd442783          	lw	a5,-44(s0)
    60013820:	00f7f793          	andi	a5,a5,15
    60013824:	0007879b          	sext.w	a5,a5
    60013828:	0057979b          	slliw	a5,a5,0x5
    6001382c:	0007879b          	sext.w	a5,a5
    60013830:	02079793          	slli	a5,a5,0x20
    60013834:	0207d793          	srli	a5,a5,0x20
    60013838:	00f70733          	add	a4,a4,a5
    6001383c:	fc843783          	ld	a5,-56(s0)
    60013840:	00e7bc23          	sd	a4,24(a5)
    60013844:	00000793          	li	a5,0
    60013848:	00078513          	mv	a0,a5
    6001384c:	03813083          	ld	ra,56(sp)
    60013850:	03013403          	ld	s0,48(sp)
    60013854:	02813483          	ld	s1,40(sp)
    60013858:	04010113          	addi	sp,sp,64
    6001385c:	00008067          	ret

0000000060013860 <dir_alloc>:
    60013860:	fd010113          	addi	sp,sp,-48
    60013864:	02113423          	sd	ra,40(sp)
    60013868:	02813023          	sd	s0,32(sp)
    6001386c:	03010413          	addi	s0,sp,48
    60013870:	fca43c23          	sd	a0,-40(s0)
    60013874:	00058793          	mv	a5,a1
    60013878:	fcf42a23          	sw	a5,-44(s0)
    6001387c:	00000593          	li	a1,0
    60013880:	fd843503          	ld	a0,-40(s0)
    60013884:	a29ff0ef          	jal	ra,600132ac <dir_sdi>
    60013888:	00050793          	mv	a5,a0
    6001388c:	fef42623          	sw	a5,-20(s0)
    60013890:	fec42783          	lw	a5,-20(s0)
    60013894:	0007879b          	sext.w	a5,a5
    60013898:	0a079863          	bnez	a5,60013948 <dir_alloc+0xe8>
    6001389c:	fe042423          	sw	zero,-24(s0)
    600138a0:	fd843783          	ld	a5,-40(s0)
    600138a4:	0007b703          	ld	a4,0(a5)
    600138a8:	fd843783          	ld	a5,-40(s0)
    600138ac:	0147a783          	lw	a5,20(a5)
    600138b0:	00078593          	mv	a1,a5
    600138b4:	00070513          	mv	a0,a4
    600138b8:	a21fe0ef          	jal	ra,600122d8 <move_window>
    600138bc:	00050793          	mv	a5,a0
    600138c0:	fef42623          	sw	a5,-20(s0)
    600138c4:	fec42783          	lw	a5,-20(s0)
    600138c8:	0007879b          	sext.w	a5,a5
    600138cc:	06079c63          	bnez	a5,60013944 <dir_alloc+0xe4>
    600138d0:	fd843783          	ld	a5,-40(s0)
    600138d4:	0187b783          	ld	a5,24(a5)
    600138d8:	0007c783          	lbu	a5,0(a5)
    600138dc:	00078713          	mv	a4,a5
    600138e0:	0e500793          	li	a5,229
    600138e4:	00f70a63          	beq	a4,a5,600138f8 <dir_alloc+0x98>
    600138e8:	fd843783          	ld	a5,-40(s0)
    600138ec:	0187b783          	ld	a5,24(a5)
    600138f0:	0007c783          	lbu	a5,0(a5)
    600138f4:	02079463          	bnez	a5,6001391c <dir_alloc+0xbc>
    600138f8:	fe842783          	lw	a5,-24(s0)
    600138fc:	0017879b          	addiw	a5,a5,1
    60013900:	fef42423          	sw	a5,-24(s0)
    60013904:	fe842703          	lw	a4,-24(s0)
    60013908:	fd442783          	lw	a5,-44(s0)
    6001390c:	0007071b          	sext.w	a4,a4
    60013910:	0007879b          	sext.w	a5,a5
    60013914:	00f71663          	bne	a4,a5,60013920 <dir_alloc+0xc0>
    60013918:	0300006f          	j	60013948 <dir_alloc+0xe8>
    6001391c:	fe042423          	sw	zero,-24(s0)
    60013920:	00100593          	li	a1,1
    60013924:	fd843503          	ld	a0,-40(s0)
    60013928:	bbdff0ef          	jal	ra,600134e4 <dir_next>
    6001392c:	00050793          	mv	a5,a0
    60013930:	fef42623          	sw	a5,-20(s0)
    60013934:	fec42783          	lw	a5,-20(s0)
    60013938:	0007879b          	sext.w	a5,a5
    6001393c:	f60782e3          	beqz	a5,600138a0 <dir_alloc+0x40>
    60013940:	0080006f          	j	60013948 <dir_alloc+0xe8>
    60013944:	00000013          	nop
    60013948:	fec42783          	lw	a5,-20(s0)
    6001394c:	0007871b          	sext.w	a4,a5
    60013950:	00400793          	li	a5,4
    60013954:	00f71663          	bne	a4,a5,60013960 <dir_alloc+0x100>
    60013958:	00700793          	li	a5,7
    6001395c:	fef42623          	sw	a5,-20(s0)
    60013960:	fec42783          	lw	a5,-20(s0)
    60013964:	00078513          	mv	a0,a5
    60013968:	02813083          	ld	ra,40(sp)
    6001396c:	02013403          	ld	s0,32(sp)
    60013970:	03010113          	addi	sp,sp,48
    60013974:	00008067          	ret

0000000060013978 <ld_clust>:
    60013978:	fd010113          	addi	sp,sp,-48
    6001397c:	02813423          	sd	s0,40(sp)
    60013980:	03010413          	addi	s0,sp,48
    60013984:	fca43c23          	sd	a0,-40(s0)
    60013988:	fcb43823          	sd	a1,-48(s0)
    6001398c:	fd043783          	ld	a5,-48(s0)
    60013990:	01a78793          	addi	a5,a5,26
    60013994:	00178793          	addi	a5,a5,1
    60013998:	0007c783          	lbu	a5,0(a5)
    6001399c:	0007879b          	sext.w	a5,a5
    600139a0:	0087979b          	slliw	a5,a5,0x8
    600139a4:	0007879b          	sext.w	a5,a5
    600139a8:	0107971b          	slliw	a4,a5,0x10
    600139ac:	4107571b          	sraiw	a4,a4,0x10
    600139b0:	fd043783          	ld	a5,-48(s0)
    600139b4:	01a78793          	addi	a5,a5,26
    600139b8:	0007c783          	lbu	a5,0(a5)
    600139bc:	0107979b          	slliw	a5,a5,0x10
    600139c0:	4107d79b          	sraiw	a5,a5,0x10
    600139c4:	00f767b3          	or	a5,a4,a5
    600139c8:	0107979b          	slliw	a5,a5,0x10
    600139cc:	4107d79b          	sraiw	a5,a5,0x10
    600139d0:	03079793          	slli	a5,a5,0x30
    600139d4:	0307d793          	srli	a5,a5,0x30
    600139d8:	fef42623          	sw	a5,-20(s0)
    600139dc:	fd843783          	ld	a5,-40(s0)
    600139e0:	0007c783          	lbu	a5,0(a5)
    600139e4:	00078713          	mv	a4,a5
    600139e8:	00300793          	li	a5,3
    600139ec:	06f71463          	bne	a4,a5,60013a54 <ld_clust+0xdc>
    600139f0:	fd043783          	ld	a5,-48(s0)
    600139f4:	01478793          	addi	a5,a5,20
    600139f8:	00178793          	addi	a5,a5,1
    600139fc:	0007c783          	lbu	a5,0(a5)
    60013a00:	0007879b          	sext.w	a5,a5
    60013a04:	0087979b          	slliw	a5,a5,0x8
    60013a08:	0007879b          	sext.w	a5,a5
    60013a0c:	0107971b          	slliw	a4,a5,0x10
    60013a10:	4107571b          	sraiw	a4,a4,0x10
    60013a14:	fd043783          	ld	a5,-48(s0)
    60013a18:	01478793          	addi	a5,a5,20
    60013a1c:	0007c783          	lbu	a5,0(a5)
    60013a20:	0107979b          	slliw	a5,a5,0x10
    60013a24:	4107d79b          	sraiw	a5,a5,0x10
    60013a28:	00f767b3          	or	a5,a4,a5
    60013a2c:	0107979b          	slliw	a5,a5,0x10
    60013a30:	4107d79b          	sraiw	a5,a5,0x10
    60013a34:	03079793          	slli	a5,a5,0x30
    60013a38:	0307d793          	srli	a5,a5,0x30
    60013a3c:	0007879b          	sext.w	a5,a5
    60013a40:	0107979b          	slliw	a5,a5,0x10
    60013a44:	0007871b          	sext.w	a4,a5
    60013a48:	fec42783          	lw	a5,-20(s0)
    60013a4c:	00e7e7b3          	or	a5,a5,a4
    60013a50:	fef42623          	sw	a5,-20(s0)
    60013a54:	fec42783          	lw	a5,-20(s0)
    60013a58:	00078513          	mv	a0,a5
    60013a5c:	02813403          	ld	s0,40(sp)
    60013a60:	03010113          	addi	sp,sp,48
    60013a64:	00008067          	ret

0000000060013a68 <st_clust>:
    60013a68:	fe010113          	addi	sp,sp,-32
    60013a6c:	00813c23          	sd	s0,24(sp)
    60013a70:	02010413          	addi	s0,sp,32
    60013a74:	fea43423          	sd	a0,-24(s0)
    60013a78:	00058793          	mv	a5,a1
    60013a7c:	fef42223          	sw	a5,-28(s0)
    60013a80:	fe843783          	ld	a5,-24(s0)
    60013a84:	01a78793          	addi	a5,a5,26
    60013a88:	fe442703          	lw	a4,-28(s0)
    60013a8c:	0ff77713          	andi	a4,a4,255
    60013a90:	00e78023          	sb	a4,0(a5)
    60013a94:	fe442783          	lw	a5,-28(s0)
    60013a98:	03079793          	slli	a5,a5,0x30
    60013a9c:	0307d793          	srli	a5,a5,0x30
    60013aa0:	0087d79b          	srliw	a5,a5,0x8
    60013aa4:	03079713          	slli	a4,a5,0x30
    60013aa8:	03075713          	srli	a4,a4,0x30
    60013aac:	fe843783          	ld	a5,-24(s0)
    60013ab0:	01b78793          	addi	a5,a5,27
    60013ab4:	0ff77713          	andi	a4,a4,255
    60013ab8:	00e78023          	sb	a4,0(a5)
    60013abc:	fe442783          	lw	a5,-28(s0)
    60013ac0:	0107d79b          	srliw	a5,a5,0x10
    60013ac4:	0007871b          	sext.w	a4,a5
    60013ac8:	fe843783          	ld	a5,-24(s0)
    60013acc:	01478793          	addi	a5,a5,20
    60013ad0:	0ff77713          	andi	a4,a4,255
    60013ad4:	00e78023          	sb	a4,0(a5)
    60013ad8:	fe442783          	lw	a5,-28(s0)
    60013adc:	0107d79b          	srliw	a5,a5,0x10
    60013ae0:	0007879b          	sext.w	a5,a5
    60013ae4:	03079793          	slli	a5,a5,0x30
    60013ae8:	0307d793          	srli	a5,a5,0x30
    60013aec:	0087d79b          	srliw	a5,a5,0x8
    60013af0:	03079713          	slli	a4,a5,0x30
    60013af4:	03075713          	srli	a4,a4,0x30
    60013af8:	fe843783          	ld	a5,-24(s0)
    60013afc:	01578793          	addi	a5,a5,21
    60013b00:	0ff77713          	andi	a4,a4,255
    60013b04:	00e78023          	sb	a4,0(a5)
    60013b08:	00000013          	nop
    60013b0c:	01813403          	ld	s0,24(sp)
    60013b10:	02010113          	addi	sp,sp,32
    60013b14:	00008067          	ret

0000000060013b18 <dir_find>:
    60013b18:	fc010113          	addi	sp,sp,-64
    60013b1c:	02113c23          	sd	ra,56(sp)
    60013b20:	02813823          	sd	s0,48(sp)
    60013b24:	04010413          	addi	s0,sp,64
    60013b28:	fca43423          	sd	a0,-56(s0)
    60013b2c:	00000593          	li	a1,0
    60013b30:	fc843503          	ld	a0,-56(s0)
    60013b34:	f78ff0ef          	jal	ra,600132ac <dir_sdi>
    60013b38:	00050793          	mv	a5,a0
    60013b3c:	fef42623          	sw	a5,-20(s0)
    60013b40:	fec42783          	lw	a5,-20(s0)
    60013b44:	0007879b          	sext.w	a5,a5
    60013b48:	00078663          	beqz	a5,60013b54 <dir_find+0x3c>
    60013b4c:	fec42783          	lw	a5,-20(s0)
    60013b50:	0d40006f          	j	60013c24 <dir_find+0x10c>
    60013b54:	fc843783          	ld	a5,-56(s0)
    60013b58:	0007b703          	ld	a4,0(a5)
    60013b5c:	fc843783          	ld	a5,-56(s0)
    60013b60:	0147a783          	lw	a5,20(a5)
    60013b64:	00078593          	mv	a1,a5
    60013b68:	00070513          	mv	a0,a4
    60013b6c:	f6cfe0ef          	jal	ra,600122d8 <move_window>
    60013b70:	00050793          	mv	a5,a0
    60013b74:	fef42623          	sw	a5,-20(s0)
    60013b78:	fec42783          	lw	a5,-20(s0)
    60013b7c:	0007879b          	sext.w	a5,a5
    60013b80:	08079a63          	bnez	a5,60013c14 <dir_find+0xfc>
    60013b84:	fc843783          	ld	a5,-56(s0)
    60013b88:	0187b783          	ld	a5,24(a5)
    60013b8c:	fef43023          	sd	a5,-32(s0)
    60013b90:	fe043783          	ld	a5,-32(s0)
    60013b94:	0007c783          	lbu	a5,0(a5)
    60013b98:	fcf40fa3          	sb	a5,-33(s0)
    60013b9c:	fdf44783          	lbu	a5,-33(s0)
    60013ba0:	0ff7f793          	andi	a5,a5,255
    60013ba4:	00079863          	bnez	a5,60013bb4 <dir_find+0x9c>
    60013ba8:	00400793          	li	a5,4
    60013bac:	fef42623          	sw	a5,-20(s0)
    60013bb0:	0700006f          	j	60013c20 <dir_find+0x108>
    60013bb4:	fe043783          	ld	a5,-32(s0)
    60013bb8:	00b78793          	addi	a5,a5,11
    60013bbc:	0007c783          	lbu	a5,0(a5)
    60013bc0:	0007879b          	sext.w	a5,a5
    60013bc4:	0087f793          	andi	a5,a5,8
    60013bc8:	0007879b          	sext.w	a5,a5
    60013bcc:	02079263          	bnez	a5,60013bf0 <dir_find+0xd8>
    60013bd0:	fc843783          	ld	a5,-56(s0)
    60013bd4:	0207b783          	ld	a5,32(a5)
    60013bd8:	00b00613          	li	a2,11
    60013bdc:	00078593          	mv	a1,a5
    60013be0:	fe043503          	ld	a0,-32(s0)
    60013be4:	ce8fe0ef          	jal	ra,600120cc <mem_cmp>
    60013be8:	00050793          	mv	a5,a0
    60013bec:	02078863          	beqz	a5,60013c1c <dir_find+0x104>
    60013bf0:	00000593          	li	a1,0
    60013bf4:	fc843503          	ld	a0,-56(s0)
    60013bf8:	8edff0ef          	jal	ra,600134e4 <dir_next>
    60013bfc:	00050793          	mv	a5,a0
    60013c00:	fef42623          	sw	a5,-20(s0)
    60013c04:	fec42783          	lw	a5,-20(s0)
    60013c08:	0007879b          	sext.w	a5,a5
    60013c0c:	f40784e3          	beqz	a5,60013b54 <dir_find+0x3c>
    60013c10:	0100006f          	j	60013c20 <dir_find+0x108>
    60013c14:	00000013          	nop
    60013c18:	0080006f          	j	60013c20 <dir_find+0x108>
    60013c1c:	00000013          	nop
    60013c20:	fec42783          	lw	a5,-20(s0)
    60013c24:	00078513          	mv	a0,a5
    60013c28:	03813083          	ld	ra,56(sp)
    60013c2c:	03013403          	ld	s0,48(sp)
    60013c30:	04010113          	addi	sp,sp,64
    60013c34:	00008067          	ret

0000000060013c38 <dir_read>:
    60013c38:	fc010113          	addi	sp,sp,-64
    60013c3c:	02113c23          	sd	ra,56(sp)
    60013c40:	02813823          	sd	s0,48(sp)
    60013c44:	04010413          	addi	s0,sp,64
    60013c48:	fca43423          	sd	a0,-56(s0)
    60013c4c:	00058793          	mv	a5,a1
    60013c50:	fcf42223          	sw	a5,-60(s0)
    60013c54:	00400793          	li	a5,4
    60013c58:	fef42623          	sw	a5,-20(s0)
    60013c5c:	0ec0006f          	j	60013d48 <dir_read+0x110>
    60013c60:	fc843783          	ld	a5,-56(s0)
    60013c64:	0007b703          	ld	a4,0(a5)
    60013c68:	fc843783          	ld	a5,-56(s0)
    60013c6c:	0147a783          	lw	a5,20(a5)
    60013c70:	00078593          	mv	a1,a5
    60013c74:	00070513          	mv	a0,a4
    60013c78:	e60fe0ef          	jal	ra,600122d8 <move_window>
    60013c7c:	00050793          	mv	a5,a0
    60013c80:	fef42623          	sw	a5,-20(s0)
    60013c84:	fec42783          	lw	a5,-20(s0)
    60013c88:	0007879b          	sext.w	a5,a5
    60013c8c:	0c079663          	bnez	a5,60013d58 <dir_read+0x120>
    60013c90:	fc843783          	ld	a5,-56(s0)
    60013c94:	0187b783          	ld	a5,24(a5)
    60013c98:	fef43023          	sd	a5,-32(s0)
    60013c9c:	fe043783          	ld	a5,-32(s0)
    60013ca0:	0007c783          	lbu	a5,0(a5)
    60013ca4:	fcf40fa3          	sb	a5,-33(s0)
    60013ca8:	fdf44783          	lbu	a5,-33(s0)
    60013cac:	0ff7f793          	andi	a5,a5,255
    60013cb0:	00079863          	bnez	a5,60013cc0 <dir_read+0x88>
    60013cb4:	00400793          	li	a5,4
    60013cb8:	fef42623          	sw	a5,-20(s0)
    60013cbc:	0b00006f          	j	60013d6c <dir_read+0x134>
    60013cc0:	fe043783          	ld	a5,-32(s0)
    60013cc4:	00b78793          	addi	a5,a5,11
    60013cc8:	0007c783          	lbu	a5,0(a5)
    60013ccc:	03f7f793          	andi	a5,a5,63
    60013cd0:	fcf40f23          	sb	a5,-34(s0)
    60013cd4:	fdf44783          	lbu	a5,-33(s0)
    60013cd8:	0ff7f713          	andi	a4,a5,255
    60013cdc:	0e500793          	li	a5,229
    60013ce0:	04f70463          	beq	a4,a5,60013d28 <dir_read+0xf0>
    60013ce4:	fde44783          	lbu	a5,-34(s0)
    60013ce8:	0ff7f713          	andi	a4,a5,255
    60013cec:	00f00793          	li	a5,15
    60013cf0:	02f70c63          	beq	a4,a5,60013d28 <dir_read+0xf0>
    60013cf4:	fde44783          	lbu	a5,-34(s0)
    60013cf8:	0007879b          	sext.w	a5,a5
    60013cfc:	fdf7f793          	andi	a5,a5,-33
    60013d00:	0007879b          	sext.w	a5,a5
    60013d04:	00078713          	mv	a4,a5
    60013d08:	00800793          	li	a5,8
    60013d0c:	40f707b3          	sub	a5,a4,a5
    60013d10:	0017b793          	seqz	a5,a5
    60013d14:	0ff7f793          	andi	a5,a5,255
    60013d18:	0007871b          	sext.w	a4,a5
    60013d1c:	fc442783          	lw	a5,-60(s0)
    60013d20:	0007879b          	sext.w	a5,a5
    60013d24:	02e78e63          	beq	a5,a4,60013d60 <dir_read+0x128>
    60013d28:	00000593          	li	a1,0
    60013d2c:	fc843503          	ld	a0,-56(s0)
    60013d30:	fb4ff0ef          	jal	ra,600134e4 <dir_next>
    60013d34:	00050793          	mv	a5,a0
    60013d38:	fef42623          	sw	a5,-20(s0)
    60013d3c:	fec42783          	lw	a5,-20(s0)
    60013d40:	0007879b          	sext.w	a5,a5
    60013d44:	02079263          	bnez	a5,60013d68 <dir_read+0x130>
    60013d48:	fc843783          	ld	a5,-56(s0)
    60013d4c:	0147a783          	lw	a5,20(a5)
    60013d50:	f00798e3          	bnez	a5,60013c60 <dir_read+0x28>
    60013d54:	0180006f          	j	60013d6c <dir_read+0x134>
    60013d58:	00000013          	nop
    60013d5c:	0100006f          	j	60013d6c <dir_read+0x134>
    60013d60:	00000013          	nop
    60013d64:	0080006f          	j	60013d6c <dir_read+0x134>
    60013d68:	00000013          	nop
    60013d6c:	fec42783          	lw	a5,-20(s0)
    60013d70:	0007879b          	sext.w	a5,a5
    60013d74:	00078663          	beqz	a5,60013d80 <dir_read+0x148>
    60013d78:	fc843783          	ld	a5,-56(s0)
    60013d7c:	0007aa23          	sw	zero,20(a5)
    60013d80:	fec42783          	lw	a5,-20(s0)
    60013d84:	00078513          	mv	a0,a5
    60013d88:	03813083          	ld	ra,56(sp)
    60013d8c:	03013403          	ld	s0,48(sp)
    60013d90:	04010113          	addi	sp,sp,64
    60013d94:	00008067          	ret

0000000060013d98 <dir_register>:
    60013d98:	fd010113          	addi	sp,sp,-48
    60013d9c:	02113423          	sd	ra,40(sp)
    60013da0:	02813023          	sd	s0,32(sp)
    60013da4:	03010413          	addi	s0,sp,48
    60013da8:	fca43c23          	sd	a0,-40(s0)
    60013dac:	00100593          	li	a1,1
    60013db0:	fd843503          	ld	a0,-40(s0)
    60013db4:	aadff0ef          	jal	ra,60013860 <dir_alloc>
    60013db8:	00050793          	mv	a5,a0
    60013dbc:	fef42623          	sw	a5,-20(s0)
    60013dc0:	fec42783          	lw	a5,-20(s0)
    60013dc4:	0007879b          	sext.w	a5,a5
    60013dc8:	06079e63          	bnez	a5,60013e44 <dir_register+0xac>
    60013dcc:	fd843783          	ld	a5,-40(s0)
    60013dd0:	0007b703          	ld	a4,0(a5)
    60013dd4:	fd843783          	ld	a5,-40(s0)
    60013dd8:	0147a783          	lw	a5,20(a5)
    60013ddc:	00078593          	mv	a1,a5
    60013de0:	00070513          	mv	a0,a4
    60013de4:	cf4fe0ef          	jal	ra,600122d8 <move_window>
    60013de8:	00050793          	mv	a5,a0
    60013dec:	fef42623          	sw	a5,-20(s0)
    60013df0:	fec42783          	lw	a5,-20(s0)
    60013df4:	0007879b          	sext.w	a5,a5
    60013df8:	04079663          	bnez	a5,60013e44 <dir_register+0xac>
    60013dfc:	fd843783          	ld	a5,-40(s0)
    60013e00:	0187b783          	ld	a5,24(a5)
    60013e04:	02000613          	li	a2,32
    60013e08:	00000593          	li	a1,0
    60013e0c:	00078513          	mv	a0,a5
    60013e10:	a54fe0ef          	jal	ra,60012064 <mem_set>
    60013e14:	fd843783          	ld	a5,-40(s0)
    60013e18:	0187b703          	ld	a4,24(a5)
    60013e1c:	fd843783          	ld	a5,-40(s0)
    60013e20:	0207b783          	ld	a5,32(a5)
    60013e24:	00b00613          	li	a2,11
    60013e28:	00078593          	mv	a1,a5
    60013e2c:	00070513          	mv	a0,a4
    60013e30:	9c4fe0ef          	jal	ra,60011ff4 <mem_cpy>
    60013e34:	fd843783          	ld	a5,-40(s0)
    60013e38:	0007b783          	ld	a5,0(a5)
    60013e3c:	00100713          	li	a4,1
    60013e40:	00e78223          	sb	a4,4(a5)
    60013e44:	fec42783          	lw	a5,-20(s0)
    60013e48:	00078513          	mv	a0,a5
    60013e4c:	02813083          	ld	ra,40(sp)
    60013e50:	02013403          	ld	s0,32(sp)
    60013e54:	03010113          	addi	sp,sp,48
    60013e58:	00008067          	ret

0000000060013e5c <dir_remove>:
    60013e5c:	fd010113          	addi	sp,sp,-48
    60013e60:	02113423          	sd	ra,40(sp)
    60013e64:	02813023          	sd	s0,32(sp)
    60013e68:	03010413          	addi	s0,sp,48
    60013e6c:	fca43c23          	sd	a0,-40(s0)
    60013e70:	fd843783          	ld	a5,-40(s0)
    60013e74:	00a7d783          	lhu	a5,10(a5)
    60013e78:	0007879b          	sext.w	a5,a5
    60013e7c:	00078593          	mv	a1,a5
    60013e80:	fd843503          	ld	a0,-40(s0)
    60013e84:	c28ff0ef          	jal	ra,600132ac <dir_sdi>
    60013e88:	00050793          	mv	a5,a0
    60013e8c:	fef42623          	sw	a5,-20(s0)
    60013e90:	fec42783          	lw	a5,-20(s0)
    60013e94:	0007879b          	sext.w	a5,a5
    60013e98:	06079663          	bnez	a5,60013f04 <dir_remove+0xa8>
    60013e9c:	fd843783          	ld	a5,-40(s0)
    60013ea0:	0007b703          	ld	a4,0(a5)
    60013ea4:	fd843783          	ld	a5,-40(s0)
    60013ea8:	0147a783          	lw	a5,20(a5)
    60013eac:	00078593          	mv	a1,a5
    60013eb0:	00070513          	mv	a0,a4
    60013eb4:	c24fe0ef          	jal	ra,600122d8 <move_window>
    60013eb8:	00050793          	mv	a5,a0
    60013ebc:	fef42623          	sw	a5,-20(s0)
    60013ec0:	fec42783          	lw	a5,-20(s0)
    60013ec4:	0007879b          	sext.w	a5,a5
    60013ec8:	02079e63          	bnez	a5,60013f04 <dir_remove+0xa8>
    60013ecc:	fd843783          	ld	a5,-40(s0)
    60013ed0:	0187b783          	ld	a5,24(a5)
    60013ed4:	02000613          	li	a2,32
    60013ed8:	00000593          	li	a1,0
    60013edc:	00078513          	mv	a0,a5
    60013ee0:	984fe0ef          	jal	ra,60012064 <mem_set>
    60013ee4:	fd843783          	ld	a5,-40(s0)
    60013ee8:	0187b783          	ld	a5,24(a5)
    60013eec:	fe500713          	li	a4,-27
    60013ef0:	00e78023          	sb	a4,0(a5)
    60013ef4:	fd843783          	ld	a5,-40(s0)
    60013ef8:	0007b783          	ld	a5,0(a5)
    60013efc:	00100713          	li	a4,1
    60013f00:	00e78223          	sb	a4,4(a5)
    60013f04:	fec42783          	lw	a5,-20(s0)
    60013f08:	00078513          	mv	a0,a5
    60013f0c:	02813083          	ld	ra,40(sp)
    60013f10:	02013403          	ld	s0,32(sp)
    60013f14:	03010113          	addi	sp,sp,48
    60013f18:	00008067          	ret

0000000060013f1c <get_fileinfo>:
    60013f1c:	fc010113          	addi	sp,sp,-64
    60013f20:	02813c23          	sd	s0,56(sp)
    60013f24:	04010413          	addi	s0,sp,64
    60013f28:	fca43423          	sd	a0,-56(s0)
    60013f2c:	fcb43023          	sd	a1,-64(s0)
    60013f30:	fc043783          	ld	a5,-64(s0)
    60013f34:	00978793          	addi	a5,a5,9
    60013f38:	fef43023          	sd	a5,-32(s0)
    60013f3c:	fc843783          	ld	a5,-56(s0)
    60013f40:	0147a783          	lw	a5,20(a5)
    60013f44:	1c078e63          	beqz	a5,60014120 <get_fileinfo+0x204>
    60013f48:	fc843783          	ld	a5,-56(s0)
    60013f4c:	0187b783          	ld	a5,24(a5)
    60013f50:	fcf43823          	sd	a5,-48(s0)
    60013f54:	fe042623          	sw	zero,-20(s0)
    60013f58:	08c0006f          	j	60013fe4 <get_fileinfo+0xc8>
    60013f5c:	fec42783          	lw	a5,-20(s0)
    60013f60:	0017871b          	addiw	a4,a5,1
    60013f64:	fee42623          	sw	a4,-20(s0)
    60013f68:	02079793          	slli	a5,a5,0x20
    60013f6c:	0207d793          	srli	a5,a5,0x20
    60013f70:	fd043703          	ld	a4,-48(s0)
    60013f74:	00f707b3          	add	a5,a4,a5
    60013f78:	0007c783          	lbu	a5,0(a5)
    60013f7c:	fcf40fa3          	sb	a5,-33(s0)
    60013f80:	fdf44783          	lbu	a5,-33(s0)
    60013f84:	0ff7f713          	andi	a4,a5,255
    60013f88:	02000793          	li	a5,32
    60013f8c:	00f71463          	bne	a4,a5,60013f94 <get_fileinfo+0x78>
    60013f90:	0540006f          	j	60013fe4 <get_fileinfo+0xc8>
    60013f94:	fdf44783          	lbu	a5,-33(s0)
    60013f98:	0ff7f713          	andi	a4,a5,255
    60013f9c:	00500793          	li	a5,5
    60013fa0:	00f71663          	bne	a4,a5,60013fac <get_fileinfo+0x90>
    60013fa4:	fe500793          	li	a5,-27
    60013fa8:	fcf40fa3          	sb	a5,-33(s0)
    60013fac:	fec42783          	lw	a5,-20(s0)
    60013fb0:	0007871b          	sext.w	a4,a5
    60013fb4:	00900793          	li	a5,9
    60013fb8:	00f71c63          	bne	a4,a5,60013fd0 <get_fileinfo+0xb4>
    60013fbc:	fe043783          	ld	a5,-32(s0)
    60013fc0:	00178713          	addi	a4,a5,1
    60013fc4:	fee43023          	sd	a4,-32(s0)
    60013fc8:	02e00713          	li	a4,46
    60013fcc:	00e78023          	sb	a4,0(a5)
    60013fd0:	fe043783          	ld	a5,-32(s0)
    60013fd4:	00178713          	addi	a4,a5,1
    60013fd8:	fee43023          	sd	a4,-32(s0)
    60013fdc:	fdf44703          	lbu	a4,-33(s0)
    60013fe0:	00e78023          	sb	a4,0(a5)
    60013fe4:	fec42783          	lw	a5,-20(s0)
    60013fe8:	0007871b          	sext.w	a4,a5
    60013fec:	00a00793          	li	a5,10
    60013ff0:	f6e7f6e3          	bgeu	a5,a4,60013f5c <get_fileinfo+0x40>
    60013ff4:	fd043783          	ld	a5,-48(s0)
    60013ff8:	00b7c703          	lbu	a4,11(a5)
    60013ffc:	fc043783          	ld	a5,-64(s0)
    60014000:	00e78423          	sb	a4,8(a5)
    60014004:	fd043783          	ld	a5,-48(s0)
    60014008:	01f78793          	addi	a5,a5,31
    6001400c:	0007c783          	lbu	a5,0(a5)
    60014010:	0007879b          	sext.w	a5,a5
    60014014:	0187979b          	slliw	a5,a5,0x18
    60014018:	0007871b          	sext.w	a4,a5
    6001401c:	fd043783          	ld	a5,-48(s0)
    60014020:	01e78793          	addi	a5,a5,30
    60014024:	0007c783          	lbu	a5,0(a5)
    60014028:	0007879b          	sext.w	a5,a5
    6001402c:	0107979b          	slliw	a5,a5,0x10
    60014030:	0007879b          	sext.w	a5,a5
    60014034:	00f767b3          	or	a5,a4,a5
    60014038:	0007871b          	sext.w	a4,a5
    6001403c:	fd043783          	ld	a5,-48(s0)
    60014040:	01d78793          	addi	a5,a5,29
    60014044:	0007c783          	lbu	a5,0(a5)
    60014048:	0007879b          	sext.w	a5,a5
    6001404c:	0087979b          	slliw	a5,a5,0x8
    60014050:	0007879b          	sext.w	a5,a5
    60014054:	0007879b          	sext.w	a5,a5
    60014058:	00f767b3          	or	a5,a4,a5
    6001405c:	0007871b          	sext.w	a4,a5
    60014060:	fd043783          	ld	a5,-48(s0)
    60014064:	01c78793          	addi	a5,a5,28
    60014068:	0007c783          	lbu	a5,0(a5)
    6001406c:	0007879b          	sext.w	a5,a5
    60014070:	00f767b3          	or	a5,a4,a5
    60014074:	0007871b          	sext.w	a4,a5
    60014078:	fc043783          	ld	a5,-64(s0)
    6001407c:	00e7a023          	sw	a4,0(a5)
    60014080:	fd043783          	ld	a5,-48(s0)
    60014084:	01978793          	addi	a5,a5,25
    60014088:	0007c783          	lbu	a5,0(a5)
    6001408c:	0007879b          	sext.w	a5,a5
    60014090:	0087979b          	slliw	a5,a5,0x8
    60014094:	0007879b          	sext.w	a5,a5
    60014098:	0107971b          	slliw	a4,a5,0x10
    6001409c:	4107571b          	sraiw	a4,a4,0x10
    600140a0:	fd043783          	ld	a5,-48(s0)
    600140a4:	01878793          	addi	a5,a5,24
    600140a8:	0007c783          	lbu	a5,0(a5)
    600140ac:	0107979b          	slliw	a5,a5,0x10
    600140b0:	4107d79b          	sraiw	a5,a5,0x10
    600140b4:	00f767b3          	or	a5,a4,a5
    600140b8:	0107979b          	slliw	a5,a5,0x10
    600140bc:	4107d79b          	sraiw	a5,a5,0x10
    600140c0:	03079713          	slli	a4,a5,0x30
    600140c4:	03075713          	srli	a4,a4,0x30
    600140c8:	fc043783          	ld	a5,-64(s0)
    600140cc:	00e79223          	sh	a4,4(a5)
    600140d0:	fd043783          	ld	a5,-48(s0)
    600140d4:	01778793          	addi	a5,a5,23
    600140d8:	0007c783          	lbu	a5,0(a5)
    600140dc:	0007879b          	sext.w	a5,a5
    600140e0:	0087979b          	slliw	a5,a5,0x8
    600140e4:	0007879b          	sext.w	a5,a5
    600140e8:	0107971b          	slliw	a4,a5,0x10
    600140ec:	4107571b          	sraiw	a4,a4,0x10
    600140f0:	fd043783          	ld	a5,-48(s0)
    600140f4:	01678793          	addi	a5,a5,22
    600140f8:	0007c783          	lbu	a5,0(a5)
    600140fc:	0107979b          	slliw	a5,a5,0x10
    60014100:	4107d79b          	sraiw	a5,a5,0x10
    60014104:	00f767b3          	or	a5,a4,a5
    60014108:	0107979b          	slliw	a5,a5,0x10
    6001410c:	4107d79b          	sraiw	a5,a5,0x10
    60014110:	03079713          	slli	a4,a5,0x30
    60014114:	03075713          	srli	a4,a4,0x30
    60014118:	fc043783          	ld	a5,-64(s0)
    6001411c:	00e79323          	sh	a4,6(a5)
    60014120:	fe043783          	ld	a5,-32(s0)
    60014124:	00078023          	sb	zero,0(a5)
    60014128:	00000013          	nop
    6001412c:	03813403          	ld	s0,56(sp)
    60014130:	04010113          	addi	sp,sp,64
    60014134:	00008067          	ret

0000000060014138 <create_name>:
    60014138:	fc010113          	addi	sp,sp,-64
    6001413c:	02113c23          	sd	ra,56(sp)
    60014140:	02813823          	sd	s0,48(sp)
    60014144:	04010413          	addi	s0,sp,64
    60014148:	fca43423          	sd	a0,-56(s0)
    6001414c:	fcb43023          	sd	a1,-64(s0)
    60014150:	fc043783          	ld	a5,-64(s0)
    60014154:	0007b783          	ld	a5,0(a5)
    60014158:	fcf43c23          	sd	a5,-40(s0)
    6001415c:	0100006f          	j	6001416c <create_name+0x34>
    60014160:	fd843783          	ld	a5,-40(s0)
    60014164:	00178793          	addi	a5,a5,1
    60014168:	fcf43c23          	sd	a5,-40(s0)
    6001416c:	fd843783          	ld	a5,-40(s0)
    60014170:	0007c783          	lbu	a5,0(a5)
    60014174:	00078713          	mv	a4,a5
    60014178:	02f00793          	li	a5,47
    6001417c:	fef702e3          	beq	a4,a5,60014160 <create_name+0x28>
    60014180:	fd843783          	ld	a5,-40(s0)
    60014184:	0007c783          	lbu	a5,0(a5)
    60014188:	00078713          	mv	a4,a5
    6001418c:	05c00793          	li	a5,92
    60014190:	fcf708e3          	beq	a4,a5,60014160 <create_name+0x28>
    60014194:	fc843783          	ld	a5,-56(s0)
    60014198:	0207b783          	ld	a5,32(a5)
    6001419c:	fcf43823          	sd	a5,-48(s0)
    600141a0:	00b00613          	li	a2,11
    600141a4:	02000593          	li	a1,32
    600141a8:	fd043503          	ld	a0,-48(s0)
    600141ac:	eb9fd0ef          	jal	ra,60012064 <mem_set>
    600141b0:	fe0407a3          	sb	zero,-17(s0)
    600141b4:	fe042023          	sw	zero,-32(s0)
    600141b8:	fe042783          	lw	a5,-32(s0)
    600141bc:	fef42223          	sw	a5,-28(s0)
    600141c0:	00800793          	li	a5,8
    600141c4:	fef42423          	sw	a5,-24(s0)
    600141c8:	fe446783          	lwu	a5,-28(s0)
    600141cc:	fd843703          	ld	a4,-40(s0)
    600141d0:	00f707b3          	add	a5,a4,a5
    600141d4:	0007c783          	lbu	a5,0(a5)
    600141d8:	00078713          	mv	a4,a5
    600141dc:	02e00793          	li	a5,46
    600141e0:	0ef71663          	bne	a4,a5,600142cc <create_name+0x194>
    600141e4:	fe442783          	lw	a5,-28(s0)
    600141e8:	0017871b          	addiw	a4,a5,1
    600141ec:	fee42223          	sw	a4,-28(s0)
    600141f0:	02079793          	slli	a5,a5,0x20
    600141f4:	0207d793          	srli	a5,a5,0x20
    600141f8:	fd843703          	ld	a4,-40(s0)
    600141fc:	00f707b3          	add	a5,a4,a5
    60014200:	0007c783          	lbu	a5,0(a5)
    60014204:	fef40723          	sb	a5,-18(s0)
    60014208:	fee44783          	lbu	a5,-18(s0)
    6001420c:	0ff7f713          	andi	a4,a5,255
    60014210:	02e00793          	li	a5,46
    60014214:	02f71e63          	bne	a4,a5,60014250 <create_name+0x118>
    60014218:	fe442783          	lw	a5,-28(s0)
    6001421c:	0007871b          	sext.w	a4,a5
    60014220:	00200793          	li	a5,2
    60014224:	02e7e663          	bltu	a5,a4,60014250 <create_name+0x118>
    60014228:	fe042783          	lw	a5,-32(s0)
    6001422c:	0017871b          	addiw	a4,a5,1
    60014230:	fee42023          	sw	a4,-32(s0)
    60014234:	02079793          	slli	a5,a5,0x20
    60014238:	0207d793          	srli	a5,a5,0x20
    6001423c:	fd043703          	ld	a4,-48(s0)
    60014240:	00f707b3          	add	a5,a4,a5
    60014244:	fee44703          	lbu	a4,-18(s0)
    60014248:	00e78023          	sb	a4,0(a5)
    6001424c:	f99ff06f          	j	600141e4 <create_name+0xac>
    60014250:	fee44783          	lbu	a5,-18(s0)
    60014254:	0ff7f713          	andi	a4,a5,255
    60014258:	02f00793          	li	a5,47
    6001425c:	02f70663          	beq	a4,a5,60014288 <create_name+0x150>
    60014260:	fee44783          	lbu	a5,-18(s0)
    60014264:	0ff7f713          	andi	a4,a5,255
    60014268:	05c00793          	li	a5,92
    6001426c:	00f70e63          	beq	a4,a5,60014288 <create_name+0x150>
    60014270:	fee44783          	lbu	a5,-18(s0)
    60014274:	0ff7f713          	andi	a4,a5,255
    60014278:	02000793          	li	a5,32
    6001427c:	00e7f663          	bgeu	a5,a4,60014288 <create_name+0x150>
    60014280:	00600793          	li	a5,6
    60014284:	2c40006f          	j	60014548 <create_name+0x410>
    60014288:	fe446783          	lwu	a5,-28(s0)
    6001428c:	fd843703          	ld	a4,-40(s0)
    60014290:	00f70733          	add	a4,a4,a5
    60014294:	fc043783          	ld	a5,-64(s0)
    60014298:	00e7b023          	sd	a4,0(a5)
    6001429c:	fee44783          	lbu	a5,-18(s0)
    600142a0:	0ff7f713          	andi	a4,a5,255
    600142a4:	02000793          	li	a5,32
    600142a8:	00e7e663          	bltu	a5,a4,600142b4 <create_name+0x17c>
    600142ac:	02400793          	li	a5,36
    600142b0:	0080006f          	j	600142b8 <create_name+0x180>
    600142b4:	02000793          	li	a5,32
    600142b8:	fd043703          	ld	a4,-48(s0)
    600142bc:	00b70713          	addi	a4,a4,11
    600142c0:	00f70023          	sb	a5,0(a4)
    600142c4:	00000793          	li	a5,0
    600142c8:	2800006f          	j	60014548 <create_name+0x410>
    600142cc:	fe442783          	lw	a5,-28(s0)
    600142d0:	0017871b          	addiw	a4,a5,1
    600142d4:	fee42223          	sw	a4,-28(s0)
    600142d8:	02079793          	slli	a5,a5,0x20
    600142dc:	0207d793          	srli	a5,a5,0x20
    600142e0:	fd843703          	ld	a4,-40(s0)
    600142e4:	00f707b3          	add	a5,a4,a5
    600142e8:	0007c783          	lbu	a5,0(a5)
    600142ec:	fef40723          	sb	a5,-18(s0)
    600142f0:	fee44783          	lbu	a5,-18(s0)
    600142f4:	0ff7f713          	andi	a4,a5,255
    600142f8:	02000793          	li	a5,32
    600142fc:	16e7f263          	bgeu	a5,a4,60014460 <create_name+0x328>
    60014300:	fee44783          	lbu	a5,-18(s0)
    60014304:	0ff7f713          	andi	a4,a5,255
    60014308:	02f00793          	li	a5,47
    6001430c:	14f70a63          	beq	a4,a5,60014460 <create_name+0x328>
    60014310:	fee44783          	lbu	a5,-18(s0)
    60014314:	0ff7f713          	andi	a4,a5,255
    60014318:	05c00793          	li	a5,92
    6001431c:	14f70263          	beq	a4,a5,60014460 <create_name+0x328>
    60014320:	fee44783          	lbu	a5,-18(s0)
    60014324:	0ff7f713          	andi	a4,a5,255
    60014328:	02e00793          	li	a5,46
    6001432c:	00f70c63          	beq	a4,a5,60014344 <create_name+0x20c>
    60014330:	fe042703          	lw	a4,-32(s0)
    60014334:	fe842783          	lw	a5,-24(s0)
    60014338:	0007071b          	sext.w	a4,a4
    6001433c:	0007879b          	sext.w	a5,a5
    60014340:	04f76663          	bltu	a4,a5,6001438c <create_name+0x254>
    60014344:	fe842783          	lw	a5,-24(s0)
    60014348:	0007871b          	sext.w	a4,a5
    6001434c:	00800793          	li	a5,8
    60014350:	00f71a63          	bne	a4,a5,60014364 <create_name+0x22c>
    60014354:	fee44783          	lbu	a5,-18(s0)
    60014358:	0ff7f713          	andi	a4,a5,255
    6001435c:	02e00793          	li	a5,46
    60014360:	00f70663          	beq	a4,a5,6001436c <create_name+0x234>
    60014364:	00600793          	li	a5,6
    60014368:	1e00006f          	j	60014548 <create_name+0x410>
    6001436c:	00800793          	li	a5,8
    60014370:	fef42023          	sw	a5,-32(s0)
    60014374:	00b00793          	li	a5,11
    60014378:	fef42423          	sw	a5,-24(s0)
    6001437c:	fef44783          	lbu	a5,-17(s0)
    60014380:	0027979b          	slliw	a5,a5,0x2
    60014384:	fef407a3          	sb	a5,-17(s0)
    60014388:	0d40006f          	j	6001445c <create_name+0x324>
    6001438c:	fee40783          	lb	a5,-18(s0)
    60014390:	0007dc63          	bgez	a5,600143a8 <create_name+0x270>
    60014394:	fef44783          	lbu	a5,-17(s0)
    60014398:	0037e793          	ori	a5,a5,3
    6001439c:	fef407a3          	sb	a5,-17(s0)
    600143a0:	00600793          	li	a5,6
    600143a4:	1a40006f          	j	60014548 <create_name+0x410>
    600143a8:	fee44783          	lbu	a5,-18(s0)
    600143ac:	0007879b          	sext.w	a5,a5
    600143b0:	00078593          	mv	a1,a5
    600143b4:	6001a7b7          	lui	a5,0x6001a
    600143b8:	29878513          	addi	a0,a5,664 # 6001a298 <get_flash_base+0x1128>
    600143bc:	da5fd0ef          	jal	ra,60012160 <chk_chr>
    600143c0:	00050793          	mv	a5,a0
    600143c4:	00078663          	beqz	a5,600143d0 <create_name+0x298>
    600143c8:	00600793          	li	a5,6
    600143cc:	17c0006f          	j	60014548 <create_name+0x410>
    600143d0:	fee44783          	lbu	a5,-18(s0)
    600143d4:	0ff7f713          	andi	a4,a5,255
    600143d8:	04000793          	li	a5,64
    600143dc:	02e7f263          	bgeu	a5,a4,60014400 <create_name+0x2c8>
    600143e0:	fee44783          	lbu	a5,-18(s0)
    600143e4:	0ff7f713          	andi	a4,a5,255
    600143e8:	05a00793          	li	a5,90
    600143ec:	00e7ea63          	bltu	a5,a4,60014400 <create_name+0x2c8>
    600143f0:	fef44783          	lbu	a5,-17(s0)
    600143f4:	0027e793          	ori	a5,a5,2
    600143f8:	fef407a3          	sb	a5,-17(s0)
    600143fc:	03c0006f          	j	60014438 <create_name+0x300>
    60014400:	fee44783          	lbu	a5,-18(s0)
    60014404:	0ff7f713          	andi	a4,a5,255
    60014408:	06000793          	li	a5,96
    6001440c:	02e7f663          	bgeu	a5,a4,60014438 <create_name+0x300>
    60014410:	fee44783          	lbu	a5,-18(s0)
    60014414:	0ff7f713          	andi	a4,a5,255
    60014418:	07a00793          	li	a5,122
    6001441c:	00e7ee63          	bltu	a5,a4,60014438 <create_name+0x300>
    60014420:	fef44783          	lbu	a5,-17(s0)
    60014424:	0017e793          	ori	a5,a5,1
    60014428:	fef407a3          	sb	a5,-17(s0)
    6001442c:	fee44783          	lbu	a5,-18(s0)
    60014430:	fe07879b          	addiw	a5,a5,-32
    60014434:	fef40723          	sb	a5,-18(s0)
    60014438:	fe042783          	lw	a5,-32(s0)
    6001443c:	0017871b          	addiw	a4,a5,1
    60014440:	fee42023          	sw	a4,-32(s0)
    60014444:	02079793          	slli	a5,a5,0x20
    60014448:	0207d793          	srli	a5,a5,0x20
    6001444c:	fd043703          	ld	a4,-48(s0)
    60014450:	00f707b3          	add	a5,a4,a5
    60014454:	fee44703          	lbu	a4,-18(s0)
    60014458:	00e78023          	sb	a4,0(a5)
    6001445c:	e71ff06f          	j	600142cc <create_name+0x194>
    60014460:	fe446783          	lwu	a5,-28(s0)
    60014464:	fd843703          	ld	a4,-40(s0)
    60014468:	00f70733          	add	a4,a4,a5
    6001446c:	fc043783          	ld	a5,-64(s0)
    60014470:	00e7b023          	sd	a4,0(a5)
    60014474:	fee44783          	lbu	a5,-18(s0)
    60014478:	0ff7f713          	andi	a4,a5,255
    6001447c:	02000793          	li	a5,32
    60014480:	00e7e663          	bltu	a5,a4,6001448c <create_name+0x354>
    60014484:	00400793          	li	a5,4
    60014488:	0080006f          	j	60014490 <create_name+0x358>
    6001448c:	00000793          	li	a5,0
    60014490:	fef40723          	sb	a5,-18(s0)
    60014494:	fe042783          	lw	a5,-32(s0)
    60014498:	0007879b          	sext.w	a5,a5
    6001449c:	00079663          	bnez	a5,600144a8 <create_name+0x370>
    600144a0:	00600793          	li	a5,6
    600144a4:	0a40006f          	j	60014548 <create_name+0x410>
    600144a8:	fd043783          	ld	a5,-48(s0)
    600144ac:	0007c783          	lbu	a5,0(a5)
    600144b0:	00078713          	mv	a4,a5
    600144b4:	0e500793          	li	a5,229
    600144b8:	00f71863          	bne	a4,a5,600144c8 <create_name+0x390>
    600144bc:	fd043783          	ld	a5,-48(s0)
    600144c0:	00500713          	li	a4,5
    600144c4:	00e78023          	sb	a4,0(a5)
    600144c8:	fe842783          	lw	a5,-24(s0)
    600144cc:	0007871b          	sext.w	a4,a5
    600144d0:	00800793          	li	a5,8
    600144d4:	00f71863          	bne	a4,a5,600144e4 <create_name+0x3ac>
    600144d8:	fef44783          	lbu	a5,-17(s0)
    600144dc:	0027979b          	slliw	a5,a5,0x2
    600144e0:	fef407a3          	sb	a5,-17(s0)
    600144e4:	fef44783          	lbu	a5,-17(s0)
    600144e8:	0007879b          	sext.w	a5,a5
    600144ec:	0037f793          	andi	a5,a5,3
    600144f0:	0007879b          	sext.w	a5,a5
    600144f4:	00078713          	mv	a4,a5
    600144f8:	00100793          	li	a5,1
    600144fc:	00f71863          	bne	a4,a5,6001450c <create_name+0x3d4>
    60014500:	fee44783          	lbu	a5,-18(s0)
    60014504:	0107e793          	ori	a5,a5,16
    60014508:	fef40723          	sb	a5,-18(s0)
    6001450c:	fef44783          	lbu	a5,-17(s0)
    60014510:	0007879b          	sext.w	a5,a5
    60014514:	00c7f793          	andi	a5,a5,12
    60014518:	0007879b          	sext.w	a5,a5
    6001451c:	00078713          	mv	a4,a5
    60014520:	00400793          	li	a5,4
    60014524:	00f71863          	bne	a4,a5,60014534 <create_name+0x3fc>
    60014528:	fee44783          	lbu	a5,-18(s0)
    6001452c:	0087e793          	ori	a5,a5,8
    60014530:	fef40723          	sb	a5,-18(s0)
    60014534:	fd043783          	ld	a5,-48(s0)
    60014538:	00b78793          	addi	a5,a5,11
    6001453c:	fee44703          	lbu	a4,-18(s0)
    60014540:	00e78023          	sb	a4,0(a5)
    60014544:	00000793          	li	a5,0
    60014548:	00078513          	mv	a0,a5
    6001454c:	03813083          	ld	ra,56(sp)
    60014550:	03013403          	ld	s0,48(sp)
    60014554:	04010113          	addi	sp,sp,64
    60014558:	00008067          	ret

000000006001455c <follow_path>:
    6001455c:	fd010113          	addi	sp,sp,-48
    60014560:	02113423          	sd	ra,40(sp)
    60014564:	02813023          	sd	s0,32(sp)
    60014568:	03010413          	addi	s0,sp,48
    6001456c:	fca43c23          	sd	a0,-40(s0)
    60014570:	fcb43823          	sd	a1,-48(s0)
    60014574:	fd043783          	ld	a5,-48(s0)
    60014578:	0007c783          	lbu	a5,0(a5)
    6001457c:	00078713          	mv	a4,a5
    60014580:	02f00793          	li	a5,47
    60014584:	00f70c63          	beq	a4,a5,6001459c <follow_path+0x40>
    60014588:	fd043783          	ld	a5,-48(s0)
    6001458c:	0007c783          	lbu	a5,0(a5)
    60014590:	00078713          	mv	a4,a5
    60014594:	05c00793          	li	a5,92
    60014598:	00f71e63          	bne	a4,a5,600145b4 <follow_path+0x58>
    6001459c:	fd043783          	ld	a5,-48(s0)
    600145a0:	00178793          	addi	a5,a5,1
    600145a4:	fcf43823          	sd	a5,-48(s0)
    600145a8:	fd843783          	ld	a5,-40(s0)
    600145ac:	0007a623          	sw	zero,12(a5)
    600145b0:	0180006f          	j	600145c8 <follow_path+0x6c>
    600145b4:	fd843783          	ld	a5,-40(s0)
    600145b8:	0007b783          	ld	a5,0(a5)
    600145bc:	0147a703          	lw	a4,20(a5)
    600145c0:	fd843783          	ld	a5,-40(s0)
    600145c4:	00e7a623          	sw	a4,12(a5)
    600145c8:	fd043783          	ld	a5,-48(s0)
    600145cc:	0007c783          	lbu	a5,0(a5)
    600145d0:	00078713          	mv	a4,a5
    600145d4:	01f00793          	li	a5,31
    600145d8:	02e7e263          	bltu	a5,a4,600145fc <follow_path+0xa0>
    600145dc:	00000593          	li	a1,0
    600145e0:	fd843503          	ld	a0,-40(s0)
    600145e4:	cc9fe0ef          	jal	ra,600132ac <dir_sdi>
    600145e8:	00050793          	mv	a5,a0
    600145ec:	fef42623          	sw	a5,-20(s0)
    600145f0:	fd843783          	ld	a5,-40(s0)
    600145f4:	0007bc23          	sd	zero,24(a5)
    600145f8:	1500006f          	j	60014748 <follow_path+0x1ec>
    600145fc:	fd040793          	addi	a5,s0,-48
    60014600:	00078593          	mv	a1,a5
    60014604:	fd843503          	ld	a0,-40(s0)
    60014608:	b31ff0ef          	jal	ra,60014138 <create_name>
    6001460c:	00050793          	mv	a5,a0
    60014610:	fef42623          	sw	a5,-20(s0)
    60014614:	fec42783          	lw	a5,-20(s0)
    60014618:	0007879b          	sext.w	a5,a5
    6001461c:	10079c63          	bnez	a5,60014734 <follow_path+0x1d8>
    60014620:	fd843503          	ld	a0,-40(s0)
    60014624:	cf4ff0ef          	jal	ra,60013b18 <dir_find>
    60014628:	00050793          	mv	a5,a0
    6001462c:	fef42623          	sw	a5,-20(s0)
    60014630:	fd843783          	ld	a5,-40(s0)
    60014634:	0207b783          	ld	a5,32(a5)
    60014638:	00b7c783          	lbu	a5,11(a5)
    6001463c:	fef405a3          	sb	a5,-21(s0)
    60014640:	fec42783          	lw	a5,-20(s0)
    60014644:	0007879b          	sext.w	a5,a5
    60014648:	06078a63          	beqz	a5,600146bc <follow_path+0x160>
    6001464c:	fec42783          	lw	a5,-20(s0)
    60014650:	0007871b          	sext.w	a4,a5
    60014654:	00400793          	li	a5,4
    60014658:	0ef71263          	bne	a4,a5,6001473c <follow_path+0x1e0>
    6001465c:	feb44783          	lbu	a5,-21(s0)
    60014660:	0007879b          	sext.w	a5,a5
    60014664:	0207f793          	andi	a5,a5,32
    60014668:	0007879b          	sext.w	a5,a5
    6001466c:	02078863          	beqz	a5,6001469c <follow_path+0x140>
    60014670:	fd843783          	ld	a5,-40(s0)
    60014674:	0007a623          	sw	zero,12(a5)
    60014678:	fd843783          	ld	a5,-40(s0)
    6001467c:	0007bc23          	sd	zero,24(a5)
    60014680:	feb44783          	lbu	a5,-21(s0)
    60014684:	0007879b          	sext.w	a5,a5
    60014688:	0047f793          	andi	a5,a5,4
    6001468c:	0007879b          	sext.w	a5,a5
    60014690:	08078e63          	beqz	a5,6001472c <follow_path+0x1d0>
    60014694:	fe042623          	sw	zero,-20(s0)
    60014698:	0a40006f          	j	6001473c <follow_path+0x1e0>
    6001469c:	feb44783          	lbu	a5,-21(s0)
    600146a0:	0007879b          	sext.w	a5,a5
    600146a4:	0047f793          	andi	a5,a5,4
    600146a8:	0007879b          	sext.w	a5,a5
    600146ac:	08079863          	bnez	a5,6001473c <follow_path+0x1e0>
    600146b0:	00500793          	li	a5,5
    600146b4:	fef42623          	sw	a5,-20(s0)
    600146b8:	0840006f          	j	6001473c <follow_path+0x1e0>
    600146bc:	feb44783          	lbu	a5,-21(s0)
    600146c0:	0007879b          	sext.w	a5,a5
    600146c4:	0047f793          	andi	a5,a5,4
    600146c8:	0007879b          	sext.w	a5,a5
    600146cc:	06079c63          	bnez	a5,60014744 <follow_path+0x1e8>
    600146d0:	fd843783          	ld	a5,-40(s0)
    600146d4:	0187b783          	ld	a5,24(a5)
    600146d8:	fef43023          	sd	a5,-32(s0)
    600146dc:	fe043783          	ld	a5,-32(s0)
    600146e0:	00b78793          	addi	a5,a5,11
    600146e4:	0007c783          	lbu	a5,0(a5)
    600146e8:	0007879b          	sext.w	a5,a5
    600146ec:	0107f793          	andi	a5,a5,16
    600146f0:	0007879b          	sext.w	a5,a5
    600146f4:	00079863          	bnez	a5,60014704 <follow_path+0x1a8>
    600146f8:	00500793          	li	a5,5
    600146fc:	fef42623          	sw	a5,-20(s0)
    60014700:	0480006f          	j	60014748 <follow_path+0x1ec>
    60014704:	fd843783          	ld	a5,-40(s0)
    60014708:	0007b783          	ld	a5,0(a5)
    6001470c:	fe043583          	ld	a1,-32(s0)
    60014710:	00078513          	mv	a0,a5
    60014714:	a64ff0ef          	jal	ra,60013978 <ld_clust>
    60014718:	00050793          	mv	a5,a0
    6001471c:	0007871b          	sext.w	a4,a5
    60014720:	fd843783          	ld	a5,-40(s0)
    60014724:	00e7a623          	sw	a4,12(a5)
    60014728:	ed5ff06f          	j	600145fc <follow_path+0xa0>
    6001472c:	00000013          	nop
    60014730:	ecdff06f          	j	600145fc <follow_path+0xa0>
    60014734:	00000013          	nop
    60014738:	0100006f          	j	60014748 <follow_path+0x1ec>
    6001473c:	00000013          	nop
    60014740:	0080006f          	j	60014748 <follow_path+0x1ec>
    60014744:	00000013          	nop
    60014748:	fec42783          	lw	a5,-20(s0)
    6001474c:	00078513          	mv	a0,a5
    60014750:	02813083          	ld	ra,40(sp)
    60014754:	02013403          	ld	s0,32(sp)
    60014758:	03010113          	addi	sp,sp,48
    6001475c:	00008067          	ret

0000000060014760 <get_ldnumber>:
    60014760:	fc010113          	addi	sp,sp,-64
    60014764:	02813c23          	sd	s0,56(sp)
    60014768:	04010413          	addi	s0,sp,64
    6001476c:	fca43423          	sd	a0,-56(s0)
    60014770:	fff00793          	li	a5,-1
    60014774:	fef42223          	sw	a5,-28(s0)
    60014778:	fc843783          	ld	a5,-56(s0)
    6001477c:	0007b783          	ld	a5,0(a5)
    60014780:	0e078463          	beqz	a5,60014868 <get_ldnumber+0x108>
    60014784:	fc843783          	ld	a5,-56(s0)
    60014788:	0007b783          	ld	a5,0(a5)
    6001478c:	fef43423          	sd	a5,-24(s0)
    60014790:	0100006f          	j	600147a0 <get_ldnumber+0x40>
    60014794:	fe843783          	ld	a5,-24(s0)
    60014798:	00178793          	addi	a5,a5,1
    6001479c:	fef43423          	sd	a5,-24(s0)
    600147a0:	fe843783          	ld	a5,-24(s0)
    600147a4:	0007c783          	lbu	a5,0(a5)
    600147a8:	00078713          	mv	a4,a5
    600147ac:	02000793          	li	a5,32
    600147b0:	00e7fc63          	bgeu	a5,a4,600147c8 <get_ldnumber+0x68>
    600147b4:	fe843783          	ld	a5,-24(s0)
    600147b8:	0007c783          	lbu	a5,0(a5)
    600147bc:	00078713          	mv	a4,a5
    600147c0:	03a00793          	li	a5,58
    600147c4:	fcf718e3          	bne	a4,a5,60014794 <get_ldnumber+0x34>
    600147c8:	fe843783          	ld	a5,-24(s0)
    600147cc:	0007c783          	lbu	a5,0(a5)
    600147d0:	00078713          	mv	a4,a5
    600147d4:	03a00793          	li	a5,58
    600147d8:	08f71263          	bne	a4,a5,6001485c <get_ldnumber+0xfc>
    600147dc:	fc843783          	ld	a5,-56(s0)
    600147e0:	0007b783          	ld	a5,0(a5)
    600147e4:	fcf43c23          	sd	a5,-40(s0)
    600147e8:	fd843783          	ld	a5,-40(s0)
    600147ec:	00178713          	addi	a4,a5,1
    600147f0:	fce43c23          	sd	a4,-40(s0)
    600147f4:	0007c783          	lbu	a5,0(a5)
    600147f8:	0007879b          	sext.w	a5,a5
    600147fc:	fd07879b          	addiw	a5,a5,-48
    60014800:	0007879b          	sext.w	a5,a5
    60014804:	fcf42a23          	sw	a5,-44(s0)
    60014808:	fd442783          	lw	a5,-44(s0)
    6001480c:	0007871b          	sext.w	a4,a5
    60014810:	00900793          	li	a5,9
    60014814:	04e7e063          	bltu	a5,a4,60014854 <get_ldnumber+0xf4>
    60014818:	fd843703          	ld	a4,-40(s0)
    6001481c:	fe843783          	ld	a5,-24(s0)
    60014820:	02f71a63          	bne	a4,a5,60014854 <get_ldnumber+0xf4>
    60014824:	fd442783          	lw	a5,-44(s0)
    60014828:	0007871b          	sext.w	a4,a5
    6001482c:	00100793          	li	a5,1
    60014830:	02e7e263          	bltu	a5,a4,60014854 <get_ldnumber+0xf4>
    60014834:	fd442783          	lw	a5,-44(s0)
    60014838:	fef42223          	sw	a5,-28(s0)
    6001483c:	fe843783          	ld	a5,-24(s0)
    60014840:	00178793          	addi	a5,a5,1
    60014844:	fef43423          	sd	a5,-24(s0)
    60014848:	fc843783          	ld	a5,-56(s0)
    6001484c:	fe843703          	ld	a4,-24(s0)
    60014850:	00e7b023          	sd	a4,0(a5)
    60014854:	fe442783          	lw	a5,-28(s0)
    60014858:	0140006f          	j	6001486c <get_ldnumber+0x10c>
    6001485c:	6001a7b7          	lui	a5,0x6001a
    60014860:	2d27c783          	lbu	a5,722(a5) # 6001a2d2 <CurrVol>
    60014864:	fef42223          	sw	a5,-28(s0)
    60014868:	fe442783          	lw	a5,-28(s0)
    6001486c:	00078513          	mv	a0,a5
    60014870:	03813403          	ld	s0,56(sp)
    60014874:	04010113          	addi	sp,sp,64
    60014878:	00008067          	ret

000000006001487c <check_fs>:
    6001487c:	fe010113          	addi	sp,sp,-32
    60014880:	00113c23          	sd	ra,24(sp)
    60014884:	00813823          	sd	s0,16(sp)
    60014888:	02010413          	addi	s0,sp,32
    6001488c:	fea43423          	sd	a0,-24(s0)
    60014890:	00058793          	mv	a5,a1
    60014894:	fef42223          	sw	a5,-28(s0)
    60014898:	fe843783          	ld	a5,-24(s0)
    6001489c:	00078223          	sb	zero,4(a5)
    600148a0:	fe843783          	ld	a5,-24(s0)
    600148a4:	fff00713          	li	a4,-1
    600148a8:	02e7a823          	sw	a4,48(a5)
    600148ac:	fe442783          	lw	a5,-28(s0)
    600148b0:	00078593          	mv	a1,a5
    600148b4:	fe843503          	ld	a0,-24(s0)
    600148b8:	a21fd0ef          	jal	ra,600122d8 <move_window>
    600148bc:	00050793          	mv	a5,a0
    600148c0:	0007879b          	sext.w	a5,a5
    600148c4:	00078663          	beqz	a5,600148d0 <check_fs+0x54>
    600148c8:	00300793          	li	a5,3
    600148cc:	1b00006f          	j	60014a7c <check_fs+0x200>
    600148d0:	fe843783          	ld	a5,-24(s0)
    600148d4:	23278793          	addi	a5,a5,562
    600148d8:	00178793          	addi	a5,a5,1
    600148dc:	0007c783          	lbu	a5,0(a5)
    600148e0:	0007879b          	sext.w	a5,a5
    600148e4:	0087979b          	slliw	a5,a5,0x8
    600148e8:	0007879b          	sext.w	a5,a5
    600148ec:	0107971b          	slliw	a4,a5,0x10
    600148f0:	4107571b          	sraiw	a4,a4,0x10
    600148f4:	fe843783          	ld	a5,-24(s0)
    600148f8:	2327c783          	lbu	a5,562(a5)
    600148fc:	0107979b          	slliw	a5,a5,0x10
    60014900:	4107d79b          	sraiw	a5,a5,0x10
    60014904:	00f767b3          	or	a5,a4,a5
    60014908:	0107979b          	slliw	a5,a5,0x10
    6001490c:	4107d79b          	sraiw	a5,a5,0x10
    60014910:	0007871b          	sext.w	a4,a5
    60014914:	ffffb7b7          	lui	a5,0xffffb
    60014918:	a5578793          	addi	a5,a5,-1451 # ffffffffffffaa55 <Stat+0xffffffff9ffdab45>
    6001491c:	00f70663          	beq	a4,a5,60014928 <check_fs+0xac>
    60014920:	00200793          	li	a5,2
    60014924:	1580006f          	j	60014a7c <check_fs+0x200>
    60014928:	fe843783          	ld	a5,-24(s0)
    6001492c:	06a78793          	addi	a5,a5,106
    60014930:	00378793          	addi	a5,a5,3
    60014934:	0007c783          	lbu	a5,0(a5)
    60014938:	0007879b          	sext.w	a5,a5
    6001493c:	0187979b          	slliw	a5,a5,0x18
    60014940:	0007871b          	sext.w	a4,a5
    60014944:	fe843783          	ld	a5,-24(s0)
    60014948:	06a78793          	addi	a5,a5,106
    6001494c:	00278793          	addi	a5,a5,2
    60014950:	0007c783          	lbu	a5,0(a5)
    60014954:	0007879b          	sext.w	a5,a5
    60014958:	0107979b          	slliw	a5,a5,0x10
    6001495c:	0007879b          	sext.w	a5,a5
    60014960:	00f767b3          	or	a5,a4,a5
    60014964:	0007871b          	sext.w	a4,a5
    60014968:	fe843783          	ld	a5,-24(s0)
    6001496c:	06a78793          	addi	a5,a5,106
    60014970:	00178793          	addi	a5,a5,1
    60014974:	0007c783          	lbu	a5,0(a5)
    60014978:	0007879b          	sext.w	a5,a5
    6001497c:	0087979b          	slliw	a5,a5,0x8
    60014980:	0007879b          	sext.w	a5,a5
    60014984:	0007879b          	sext.w	a5,a5
    60014988:	00f767b3          	or	a5,a4,a5
    6001498c:	0007871b          	sext.w	a4,a5
    60014990:	fe843783          	ld	a5,-24(s0)
    60014994:	06a7c783          	lbu	a5,106(a5)
    60014998:	0007879b          	sext.w	a5,a5
    6001499c:	00f767b3          	or	a5,a4,a5
    600149a0:	0007879b          	sext.w	a5,a5
    600149a4:	00078713          	mv	a4,a5
    600149a8:	010007b7          	lui	a5,0x1000
    600149ac:	fff78793          	addi	a5,a5,-1 # ffffff <_start-0x5f010001>
    600149b0:	00f777b3          	and	a5,a4,a5
    600149b4:	0007879b          	sext.w	a5,a5
    600149b8:	00078713          	mv	a4,a5
    600149bc:	005447b7          	lui	a5,0x544
    600149c0:	14678793          	addi	a5,a5,326 # 544146 <_start-0x5facbeba>
    600149c4:	00f71663          	bne	a4,a5,600149d0 <check_fs+0x154>
    600149c8:	00000793          	li	a5,0
    600149cc:	0b00006f          	j	60014a7c <check_fs+0x200>
    600149d0:	fe843783          	ld	a5,-24(s0)
    600149d4:	08678793          	addi	a5,a5,134
    600149d8:	00378793          	addi	a5,a5,3
    600149dc:	0007c783          	lbu	a5,0(a5)
    600149e0:	0007879b          	sext.w	a5,a5
    600149e4:	0187979b          	slliw	a5,a5,0x18
    600149e8:	0007871b          	sext.w	a4,a5
    600149ec:	fe843783          	ld	a5,-24(s0)
    600149f0:	08678793          	addi	a5,a5,134
    600149f4:	00278793          	addi	a5,a5,2
    600149f8:	0007c783          	lbu	a5,0(a5)
    600149fc:	0007879b          	sext.w	a5,a5
    60014a00:	0107979b          	slliw	a5,a5,0x10
    60014a04:	0007879b          	sext.w	a5,a5
    60014a08:	00f767b3          	or	a5,a4,a5
    60014a0c:	0007871b          	sext.w	a4,a5
    60014a10:	fe843783          	ld	a5,-24(s0)
    60014a14:	08678793          	addi	a5,a5,134
    60014a18:	00178793          	addi	a5,a5,1
    60014a1c:	0007c783          	lbu	a5,0(a5)
    60014a20:	0007879b          	sext.w	a5,a5
    60014a24:	0087979b          	slliw	a5,a5,0x8
    60014a28:	0007879b          	sext.w	a5,a5
    60014a2c:	0007879b          	sext.w	a5,a5
    60014a30:	00f767b3          	or	a5,a4,a5
    60014a34:	0007871b          	sext.w	a4,a5
    60014a38:	fe843783          	ld	a5,-24(s0)
    60014a3c:	0867c783          	lbu	a5,134(a5)
    60014a40:	0007879b          	sext.w	a5,a5
    60014a44:	00f767b3          	or	a5,a4,a5
    60014a48:	0007879b          	sext.w	a5,a5
    60014a4c:	00078713          	mv	a4,a5
    60014a50:	010007b7          	lui	a5,0x1000
    60014a54:	fff78793          	addi	a5,a5,-1 # ffffff <_start-0x5f010001>
    60014a58:	00f777b3          	and	a5,a4,a5
    60014a5c:	0007879b          	sext.w	a5,a5
    60014a60:	00078713          	mv	a4,a5
    60014a64:	005447b7          	lui	a5,0x544
    60014a68:	14678793          	addi	a5,a5,326 # 544146 <_start-0x5facbeba>
    60014a6c:	00f71663          	bne	a4,a5,60014a78 <check_fs+0x1fc>
    60014a70:	00000793          	li	a5,0
    60014a74:	0080006f          	j	60014a7c <check_fs+0x200>
    60014a78:	00100793          	li	a5,1
    60014a7c:	00078513          	mv	a0,a5
    60014a80:	01813083          	ld	ra,24(sp)
    60014a84:	01013403          	ld	s0,16(sp)
    60014a88:	02010113          	addi	sp,sp,32
    60014a8c:	00008067          	ret

0000000060014a90 <find_volume>:
    60014a90:	f7010113          	addi	sp,sp,-144
    60014a94:	08113423          	sd	ra,136(sp)
    60014a98:	08813023          	sd	s0,128(sp)
    60014a9c:	09010413          	addi	s0,sp,144
    60014aa0:	f8a43423          	sd	a0,-120(s0)
    60014aa4:	f8b43023          	sd	a1,-128(s0)
    60014aa8:	00060793          	mv	a5,a2
    60014aac:	f6f40fa3          	sb	a5,-129(s0)
    60014ab0:	f8843783          	ld	a5,-120(s0)
    60014ab4:	0007b023          	sd	zero,0(a5)
    60014ab8:	f8043503          	ld	a0,-128(s0)
    60014abc:	ca5ff0ef          	jal	ra,60014760 <get_ldnumber>
    60014ac0:	00050793          	mv	a5,a0
    60014ac4:	fcf42a23          	sw	a5,-44(s0)
    60014ac8:	fd442783          	lw	a5,-44(s0)
    60014acc:	0007879b          	sext.w	a5,a5
    60014ad0:	0007d663          	bgez	a5,60014adc <find_volume+0x4c>
    60014ad4:	00b00793          	li	a5,11
    60014ad8:	3750006f          	j	6001564c <find_volume+0xbbc>
    60014adc:	6001a7b7          	lui	a5,0x6001a
    60014ae0:	fd442703          	lw	a4,-44(s0)
    60014ae4:	00371713          	slli	a4,a4,0x3
    60014ae8:	2c078793          	addi	a5,a5,704 # 6001a2c0 <FatFs>
    60014aec:	00f707b3          	add	a5,a4,a5
    60014af0:	0007b783          	ld	a5,0(a5)
    60014af4:	fcf43423          	sd	a5,-56(s0)
    60014af8:	fc843783          	ld	a5,-56(s0)
    60014afc:	00079663          	bnez	a5,60014b08 <find_volume+0x78>
    60014b00:	00c00793          	li	a5,12
    60014b04:	3490006f          	j	6001564c <find_volume+0xbbc>
    60014b08:	f8843783          	ld	a5,-120(s0)
    60014b0c:	fc843703          	ld	a4,-56(s0)
    60014b10:	00e7b023          	sd	a4,0(a5)
    60014b14:	fc843783          	ld	a5,-56(s0)
    60014b18:	0007c783          	lbu	a5,0(a5)
    60014b1c:	06078063          	beqz	a5,60014b7c <find_volume+0xec>
    60014b20:	fc843783          	ld	a5,-56(s0)
    60014b24:	0017c783          	lbu	a5,1(a5)
    60014b28:	00078513          	mv	a0,a5
    60014b2c:	bbdfc0ef          	jal	ra,600116e8 <disk_status>
    60014b30:	00050793          	mv	a5,a0
    60014b34:	fcf403a3          	sb	a5,-57(s0)
    60014b38:	fc744783          	lbu	a5,-57(s0)
    60014b3c:	0007879b          	sext.w	a5,a5
    60014b40:	0017f793          	andi	a5,a5,1
    60014b44:	0007879b          	sext.w	a5,a5
    60014b48:	02079a63          	bnez	a5,60014b7c <find_volume+0xec>
    60014b4c:	f7f44783          	lbu	a5,-129(s0)
    60014b50:	0ff7f793          	andi	a5,a5,255
    60014b54:	02078063          	beqz	a5,60014b74 <find_volume+0xe4>
    60014b58:	fc744783          	lbu	a5,-57(s0)
    60014b5c:	0007879b          	sext.w	a5,a5
    60014b60:	0047f793          	andi	a5,a5,4
    60014b64:	0007879b          	sext.w	a5,a5
    60014b68:	00078663          	beqz	a5,60014b74 <find_volume+0xe4>
    60014b6c:	00a00793          	li	a5,10
    60014b70:	2dd0006f          	j	6001564c <find_volume+0xbbc>
    60014b74:	00000793          	li	a5,0
    60014b78:	2d50006f          	j	6001564c <find_volume+0xbbc>
    60014b7c:	fc843783          	ld	a5,-56(s0)
    60014b80:	00078023          	sb	zero,0(a5)
    60014b84:	fd442783          	lw	a5,-44(s0)
    60014b88:	0ff7f713          	andi	a4,a5,255
    60014b8c:	fc843783          	ld	a5,-56(s0)
    60014b90:	00e780a3          	sb	a4,1(a5)
    60014b94:	fc843783          	ld	a5,-56(s0)
    60014b98:	0017c783          	lbu	a5,1(a5)
    60014b9c:	00078513          	mv	a0,a5
    60014ba0:	809fc0ef          	jal	ra,600113a8 <disk_initialize>
    60014ba4:	00050793          	mv	a5,a0
    60014ba8:	fcf403a3          	sb	a5,-57(s0)
    60014bac:	fc744783          	lbu	a5,-57(s0)
    60014bb0:	0007879b          	sext.w	a5,a5
    60014bb4:	0017f793          	andi	a5,a5,1
    60014bb8:	0007879b          	sext.w	a5,a5
    60014bbc:	00078663          	beqz	a5,60014bc8 <find_volume+0x138>
    60014bc0:	00300793          	li	a5,3
    60014bc4:	2890006f          	j	6001564c <find_volume+0xbbc>
    60014bc8:	f7f44783          	lbu	a5,-129(s0)
    60014bcc:	0ff7f793          	andi	a5,a5,255
    60014bd0:	02078063          	beqz	a5,60014bf0 <find_volume+0x160>
    60014bd4:	fc744783          	lbu	a5,-57(s0)
    60014bd8:	0007879b          	sext.w	a5,a5
    60014bdc:	0047f793          	andi	a5,a5,4
    60014be0:	0007879b          	sext.w	a5,a5
    60014be4:	00078663          	beqz	a5,60014bf0 <find_volume+0x160>
    60014be8:	00a00793          	li	a5,10
    60014bec:	2610006f          	j	6001564c <find_volume+0xbbc>
    60014bf0:	fe042423          	sw	zero,-24(s0)
    60014bf4:	fe842783          	lw	a5,-24(s0)
    60014bf8:	00078593          	mv	a1,a5
    60014bfc:	fc843503          	ld	a0,-56(s0)
    60014c00:	c7dff0ef          	jal	ra,6001487c <check_fs>
    60014c04:	00050793          	mv	a5,a0
    60014c08:	fef407a3          	sb	a5,-17(s0)
    60014c0c:	fef44783          	lbu	a5,-17(s0)
    60014c10:	0ff7f713          	andi	a4,a5,255
    60014c14:	00100793          	li	a5,1
    60014c18:	16f71c63          	bne	a4,a5,60014d90 <find_volume+0x300>
    60014c1c:	fc042c23          	sw	zero,-40(s0)
    60014c20:	0d80006f          	j	60014cf8 <find_volume+0x268>
    60014c24:	fc843783          	ld	a5,-56(s0)
    60014c28:	03478713          	addi	a4,a5,52
    60014c2c:	fd842783          	lw	a5,-40(s0)
    60014c30:	0047979b          	slliw	a5,a5,0x4
    60014c34:	0007879b          	sext.w	a5,a5
    60014c38:	02079793          	slli	a5,a5,0x20
    60014c3c:	0207d793          	srli	a5,a5,0x20
    60014c40:	1be78793          	addi	a5,a5,446
    60014c44:	00f707b3          	add	a5,a4,a5
    60014c48:	faf43c23          	sd	a5,-72(s0)
    60014c4c:	fb843783          	ld	a5,-72(s0)
    60014c50:	00478793          	addi	a5,a5,4
    60014c54:	0007c783          	lbu	a5,0(a5)
    60014c58:	06078e63          	beqz	a5,60014cd4 <find_volume+0x244>
    60014c5c:	fb843783          	ld	a5,-72(s0)
    60014c60:	00b78793          	addi	a5,a5,11
    60014c64:	0007c783          	lbu	a5,0(a5)
    60014c68:	0007879b          	sext.w	a5,a5
    60014c6c:	0187979b          	slliw	a5,a5,0x18
    60014c70:	0007871b          	sext.w	a4,a5
    60014c74:	fb843783          	ld	a5,-72(s0)
    60014c78:	00a78793          	addi	a5,a5,10
    60014c7c:	0007c783          	lbu	a5,0(a5)
    60014c80:	0007879b          	sext.w	a5,a5
    60014c84:	0107979b          	slliw	a5,a5,0x10
    60014c88:	0007879b          	sext.w	a5,a5
    60014c8c:	00f767b3          	or	a5,a4,a5
    60014c90:	0007871b          	sext.w	a4,a5
    60014c94:	fb843783          	ld	a5,-72(s0)
    60014c98:	00978793          	addi	a5,a5,9
    60014c9c:	0007c783          	lbu	a5,0(a5)
    60014ca0:	0007879b          	sext.w	a5,a5
    60014ca4:	0087979b          	slliw	a5,a5,0x8
    60014ca8:	0007879b          	sext.w	a5,a5
    60014cac:	0007879b          	sext.w	a5,a5
    60014cb0:	00f767b3          	or	a5,a4,a5
    60014cb4:	0007871b          	sext.w	a4,a5
    60014cb8:	fb843783          	ld	a5,-72(s0)
    60014cbc:	00878793          	addi	a5,a5,8
    60014cc0:	0007c783          	lbu	a5,0(a5)
    60014cc4:	0007879b          	sext.w	a5,a5
    60014cc8:	00f767b3          	or	a5,a4,a5
    60014ccc:	0007871b          	sext.w	a4,a5
    60014cd0:	0080006f          	j	60014cd8 <find_volume+0x248>
    60014cd4:	00000713          	li	a4,0
    60014cd8:	fd846783          	lwu	a5,-40(s0)
    60014cdc:	00279793          	slli	a5,a5,0x2
    60014ce0:	ff040693          	addi	a3,s0,-16
    60014ce4:	00f687b3          	add	a5,a3,a5
    60014ce8:	fae7a423          	sw	a4,-88(a5)
    60014cec:	fd842783          	lw	a5,-40(s0)
    60014cf0:	0017879b          	addiw	a5,a5,1
    60014cf4:	fcf42c23          	sw	a5,-40(s0)
    60014cf8:	fd842783          	lw	a5,-40(s0)
    60014cfc:	0007871b          	sext.w	a4,a5
    60014d00:	00300793          	li	a5,3
    60014d04:	f2e7f0e3          	bgeu	a5,a4,60014c24 <find_volume+0x194>
    60014d08:	fc042c23          	sw	zero,-40(s0)
    60014d0c:	fd842783          	lw	a5,-40(s0)
    60014d10:	0007879b          	sext.w	a5,a5
    60014d14:	00078863          	beqz	a5,60014d24 <find_volume+0x294>
    60014d18:	fd842783          	lw	a5,-40(s0)
    60014d1c:	fff7879b          	addiw	a5,a5,-1
    60014d20:	fcf42c23          	sw	a5,-40(s0)
    60014d24:	fd846783          	lwu	a5,-40(s0)
    60014d28:	00279793          	slli	a5,a5,0x2
    60014d2c:	ff040713          	addi	a4,s0,-16
    60014d30:	00f707b3          	add	a5,a4,a5
    60014d34:	fa87a783          	lw	a5,-88(a5)
    60014d38:	fef42423          	sw	a5,-24(s0)
    60014d3c:	fe842783          	lw	a5,-24(s0)
    60014d40:	0007879b          	sext.w	a5,a5
    60014d44:	00078e63          	beqz	a5,60014d60 <find_volume+0x2d0>
    60014d48:	fe842783          	lw	a5,-24(s0)
    60014d4c:	00078593          	mv	a1,a5
    60014d50:	fc843503          	ld	a0,-56(s0)
    60014d54:	b29ff0ef          	jal	ra,6001487c <check_fs>
    60014d58:	00050793          	mv	a5,a0
    60014d5c:	0080006f          	j	60014d64 <find_volume+0x2d4>
    60014d60:	00200793          	li	a5,2
    60014d64:	fef407a3          	sb	a5,-17(s0)
    60014d68:	fef44783          	lbu	a5,-17(s0)
    60014d6c:	0ff7f793          	andi	a5,a5,255
    60014d70:	02078063          	beqz	a5,60014d90 <find_volume+0x300>
    60014d74:	fd842783          	lw	a5,-40(s0)
    60014d78:	0017879b          	addiw	a5,a5,1
    60014d7c:	fcf42c23          	sw	a5,-40(s0)
    60014d80:	fd842783          	lw	a5,-40(s0)
    60014d84:	0007871b          	sext.w	a4,a5
    60014d88:	00300793          	li	a5,3
    60014d8c:	f8e7fce3          	bgeu	a5,a4,60014d24 <find_volume+0x294>
    60014d90:	fef44783          	lbu	a5,-17(s0)
    60014d94:	0ff7f713          	andi	a4,a5,255
    60014d98:	00300793          	li	a5,3
    60014d9c:	00f71663          	bne	a4,a5,60014da8 <find_volume+0x318>
    60014da0:	00100793          	li	a5,1
    60014da4:	0a90006f          	j	6001564c <find_volume+0xbbc>
    60014da8:	fef44783          	lbu	a5,-17(s0)
    60014dac:	0ff7f793          	andi	a5,a5,255
    60014db0:	00078663          	beqz	a5,60014dbc <find_volume+0x32c>
    60014db4:	00d00793          	li	a5,13
    60014db8:	0950006f          	j	6001564c <find_volume+0xbbc>
    60014dbc:	fc843783          	ld	a5,-56(s0)
    60014dc0:	0407c783          	lbu	a5,64(a5)
    60014dc4:	0007879b          	sext.w	a5,a5
    60014dc8:	0087979b          	slliw	a5,a5,0x8
    60014dcc:	0007879b          	sext.w	a5,a5
    60014dd0:	0107971b          	slliw	a4,a5,0x10
    60014dd4:	4107571b          	sraiw	a4,a4,0x10
    60014dd8:	fc843783          	ld	a5,-56(s0)
    60014ddc:	03f7c783          	lbu	a5,63(a5)
    60014de0:	0107979b          	slliw	a5,a5,0x10
    60014de4:	4107d79b          	sraiw	a5,a5,0x10
    60014de8:	00f767b3          	or	a5,a4,a5
    60014dec:	0107979b          	slliw	a5,a5,0x10
    60014df0:	4107d79b          	sraiw	a5,a5,0x10
    60014df4:	0007871b          	sext.w	a4,a5
    60014df8:	20000793          	li	a5,512
    60014dfc:	00f70663          	beq	a4,a5,60014e08 <find_volume+0x378>
    60014e00:	00d00793          	li	a5,13
    60014e04:	0490006f          	j	6001564c <find_volume+0xbbc>
    60014e08:	fc843783          	ld	a5,-56(s0)
    60014e0c:	04b7c783          	lbu	a5,75(a5)
    60014e10:	0007879b          	sext.w	a5,a5
    60014e14:	0087979b          	slliw	a5,a5,0x8
    60014e18:	0007879b          	sext.w	a5,a5
    60014e1c:	0107971b          	slliw	a4,a5,0x10
    60014e20:	4107571b          	sraiw	a4,a4,0x10
    60014e24:	fc843783          	ld	a5,-56(s0)
    60014e28:	04a7c783          	lbu	a5,74(a5)
    60014e2c:	0107979b          	slliw	a5,a5,0x10
    60014e30:	4107d79b          	sraiw	a5,a5,0x10
    60014e34:	00f767b3          	or	a5,a4,a5
    60014e38:	0107979b          	slliw	a5,a5,0x10
    60014e3c:	4107d79b          	sraiw	a5,a5,0x10
    60014e40:	03079793          	slli	a5,a5,0x30
    60014e44:	0307d793          	srli	a5,a5,0x30
    60014e48:	fef42223          	sw	a5,-28(s0)
    60014e4c:	fe442783          	lw	a5,-28(s0)
    60014e50:	0007879b          	sext.w	a5,a5
    60014e54:	06079463          	bnez	a5,60014ebc <find_volume+0x42c>
    60014e58:	fc843783          	ld	a5,-56(s0)
    60014e5c:	05b7c783          	lbu	a5,91(a5)
    60014e60:	0007879b          	sext.w	a5,a5
    60014e64:	0187979b          	slliw	a5,a5,0x18
    60014e68:	0007871b          	sext.w	a4,a5
    60014e6c:	fc843783          	ld	a5,-56(s0)
    60014e70:	05a7c783          	lbu	a5,90(a5)
    60014e74:	0007879b          	sext.w	a5,a5
    60014e78:	0107979b          	slliw	a5,a5,0x10
    60014e7c:	0007879b          	sext.w	a5,a5
    60014e80:	00f767b3          	or	a5,a4,a5
    60014e84:	0007871b          	sext.w	a4,a5
    60014e88:	fc843783          	ld	a5,-56(s0)
    60014e8c:	0597c783          	lbu	a5,89(a5)
    60014e90:	0007879b          	sext.w	a5,a5
    60014e94:	0087979b          	slliw	a5,a5,0x8
    60014e98:	0007879b          	sext.w	a5,a5
    60014e9c:	0007879b          	sext.w	a5,a5
    60014ea0:	00f767b3          	or	a5,a4,a5
    60014ea4:	0007871b          	sext.w	a4,a5
    60014ea8:	fc843783          	ld	a5,-56(s0)
    60014eac:	0587c783          	lbu	a5,88(a5)
    60014eb0:	0007879b          	sext.w	a5,a5
    60014eb4:	00f767b3          	or	a5,a4,a5
    60014eb8:	fef42223          	sw	a5,-28(s0)
    60014ebc:	fc843783          	ld	a5,-56(s0)
    60014ec0:	fe442703          	lw	a4,-28(s0)
    60014ec4:	00e7ae23          	sw	a4,28(a5)
    60014ec8:	fc843783          	ld	a5,-56(s0)
    60014ecc:	0447c703          	lbu	a4,68(a5)
    60014ed0:	fc843783          	ld	a5,-56(s0)
    60014ed4:	00e781a3          	sb	a4,3(a5)
    60014ed8:	fc843783          	ld	a5,-56(s0)
    60014edc:	0037c783          	lbu	a5,3(a5)
    60014ee0:	00078713          	mv	a4,a5
    60014ee4:	00100793          	li	a5,1
    60014ee8:	02f70063          	beq	a4,a5,60014f08 <find_volume+0x478>
    60014eec:	fc843783          	ld	a5,-56(s0)
    60014ef0:	0037c783          	lbu	a5,3(a5)
    60014ef4:	00078713          	mv	a4,a5
    60014ef8:	00200793          	li	a5,2
    60014efc:	00f70663          	beq	a4,a5,60014f08 <find_volume+0x478>
    60014f00:	00d00793          	li	a5,13
    60014f04:	7480006f          	j	6001564c <find_volume+0xbbc>
    60014f08:	fc843783          	ld	a5,-56(s0)
    60014f0c:	0037c783          	lbu	a5,3(a5)
    60014f10:	0007879b          	sext.w	a5,a5
    60014f14:	fe442703          	lw	a4,-28(s0)
    60014f18:	02f707bb          	mulw	a5,a4,a5
    60014f1c:	fef42223          	sw	a5,-28(s0)
    60014f20:	fc843783          	ld	a5,-56(s0)
    60014f24:	0417c703          	lbu	a4,65(a5)
    60014f28:	fc843783          	ld	a5,-56(s0)
    60014f2c:	00e78123          	sb	a4,2(a5)
    60014f30:	fc843783          	ld	a5,-56(s0)
    60014f34:	0027c783          	lbu	a5,2(a5)
    60014f38:	02078863          	beqz	a5,60014f68 <find_volume+0x4d8>
    60014f3c:	fc843783          	ld	a5,-56(s0)
    60014f40:	0027c783          	lbu	a5,2(a5)
    60014f44:	0007871b          	sext.w	a4,a5
    60014f48:	fc843783          	ld	a5,-56(s0)
    60014f4c:	0027c783          	lbu	a5,2(a5)
    60014f50:	0007879b          	sext.w	a5,a5
    60014f54:	fff7879b          	addiw	a5,a5,-1
    60014f58:	0007879b          	sext.w	a5,a5
    60014f5c:	00f777b3          	and	a5,a4,a5
    60014f60:	0007879b          	sext.w	a5,a5
    60014f64:	00078663          	beqz	a5,60014f70 <find_volume+0x4e0>
    60014f68:	00d00793          	li	a5,13
    60014f6c:	6e00006f          	j	6001564c <find_volume+0xbbc>
    60014f70:	fc843783          	ld	a5,-56(s0)
    60014f74:	0467c783          	lbu	a5,70(a5)
    60014f78:	0007879b          	sext.w	a5,a5
    60014f7c:	0087979b          	slliw	a5,a5,0x8
    60014f80:	0007879b          	sext.w	a5,a5
    60014f84:	0107971b          	slliw	a4,a5,0x10
    60014f88:	4107571b          	sraiw	a4,a4,0x10
    60014f8c:	fc843783          	ld	a5,-56(s0)
    60014f90:	0457c783          	lbu	a5,69(a5)
    60014f94:	0107979b          	slliw	a5,a5,0x10
    60014f98:	4107d79b          	sraiw	a5,a5,0x10
    60014f9c:	00f767b3          	or	a5,a4,a5
    60014fa0:	0107979b          	slliw	a5,a5,0x10
    60014fa4:	4107d79b          	sraiw	a5,a5,0x10
    60014fa8:	03079713          	slli	a4,a5,0x30
    60014fac:	03075713          	srli	a4,a4,0x30
    60014fb0:	fc843783          	ld	a5,-56(s0)
    60014fb4:	00e79423          	sh	a4,8(a5)
    60014fb8:	fc843783          	ld	a5,-56(s0)
    60014fbc:	0087d783          	lhu	a5,8(a5)
    60014fc0:	00f7f793          	andi	a5,a5,15
    60014fc4:	03079793          	slli	a5,a5,0x30
    60014fc8:	0307d793          	srli	a5,a5,0x30
    60014fcc:	00078663          	beqz	a5,60014fd8 <find_volume+0x548>
    60014fd0:	00d00793          	li	a5,13
    60014fd4:	6780006f          	j	6001564c <find_volume+0xbbc>
    60014fd8:	fc843783          	ld	a5,-56(s0)
    60014fdc:	0487c783          	lbu	a5,72(a5)
    60014fe0:	0007879b          	sext.w	a5,a5
    60014fe4:	0087979b          	slliw	a5,a5,0x8
    60014fe8:	0007879b          	sext.w	a5,a5
    60014fec:	0107971b          	slliw	a4,a5,0x10
    60014ff0:	4107571b          	sraiw	a4,a4,0x10
    60014ff4:	fc843783          	ld	a5,-56(s0)
    60014ff8:	0477c783          	lbu	a5,71(a5)
    60014ffc:	0107979b          	slliw	a5,a5,0x10
    60015000:	4107d79b          	sraiw	a5,a5,0x10
    60015004:	00f767b3          	or	a5,a4,a5
    60015008:	0107979b          	slliw	a5,a5,0x10
    6001500c:	4107d79b          	sraiw	a5,a5,0x10
    60015010:	03079793          	slli	a5,a5,0x30
    60015014:	0307d793          	srli	a5,a5,0x30
    60015018:	fef42023          	sw	a5,-32(s0)
    6001501c:	fe042783          	lw	a5,-32(s0)
    60015020:	0007879b          	sext.w	a5,a5
    60015024:	06079463          	bnez	a5,6001508c <find_volume+0x5fc>
    60015028:	fc843783          	ld	a5,-56(s0)
    6001502c:	0577c783          	lbu	a5,87(a5)
    60015030:	0007879b          	sext.w	a5,a5
    60015034:	0187979b          	slliw	a5,a5,0x18
    60015038:	0007871b          	sext.w	a4,a5
    6001503c:	fc843783          	ld	a5,-56(s0)
    60015040:	0567c783          	lbu	a5,86(a5)
    60015044:	0007879b          	sext.w	a5,a5
    60015048:	0107979b          	slliw	a5,a5,0x10
    6001504c:	0007879b          	sext.w	a5,a5
    60015050:	00f767b3          	or	a5,a4,a5
    60015054:	0007871b          	sext.w	a4,a5
    60015058:	fc843783          	ld	a5,-56(s0)
    6001505c:	0557c783          	lbu	a5,85(a5)
    60015060:	0007879b          	sext.w	a5,a5
    60015064:	0087979b          	slliw	a5,a5,0x8
    60015068:	0007879b          	sext.w	a5,a5
    6001506c:	0007879b          	sext.w	a5,a5
    60015070:	00f767b3          	or	a5,a4,a5
    60015074:	0007871b          	sext.w	a4,a5
    60015078:	fc843783          	ld	a5,-56(s0)
    6001507c:	0547c783          	lbu	a5,84(a5)
    60015080:	0007879b          	sext.w	a5,a5
    60015084:	00f767b3          	or	a5,a4,a5
    60015088:	fef42023          	sw	a5,-32(s0)
    6001508c:	fc843783          	ld	a5,-56(s0)
    60015090:	0437c783          	lbu	a5,67(a5)
    60015094:	0007879b          	sext.w	a5,a5
    60015098:	0087979b          	slliw	a5,a5,0x8
    6001509c:	0007879b          	sext.w	a5,a5
    600150a0:	0107971b          	slliw	a4,a5,0x10
    600150a4:	4107571b          	sraiw	a4,a4,0x10
    600150a8:	fc843783          	ld	a5,-56(s0)
    600150ac:	0427c783          	lbu	a5,66(a5)
    600150b0:	0107979b          	slliw	a5,a5,0x10
    600150b4:	4107d79b          	sraiw	a5,a5,0x10
    600150b8:	00f767b3          	or	a5,a4,a5
    600150bc:	0107979b          	slliw	a5,a5,0x10
    600150c0:	4107d79b          	sraiw	a5,a5,0x10
    600150c4:	faf41b23          	sh	a5,-74(s0)
    600150c8:	fb645783          	lhu	a5,-74(s0)
    600150cc:	0007879b          	sext.w	a5,a5
    600150d0:	00079663          	bnez	a5,600150dc <find_volume+0x64c>
    600150d4:	00d00793          	li	a5,13
    600150d8:	5740006f          	j	6001564c <find_volume+0xbbc>
    600150dc:	fb645783          	lhu	a5,-74(s0)
    600150e0:	0007879b          	sext.w	a5,a5
    600150e4:	fe442703          	lw	a4,-28(s0)
    600150e8:	00f707bb          	addw	a5,a4,a5
    600150ec:	0007871b          	sext.w	a4,a5
    600150f0:	fc843783          	ld	a5,-56(s0)
    600150f4:	0087d783          	lhu	a5,8(a5)
    600150f8:	0047d79b          	srliw	a5,a5,0x4
    600150fc:	03079793          	slli	a5,a5,0x30
    60015100:	0307d793          	srli	a5,a5,0x30
    60015104:	0007879b          	sext.w	a5,a5
    60015108:	00f707bb          	addw	a5,a4,a5
    6001510c:	faf42823          	sw	a5,-80(s0)
    60015110:	fe042703          	lw	a4,-32(s0)
    60015114:	fb042783          	lw	a5,-80(s0)
    60015118:	0007071b          	sext.w	a4,a4
    6001511c:	0007879b          	sext.w	a5,a5
    60015120:	00f77663          	bgeu	a4,a5,6001512c <find_volume+0x69c>
    60015124:	00d00793          	li	a5,13
    60015128:	5240006f          	j	6001564c <find_volume+0xbbc>
    6001512c:	fe042703          	lw	a4,-32(s0)
    60015130:	fb042783          	lw	a5,-80(s0)
    60015134:	40f707bb          	subw	a5,a4,a5
    60015138:	0007871b          	sext.w	a4,a5
    6001513c:	fc843783          	ld	a5,-56(s0)
    60015140:	0027c783          	lbu	a5,2(a5)
    60015144:	0007879b          	sext.w	a5,a5
    60015148:	02f757bb          	divuw	a5,a4,a5
    6001514c:	faf42623          	sw	a5,-84(s0)
    60015150:	fac42783          	lw	a5,-84(s0)
    60015154:	0007879b          	sext.w	a5,a5
    60015158:	00079663          	bnez	a5,60015164 <find_volume+0x6d4>
    6001515c:	00d00793          	li	a5,13
    60015160:	4ec0006f          	j	6001564c <find_volume+0xbbc>
    60015164:	00100793          	li	a5,1
    60015168:	fef407a3          	sb	a5,-17(s0)
    6001516c:	fac42783          	lw	a5,-84(s0)
    60015170:	0007871b          	sext.w	a4,a5
    60015174:	000017b7          	lui	a5,0x1
    60015178:	ff578793          	addi	a5,a5,-11 # ff5 <_start-0x6000f00b>
    6001517c:	00e7f663          	bgeu	a5,a4,60015188 <find_volume+0x6f8>
    60015180:	00200793          	li	a5,2
    60015184:	fef407a3          	sb	a5,-17(s0)
    60015188:	fac42783          	lw	a5,-84(s0)
    6001518c:	0007871b          	sext.w	a4,a5
    60015190:	000107b7          	lui	a5,0x10
    60015194:	ff578793          	addi	a5,a5,-11 # fff5 <_start-0x6000000b>
    60015198:	00e7f663          	bgeu	a5,a4,600151a4 <find_volume+0x714>
    6001519c:	00300793          	li	a5,3
    600151a0:	fef407a3          	sb	a5,-17(s0)
    600151a4:	fac42783          	lw	a5,-84(s0)
    600151a8:	0027879b          	addiw	a5,a5,2
    600151ac:	0007871b          	sext.w	a4,a5
    600151b0:	fc843783          	ld	a5,-56(s0)
    600151b4:	00e7ac23          	sw	a4,24(a5)
    600151b8:	fc843783          	ld	a5,-56(s0)
    600151bc:	fe842703          	lw	a4,-24(s0)
    600151c0:	02e7a023          	sw	a4,32(a5)
    600151c4:	fb645783          	lhu	a5,-74(s0)
    600151c8:	0007879b          	sext.w	a5,a5
    600151cc:	fe842703          	lw	a4,-24(s0)
    600151d0:	00f707bb          	addw	a5,a4,a5
    600151d4:	0007871b          	sext.w	a4,a5
    600151d8:	fc843783          	ld	a5,-56(s0)
    600151dc:	02e7a223          	sw	a4,36(a5)
    600151e0:	fe842703          	lw	a4,-24(s0)
    600151e4:	fb042783          	lw	a5,-80(s0)
    600151e8:	00f707bb          	addw	a5,a4,a5
    600151ec:	0007871b          	sext.w	a4,a5
    600151f0:	fc843783          	ld	a5,-56(s0)
    600151f4:	02e7a623          	sw	a4,44(a5)
    600151f8:	fef44783          	lbu	a5,-17(s0)
    600151fc:	0ff7f713          	andi	a4,a5,255
    60015200:	00300793          	li	a5,3
    60015204:	08f71c63          	bne	a4,a5,6001529c <find_volume+0x80c>
    60015208:	fc843783          	ld	a5,-56(s0)
    6001520c:	0087d783          	lhu	a5,8(a5)
    60015210:	00078663          	beqz	a5,6001521c <find_volume+0x78c>
    60015214:	00d00793          	li	a5,13
    60015218:	4340006f          	j	6001564c <find_volume+0xbbc>
    6001521c:	fc843783          	ld	a5,-56(s0)
    60015220:	0637c783          	lbu	a5,99(a5)
    60015224:	0007879b          	sext.w	a5,a5
    60015228:	0187979b          	slliw	a5,a5,0x18
    6001522c:	0007871b          	sext.w	a4,a5
    60015230:	fc843783          	ld	a5,-56(s0)
    60015234:	0627c783          	lbu	a5,98(a5)
    60015238:	0007879b          	sext.w	a5,a5
    6001523c:	0107979b          	slliw	a5,a5,0x10
    60015240:	0007879b          	sext.w	a5,a5
    60015244:	00f767b3          	or	a5,a4,a5
    60015248:	0007871b          	sext.w	a4,a5
    6001524c:	fc843783          	ld	a5,-56(s0)
    60015250:	0617c783          	lbu	a5,97(a5)
    60015254:	0007879b          	sext.w	a5,a5
    60015258:	0087979b          	slliw	a5,a5,0x8
    6001525c:	0007879b          	sext.w	a5,a5
    60015260:	0007879b          	sext.w	a5,a5
    60015264:	00f767b3          	or	a5,a4,a5
    60015268:	0007871b          	sext.w	a4,a5
    6001526c:	fc843783          	ld	a5,-56(s0)
    60015270:	0607c783          	lbu	a5,96(a5)
    60015274:	0007879b          	sext.w	a5,a5
    60015278:	00f767b3          	or	a5,a4,a5
    6001527c:	0007871b          	sext.w	a4,a5
    60015280:	fc843783          	ld	a5,-56(s0)
    60015284:	02e7a423          	sw	a4,40(a5)
    60015288:	fc843783          	ld	a5,-56(s0)
    6001528c:	0187a783          	lw	a5,24(a5)
    60015290:	0027979b          	slliw	a5,a5,0x2
    60015294:	fcf42e23          	sw	a5,-36(s0)
    60015298:	0980006f          	j	60015330 <find_volume+0x8a0>
    6001529c:	fc843783          	ld	a5,-56(s0)
    600152a0:	0087d783          	lhu	a5,8(a5)
    600152a4:	00079663          	bnez	a5,600152b0 <find_volume+0x820>
    600152a8:	00d00793          	li	a5,13
    600152ac:	3a00006f          	j	6001564c <find_volume+0xbbc>
    600152b0:	fc843783          	ld	a5,-56(s0)
    600152b4:	0247a783          	lw	a5,36(a5)
    600152b8:	fe442703          	lw	a4,-28(s0)
    600152bc:	00f707bb          	addw	a5,a4,a5
    600152c0:	0007871b          	sext.w	a4,a5
    600152c4:	fc843783          	ld	a5,-56(s0)
    600152c8:	02e7a423          	sw	a4,40(a5)
    600152cc:	fef44783          	lbu	a5,-17(s0)
    600152d0:	0ff7f713          	andi	a4,a5,255
    600152d4:	00200793          	li	a5,2
    600152d8:	00f71c63          	bne	a4,a5,600152f0 <find_volume+0x860>
    600152dc:	fc843783          	ld	a5,-56(s0)
    600152e0:	0187a783          	lw	a5,24(a5)
    600152e4:	0017979b          	slliw	a5,a5,0x1
    600152e8:	0007879b          	sext.w	a5,a5
    600152ec:	0400006f          	j	6001532c <find_volume+0x89c>
    600152f0:	fc843783          	ld	a5,-56(s0)
    600152f4:	0187a783          	lw	a5,24(a5)
    600152f8:	00078713          	mv	a4,a5
    600152fc:	00070793          	mv	a5,a4
    60015300:	0017979b          	slliw	a5,a5,0x1
    60015304:	00e787bb          	addw	a5,a5,a4
    60015308:	0007879b          	sext.w	a5,a5
    6001530c:	0017d79b          	srliw	a5,a5,0x1
    60015310:	0007871b          	sext.w	a4,a5
    60015314:	fc843783          	ld	a5,-56(s0)
    60015318:	0187a783          	lw	a5,24(a5)
    6001531c:	0017f793          	andi	a5,a5,1
    60015320:	0007879b          	sext.w	a5,a5
    60015324:	00f707bb          	addw	a5,a4,a5
    60015328:	0007879b          	sext.w	a5,a5
    6001532c:	fcf42e23          	sw	a5,-36(s0)
    60015330:	fc843783          	ld	a5,-56(s0)
    60015334:	01c7a703          	lw	a4,28(a5)
    60015338:	fdc42783          	lw	a5,-36(s0)
    6001533c:	1ff7879b          	addiw	a5,a5,511
    60015340:	0007879b          	sext.w	a5,a5
    60015344:	0097d79b          	srliw	a5,a5,0x9
    60015348:	0007879b          	sext.w	a5,a5
    6001534c:	00f77663          	bgeu	a4,a5,60015358 <find_volume+0x8c8>
    60015350:	00d00793          	li	a5,13
    60015354:	2f80006f          	j	6001564c <find_volume+0xbbc>
    60015358:	fc843783          	ld	a5,-56(s0)
    6001535c:	fff00713          	li	a4,-1
    60015360:	00e7a823          	sw	a4,16(a5)
    60015364:	fc843783          	ld	a5,-56(s0)
    60015368:	0107a703          	lw	a4,16(a5)
    6001536c:	fc843783          	ld	a5,-56(s0)
    60015370:	00e7a623          	sw	a4,12(a5)
    60015374:	fc843783          	ld	a5,-56(s0)
    60015378:	f8000713          	li	a4,-128
    6001537c:	00e782a3          	sb	a4,5(a5)
    60015380:	fef44783          	lbu	a5,-17(s0)
    60015384:	0ff7f713          	andi	a4,a5,255
    60015388:	00300793          	li	a5,3
    6001538c:	26f71e63          	bne	a4,a5,60015608 <find_volume+0xb78>
    60015390:	fc843783          	ld	a5,-56(s0)
    60015394:	0657c783          	lbu	a5,101(a5)
    60015398:	0007879b          	sext.w	a5,a5
    6001539c:	0087979b          	slliw	a5,a5,0x8
    600153a0:	0007879b          	sext.w	a5,a5
    600153a4:	0107971b          	slliw	a4,a5,0x10
    600153a8:	4107571b          	sraiw	a4,a4,0x10
    600153ac:	fc843783          	ld	a5,-56(s0)
    600153b0:	0647c783          	lbu	a5,100(a5)
    600153b4:	0107979b          	slliw	a5,a5,0x10
    600153b8:	4107d79b          	sraiw	a5,a5,0x10
    600153bc:	00f767b3          	or	a5,a4,a5
    600153c0:	0107979b          	slliw	a5,a5,0x10
    600153c4:	4107d79b          	sraiw	a5,a5,0x10
    600153c8:	0007871b          	sext.w	a4,a5
    600153cc:	00100793          	li	a5,1
    600153d0:	22f71c63          	bne	a4,a5,60015608 <find_volume+0xb78>
    600153d4:	fe842783          	lw	a5,-24(s0)
    600153d8:	0017879b          	addiw	a5,a5,1
    600153dc:	0007879b          	sext.w	a5,a5
    600153e0:	00078593          	mv	a1,a5
    600153e4:	fc843503          	ld	a0,-56(s0)
    600153e8:	ef1fc0ef          	jal	ra,600122d8 <move_window>
    600153ec:	00050793          	mv	a5,a0
    600153f0:	0007879b          	sext.w	a5,a5
    600153f4:	20079a63          	bnez	a5,60015608 <find_volume+0xb78>
    600153f8:	fc843783          	ld	a5,-56(s0)
    600153fc:	000782a3          	sb	zero,5(a5)
    60015400:	fc843783          	ld	a5,-56(s0)
    60015404:	2337c783          	lbu	a5,563(a5)
    60015408:	0007879b          	sext.w	a5,a5
    6001540c:	0087979b          	slliw	a5,a5,0x8
    60015410:	0007879b          	sext.w	a5,a5
    60015414:	0107971b          	slliw	a4,a5,0x10
    60015418:	4107571b          	sraiw	a4,a4,0x10
    6001541c:	fc843783          	ld	a5,-56(s0)
    60015420:	2327c783          	lbu	a5,562(a5)
    60015424:	0107979b          	slliw	a5,a5,0x10
    60015428:	4107d79b          	sraiw	a5,a5,0x10
    6001542c:	00f767b3          	or	a5,a4,a5
    60015430:	0107979b          	slliw	a5,a5,0x10
    60015434:	4107d79b          	sraiw	a5,a5,0x10
    60015438:	0007871b          	sext.w	a4,a5
    6001543c:	ffffb7b7          	lui	a5,0xffffb
    60015440:	a5578793          	addi	a5,a5,-1451 # ffffffffffffaa55 <Stat+0xffffffff9ffdab45>
    60015444:	1cf71263          	bne	a4,a5,60015608 <find_volume+0xb78>
    60015448:	fc843783          	ld	a5,-56(s0)
    6001544c:	0377c783          	lbu	a5,55(a5)
    60015450:	0007879b          	sext.w	a5,a5
    60015454:	0187979b          	slliw	a5,a5,0x18
    60015458:	0007871b          	sext.w	a4,a5
    6001545c:	fc843783          	ld	a5,-56(s0)
    60015460:	0367c783          	lbu	a5,54(a5)
    60015464:	0007879b          	sext.w	a5,a5
    60015468:	0107979b          	slliw	a5,a5,0x10
    6001546c:	0007879b          	sext.w	a5,a5
    60015470:	00f767b3          	or	a5,a4,a5
    60015474:	0007871b          	sext.w	a4,a5
    60015478:	fc843783          	ld	a5,-56(s0)
    6001547c:	0357c783          	lbu	a5,53(a5)
    60015480:	0007879b          	sext.w	a5,a5
    60015484:	0087979b          	slliw	a5,a5,0x8
    60015488:	0007879b          	sext.w	a5,a5
    6001548c:	0007879b          	sext.w	a5,a5
    60015490:	00f767b3          	or	a5,a4,a5
    60015494:	0007871b          	sext.w	a4,a5
    60015498:	fc843783          	ld	a5,-56(s0)
    6001549c:	0347c783          	lbu	a5,52(a5)
    600154a0:	0007879b          	sext.w	a5,a5
    600154a4:	00f767b3          	or	a5,a4,a5
    600154a8:	0007879b          	sext.w	a5,a5
    600154ac:	00078713          	mv	a4,a5
    600154b0:	416157b7          	lui	a5,0x41615
    600154b4:	25278793          	addi	a5,a5,594 # 41615252 <_start-0x1e9fadae>
    600154b8:	14f71863          	bne	a4,a5,60015608 <find_volume+0xb78>
    600154bc:	fc843783          	ld	a5,-56(s0)
    600154c0:	21b7c783          	lbu	a5,539(a5)
    600154c4:	0007879b          	sext.w	a5,a5
    600154c8:	0187979b          	slliw	a5,a5,0x18
    600154cc:	0007871b          	sext.w	a4,a5
    600154d0:	fc843783          	ld	a5,-56(s0)
    600154d4:	21a7c783          	lbu	a5,538(a5)
    600154d8:	0007879b          	sext.w	a5,a5
    600154dc:	0107979b          	slliw	a5,a5,0x10
    600154e0:	0007879b          	sext.w	a5,a5
    600154e4:	00f767b3          	or	a5,a4,a5
    600154e8:	0007871b          	sext.w	a4,a5
    600154ec:	fc843783          	ld	a5,-56(s0)
    600154f0:	2197c783          	lbu	a5,537(a5)
    600154f4:	0007879b          	sext.w	a5,a5
    600154f8:	0087979b          	slliw	a5,a5,0x8
    600154fc:	0007879b          	sext.w	a5,a5
    60015500:	0007879b          	sext.w	a5,a5
    60015504:	00f767b3          	or	a5,a4,a5
    60015508:	0007871b          	sext.w	a4,a5
    6001550c:	fc843783          	ld	a5,-56(s0)
    60015510:	2187c783          	lbu	a5,536(a5)
    60015514:	0007879b          	sext.w	a5,a5
    60015518:	00f767b3          	or	a5,a4,a5
    6001551c:	0007879b          	sext.w	a5,a5
    60015520:	00078713          	mv	a4,a5
    60015524:	614177b7          	lui	a5,0x61417
    60015528:	27278793          	addi	a5,a5,626 # 61417272 <Stat+0x13f7362>
    6001552c:	0cf71e63          	bne	a4,a5,60015608 <find_volume+0xb78>
    60015530:	fc843783          	ld	a5,-56(s0)
    60015534:	21f7c783          	lbu	a5,543(a5)
    60015538:	0007879b          	sext.w	a5,a5
    6001553c:	0187979b          	slliw	a5,a5,0x18
    60015540:	0007871b          	sext.w	a4,a5
    60015544:	fc843783          	ld	a5,-56(s0)
    60015548:	21e7c783          	lbu	a5,542(a5)
    6001554c:	0007879b          	sext.w	a5,a5
    60015550:	0107979b          	slliw	a5,a5,0x10
    60015554:	0007879b          	sext.w	a5,a5
    60015558:	00f767b3          	or	a5,a4,a5
    6001555c:	0007871b          	sext.w	a4,a5
    60015560:	fc843783          	ld	a5,-56(s0)
    60015564:	21d7c783          	lbu	a5,541(a5)
    60015568:	0007879b          	sext.w	a5,a5
    6001556c:	0087979b          	slliw	a5,a5,0x8
    60015570:	0007879b          	sext.w	a5,a5
    60015574:	0007879b          	sext.w	a5,a5
    60015578:	00f767b3          	or	a5,a4,a5
    6001557c:	0007871b          	sext.w	a4,a5
    60015580:	fc843783          	ld	a5,-56(s0)
    60015584:	21c7c783          	lbu	a5,540(a5)
    60015588:	0007879b          	sext.w	a5,a5
    6001558c:	00f767b3          	or	a5,a4,a5
    60015590:	0007871b          	sext.w	a4,a5
    60015594:	fc843783          	ld	a5,-56(s0)
    60015598:	00e7a823          	sw	a4,16(a5)
    6001559c:	fc843783          	ld	a5,-56(s0)
    600155a0:	2237c783          	lbu	a5,547(a5)
    600155a4:	0007879b          	sext.w	a5,a5
    600155a8:	0187979b          	slliw	a5,a5,0x18
    600155ac:	0007871b          	sext.w	a4,a5
    600155b0:	fc843783          	ld	a5,-56(s0)
    600155b4:	2227c783          	lbu	a5,546(a5)
    600155b8:	0007879b          	sext.w	a5,a5
    600155bc:	0107979b          	slliw	a5,a5,0x10
    600155c0:	0007879b          	sext.w	a5,a5
    600155c4:	00f767b3          	or	a5,a4,a5
    600155c8:	0007871b          	sext.w	a4,a5
    600155cc:	fc843783          	ld	a5,-56(s0)
    600155d0:	2217c783          	lbu	a5,545(a5)
    600155d4:	0007879b          	sext.w	a5,a5
    600155d8:	0087979b          	slliw	a5,a5,0x8
    600155dc:	0007879b          	sext.w	a5,a5
    600155e0:	0007879b          	sext.w	a5,a5
    600155e4:	00f767b3          	or	a5,a4,a5
    600155e8:	0007871b          	sext.w	a4,a5
    600155ec:	fc843783          	ld	a5,-56(s0)
    600155f0:	2207c783          	lbu	a5,544(a5)
    600155f4:	0007879b          	sext.w	a5,a5
    600155f8:	00f767b3          	or	a5,a4,a5
    600155fc:	0007871b          	sext.w	a4,a5
    60015600:	fc843783          	ld	a5,-56(s0)
    60015604:	00e7a623          	sw	a4,12(a5)
    60015608:	fc843783          	ld	a5,-56(s0)
    6001560c:	fef44703          	lbu	a4,-17(s0)
    60015610:	00e78023          	sb	a4,0(a5)
    60015614:	6001a7b7          	lui	a5,0x6001a
    60015618:	2d07d783          	lhu	a5,720(a5) # 6001a2d0 <Fsid>
    6001561c:	0017879b          	addiw	a5,a5,1
    60015620:	03079713          	slli	a4,a5,0x30
    60015624:	03075713          	srli	a4,a4,0x30
    60015628:	6001a7b7          	lui	a5,0x6001a
    6001562c:	2ce79823          	sh	a4,720(a5) # 6001a2d0 <Fsid>
    60015630:	6001a7b7          	lui	a5,0x6001a
    60015634:	2d07d703          	lhu	a4,720(a5) # 6001a2d0 <Fsid>
    60015638:	fc843783          	ld	a5,-56(s0)
    6001563c:	00e79323          	sh	a4,6(a5)
    60015640:	fc843783          	ld	a5,-56(s0)
    60015644:	0007aa23          	sw	zero,20(a5)
    60015648:	00000793          	li	a5,0
    6001564c:	00078513          	mv	a0,a5
    60015650:	08813083          	ld	ra,136(sp)
    60015654:	08013403          	ld	s0,128(sp)
    60015658:	09010113          	addi	sp,sp,144
    6001565c:	00008067          	ret

0000000060015660 <validate>:
    60015660:	fd010113          	addi	sp,sp,-48
    60015664:	02113423          	sd	ra,40(sp)
    60015668:	02813023          	sd	s0,32(sp)
    6001566c:	03010413          	addi	s0,sp,48
    60015670:	fca43c23          	sd	a0,-40(s0)
    60015674:	fd843783          	ld	a5,-40(s0)
    60015678:	fef43423          	sd	a5,-24(s0)
    6001567c:	fe843783          	ld	a5,-24(s0)
    60015680:	06078463          	beqz	a5,600156e8 <validate+0x88>
    60015684:	fe843783          	ld	a5,-24(s0)
    60015688:	0007b783          	ld	a5,0(a5)
    6001568c:	04078e63          	beqz	a5,600156e8 <validate+0x88>
    60015690:	fe843783          	ld	a5,-24(s0)
    60015694:	0007b783          	ld	a5,0(a5)
    60015698:	0007c783          	lbu	a5,0(a5)
    6001569c:	04078663          	beqz	a5,600156e8 <validate+0x88>
    600156a0:	fe843783          	ld	a5,-24(s0)
    600156a4:	0007b783          	ld	a5,0(a5)
    600156a8:	0067d703          	lhu	a4,6(a5)
    600156ac:	fe843783          	ld	a5,-24(s0)
    600156b0:	0087d783          	lhu	a5,8(a5)
    600156b4:	0007071b          	sext.w	a4,a4
    600156b8:	0007879b          	sext.w	a5,a5
    600156bc:	02f71663          	bne	a4,a5,600156e8 <validate+0x88>
    600156c0:	fe843783          	ld	a5,-24(s0)
    600156c4:	0007b783          	ld	a5,0(a5)
    600156c8:	0017c783          	lbu	a5,1(a5)
    600156cc:	00078513          	mv	a0,a5
    600156d0:	818fc0ef          	jal	ra,600116e8 <disk_status>
    600156d4:	00050793          	mv	a5,a0
    600156d8:	0007879b          	sext.w	a5,a5
    600156dc:	0017f793          	andi	a5,a5,1
    600156e0:	0007879b          	sext.w	a5,a5
    600156e4:	00078663          	beqz	a5,600156f0 <validate+0x90>
    600156e8:	00900793          	li	a5,9
    600156ec:	0080006f          	j	600156f4 <validate+0x94>
    600156f0:	00000793          	li	a5,0
    600156f4:	00078513          	mv	a0,a5
    600156f8:	02813083          	ld	ra,40(sp)
    600156fc:	02013403          	ld	s0,32(sp)
    60015700:	03010113          	addi	sp,sp,48
    60015704:	00008067          	ret

0000000060015708 <f_mount>:
    60015708:	fb010113          	addi	sp,sp,-80
    6001570c:	04113423          	sd	ra,72(sp)
    60015710:	04813023          	sd	s0,64(sp)
    60015714:	05010413          	addi	s0,sp,80
    60015718:	fca43423          	sd	a0,-56(s0)
    6001571c:	fcb43023          	sd	a1,-64(s0)
    60015720:	00060793          	mv	a5,a2
    60015724:	faf40fa3          	sb	a5,-65(s0)
    60015728:	fc043783          	ld	a5,-64(s0)
    6001572c:	fcf43823          	sd	a5,-48(s0)
    60015730:	fd040793          	addi	a5,s0,-48
    60015734:	00078513          	mv	a0,a5
    60015738:	828ff0ef          	jal	ra,60014760 <get_ldnumber>
    6001573c:	00050793          	mv	a5,a0
    60015740:	fef42623          	sw	a5,-20(s0)
    60015744:	fec42783          	lw	a5,-20(s0)
    60015748:	0007879b          	sext.w	a5,a5
    6001574c:	0007d663          	bgez	a5,60015758 <f_mount+0x50>
    60015750:	00b00793          	li	a5,11
    60015754:	0a00006f          	j	600157f4 <f_mount+0xec>
    60015758:	6001a7b7          	lui	a5,0x6001a
    6001575c:	fec42703          	lw	a4,-20(s0)
    60015760:	00371713          	slli	a4,a4,0x3
    60015764:	2c078793          	addi	a5,a5,704 # 6001a2c0 <FatFs>
    60015768:	00f707b3          	add	a5,a4,a5
    6001576c:	0007b783          	ld	a5,0(a5)
    60015770:	fef43023          	sd	a5,-32(s0)
    60015774:	fe043783          	ld	a5,-32(s0)
    60015778:	00078663          	beqz	a5,60015784 <f_mount+0x7c>
    6001577c:	fe043783          	ld	a5,-32(s0)
    60015780:	00078023          	sb	zero,0(a5)
    60015784:	fc843783          	ld	a5,-56(s0)
    60015788:	00078663          	beqz	a5,60015794 <f_mount+0x8c>
    6001578c:	fc843783          	ld	a5,-56(s0)
    60015790:	00078023          	sb	zero,0(a5)
    60015794:	fc843703          	ld	a4,-56(s0)
    60015798:	6001a7b7          	lui	a5,0x6001a
    6001579c:	fec42683          	lw	a3,-20(s0)
    600157a0:	00369693          	slli	a3,a3,0x3
    600157a4:	2c078793          	addi	a5,a5,704 # 6001a2c0 <FatFs>
    600157a8:	00f687b3          	add	a5,a3,a5
    600157ac:	00e7b023          	sd	a4,0(a5)
    600157b0:	fc843783          	ld	a5,-56(s0)
    600157b4:	00078a63          	beqz	a5,600157c8 <f_mount+0xc0>
    600157b8:	fbf44783          	lbu	a5,-65(s0)
    600157bc:	0ff7f713          	andi	a4,a5,255
    600157c0:	00100793          	li	a5,1
    600157c4:	00f70663          	beq	a4,a5,600157d0 <f_mount+0xc8>
    600157c8:	00000793          	li	a5,0
    600157cc:	0280006f          	j	600157f4 <f_mount+0xec>
    600157d0:	fc040713          	addi	a4,s0,-64
    600157d4:	fc840793          	addi	a5,s0,-56
    600157d8:	00000613          	li	a2,0
    600157dc:	00070593          	mv	a1,a4
    600157e0:	00078513          	mv	a0,a5
    600157e4:	aacff0ef          	jal	ra,60014a90 <find_volume>
    600157e8:	00050793          	mv	a5,a0
    600157ec:	fcf42e23          	sw	a5,-36(s0)
    600157f0:	fdc42783          	lw	a5,-36(s0)
    600157f4:	00078513          	mv	a0,a5
    600157f8:	04813083          	ld	ra,72(sp)
    600157fc:	04013403          	ld	s0,64(sp)
    60015800:	05010113          	addi	sp,sp,80
    60015804:	00008067          	ret

0000000060015808 <f_open>:
    60015808:	f8010113          	addi	sp,sp,-128
    6001580c:	06113c23          	sd	ra,120(sp)
    60015810:	06813823          	sd	s0,112(sp)
    60015814:	08010413          	addi	s0,sp,128
    60015818:	f8a43c23          	sd	a0,-104(s0)
    6001581c:	f8b43823          	sd	a1,-112(s0)
    60015820:	00060793          	mv	a5,a2
    60015824:	f8f407a3          	sb	a5,-113(s0)
    60015828:	f9843783          	ld	a5,-104(s0)
    6001582c:	00079663          	bnez	a5,60015838 <f_open+0x30>
    60015830:	00900793          	li	a5,9
    60015834:	4cc0006f          	j	60015d00 <f_open+0x4f8>
    60015838:	f9843783          	ld	a5,-104(s0)
    6001583c:	0007b023          	sd	zero,0(a5)
    60015840:	f8f44783          	lbu	a5,-113(s0)
    60015844:	01f7f793          	andi	a5,a5,31
    60015848:	f8f407a3          	sb	a5,-113(s0)
    6001584c:	f8f44783          	lbu	a5,-113(s0)
    60015850:	ffe7f793          	andi	a5,a5,-2
    60015854:	0ff7f693          	andi	a3,a5,255
    60015858:	f9040713          	addi	a4,s0,-112
    6001585c:	fb040793          	addi	a5,s0,-80
    60015860:	00068613          	mv	a2,a3
    60015864:	00070593          	mv	a1,a4
    60015868:	00078513          	mv	a0,a5
    6001586c:	a24ff0ef          	jal	ra,60014a90 <find_volume>
    60015870:	00050793          	mv	a5,a0
    60015874:	fef42623          	sw	a5,-20(s0)
    60015878:	fec42783          	lw	a5,-20(s0)
    6001587c:	0007879b          	sext.w	a5,a5
    60015880:	46079e63          	bnez	a5,60015cfc <f_open+0x4f4>
    60015884:	fa040793          	addi	a5,s0,-96
    60015888:	fcf43823          	sd	a5,-48(s0)
    6001588c:	f9043703          	ld	a4,-112(s0)
    60015890:	fb040793          	addi	a5,s0,-80
    60015894:	00070593          	mv	a1,a4
    60015898:	00078513          	mv	a0,a5
    6001589c:	cc1fe0ef          	jal	ra,6001455c <follow_path>
    600158a0:	00050793          	mv	a5,a0
    600158a4:	fef42623          	sw	a5,-20(s0)
    600158a8:	fc843783          	ld	a5,-56(s0)
    600158ac:	fef43023          	sd	a5,-32(s0)
    600158b0:	fec42783          	lw	a5,-20(s0)
    600158b4:	0007879b          	sext.w	a5,a5
    600158b8:	00079a63          	bnez	a5,600158cc <f_open+0xc4>
    600158bc:	fe043783          	ld	a5,-32(s0)
    600158c0:	00079663          	bnez	a5,600158cc <f_open+0xc4>
    600158c4:	00600793          	li	a5,6
    600158c8:	fef42623          	sw	a5,-20(s0)
    600158cc:	f8f44783          	lbu	a5,-113(s0)
    600158d0:	0007879b          	sext.w	a5,a5
    600158d4:	01c7f793          	andi	a5,a5,28
    600158d8:	0007879b          	sext.w	a5,a5
    600158dc:	28078063          	beqz	a5,60015b5c <f_open+0x354>
    600158e0:	fec42783          	lw	a5,-20(s0)
    600158e4:	0007879b          	sext.w	a5,a5
    600158e8:	04078063          	beqz	a5,60015928 <f_open+0x120>
    600158ec:	fec42783          	lw	a5,-20(s0)
    600158f0:	0007871b          	sext.w	a4,a5
    600158f4:	00400793          	li	a5,4
    600158f8:	00f71c63          	bne	a4,a5,60015910 <f_open+0x108>
    600158fc:	fb040793          	addi	a5,s0,-80
    60015900:	00078513          	mv	a0,a5
    60015904:	c94fe0ef          	jal	ra,60013d98 <dir_register>
    60015908:	00050793          	mv	a5,a0
    6001590c:	fef42623          	sw	a5,-20(s0)
    60015910:	f8f44783          	lbu	a5,-113(s0)
    60015914:	0087e793          	ori	a5,a5,8
    60015918:	f8f407a3          	sb	a5,-113(s0)
    6001591c:	fc843783          	ld	a5,-56(s0)
    60015920:	fef43023          	sd	a5,-32(s0)
    60015924:	0480006f          	j	6001596c <f_open+0x164>
    60015928:	fe043783          	ld	a5,-32(s0)
    6001592c:	00b78793          	addi	a5,a5,11
    60015930:	0007c783          	lbu	a5,0(a5)
    60015934:	0007879b          	sext.w	a5,a5
    60015938:	0117f793          	andi	a5,a5,17
    6001593c:	0007879b          	sext.w	a5,a5
    60015940:	00078863          	beqz	a5,60015950 <f_open+0x148>
    60015944:	00700793          	li	a5,7
    60015948:	fef42623          	sw	a5,-20(s0)
    6001594c:	0200006f          	j	6001596c <f_open+0x164>
    60015950:	f8f44783          	lbu	a5,-113(s0)
    60015954:	0007879b          	sext.w	a5,a5
    60015958:	0047f793          	andi	a5,a5,4
    6001595c:	0007879b          	sext.w	a5,a5
    60015960:	00078663          	beqz	a5,6001596c <f_open+0x164>
    60015964:	00800793          	li	a5,8
    60015968:	fef42623          	sw	a5,-20(s0)
    6001596c:	fec42783          	lw	a5,-20(s0)
    60015970:	0007879b          	sext.w	a5,a5
    60015974:	24079a63          	bnez	a5,60015bc8 <f_open+0x3c0>
    60015978:	f8f44783          	lbu	a5,-113(s0)
    6001597c:	0007879b          	sext.w	a5,a5
    60015980:	0087f793          	andi	a5,a5,8
    60015984:	0007879b          	sext.w	a5,a5
    60015988:	24078063          	beqz	a5,60015bc8 <f_open+0x3c0>
    6001598c:	462107b7          	lui	a5,0x46210
    60015990:	fcf42e23          	sw	a5,-36(s0)
    60015994:	fe043783          	ld	a5,-32(s0)
    60015998:	00e78793          	addi	a5,a5,14 # 4621000e <_start-0x19dffff2>
    6001599c:	fdc42703          	lw	a4,-36(s0)
    600159a0:	0ff77713          	andi	a4,a4,255
    600159a4:	00e78023          	sb	a4,0(a5)
    600159a8:	fdc42783          	lw	a5,-36(s0)
    600159ac:	03079793          	slli	a5,a5,0x30
    600159b0:	0307d793          	srli	a5,a5,0x30
    600159b4:	0087d79b          	srliw	a5,a5,0x8
    600159b8:	03079713          	slli	a4,a5,0x30
    600159bc:	03075713          	srli	a4,a4,0x30
    600159c0:	fe043783          	ld	a5,-32(s0)
    600159c4:	00f78793          	addi	a5,a5,15
    600159c8:	0ff77713          	andi	a4,a4,255
    600159cc:	00e78023          	sb	a4,0(a5)
    600159d0:	fdc42783          	lw	a5,-36(s0)
    600159d4:	0107d79b          	srliw	a5,a5,0x10
    600159d8:	0007871b          	sext.w	a4,a5
    600159dc:	fe043783          	ld	a5,-32(s0)
    600159e0:	01078793          	addi	a5,a5,16
    600159e4:	0ff77713          	andi	a4,a4,255
    600159e8:	00e78023          	sb	a4,0(a5)
    600159ec:	fdc42783          	lw	a5,-36(s0)
    600159f0:	0187d79b          	srliw	a5,a5,0x18
    600159f4:	0007871b          	sext.w	a4,a5
    600159f8:	fe043783          	ld	a5,-32(s0)
    600159fc:	01178793          	addi	a5,a5,17
    60015a00:	0ff77713          	andi	a4,a4,255
    60015a04:	00e78023          	sb	a4,0(a5)
    60015a08:	fe043783          	ld	a5,-32(s0)
    60015a0c:	01678793          	addi	a5,a5,22
    60015a10:	fdc42703          	lw	a4,-36(s0)
    60015a14:	0ff77713          	andi	a4,a4,255
    60015a18:	00e78023          	sb	a4,0(a5)
    60015a1c:	fdc42783          	lw	a5,-36(s0)
    60015a20:	03079793          	slli	a5,a5,0x30
    60015a24:	0307d793          	srli	a5,a5,0x30
    60015a28:	0087d79b          	srliw	a5,a5,0x8
    60015a2c:	03079713          	slli	a4,a5,0x30
    60015a30:	03075713          	srli	a4,a4,0x30
    60015a34:	fe043783          	ld	a5,-32(s0)
    60015a38:	01778793          	addi	a5,a5,23
    60015a3c:	0ff77713          	andi	a4,a4,255
    60015a40:	00e78023          	sb	a4,0(a5)
    60015a44:	fdc42783          	lw	a5,-36(s0)
    60015a48:	0107d79b          	srliw	a5,a5,0x10
    60015a4c:	0007871b          	sext.w	a4,a5
    60015a50:	fe043783          	ld	a5,-32(s0)
    60015a54:	01878793          	addi	a5,a5,24
    60015a58:	0ff77713          	andi	a4,a4,255
    60015a5c:	00e78023          	sb	a4,0(a5)
    60015a60:	fdc42783          	lw	a5,-36(s0)
    60015a64:	0187d79b          	srliw	a5,a5,0x18
    60015a68:	0007871b          	sext.w	a4,a5
    60015a6c:	fe043783          	ld	a5,-32(s0)
    60015a70:	01978793          	addi	a5,a5,25
    60015a74:	0ff77713          	andi	a4,a4,255
    60015a78:	00e78023          	sb	a4,0(a5)
    60015a7c:	fe043783          	ld	a5,-32(s0)
    60015a80:	00b78793          	addi	a5,a5,11
    60015a84:	00078023          	sb	zero,0(a5)
    60015a88:	fe043783          	ld	a5,-32(s0)
    60015a8c:	01c78793          	addi	a5,a5,28
    60015a90:	00078023          	sb	zero,0(a5)
    60015a94:	fe043783          	ld	a5,-32(s0)
    60015a98:	01d78793          	addi	a5,a5,29
    60015a9c:	00078023          	sb	zero,0(a5)
    60015aa0:	fe043783          	ld	a5,-32(s0)
    60015aa4:	01e78793          	addi	a5,a5,30
    60015aa8:	00078023          	sb	zero,0(a5)
    60015aac:	fe043783          	ld	a5,-32(s0)
    60015ab0:	01f78793          	addi	a5,a5,31
    60015ab4:	00078023          	sb	zero,0(a5)
    60015ab8:	fb043783          	ld	a5,-80(s0)
    60015abc:	fe043583          	ld	a1,-32(s0)
    60015ac0:	00078513          	mv	a0,a5
    60015ac4:	eb5fd0ef          	jal	ra,60013978 <ld_clust>
    60015ac8:	00050793          	mv	a5,a0
    60015acc:	fcf42c23          	sw	a5,-40(s0)
    60015ad0:	00000593          	li	a1,0
    60015ad4:	fe043503          	ld	a0,-32(s0)
    60015ad8:	f91fd0ef          	jal	ra,60013a68 <st_clust>
    60015adc:	fb043783          	ld	a5,-80(s0)
    60015ae0:	00100713          	li	a4,1
    60015ae4:	00e78223          	sb	a4,4(a5)
    60015ae8:	fd842783          	lw	a5,-40(s0)
    60015aec:	0007879b          	sext.w	a5,a5
    60015af0:	0c078c63          	beqz	a5,60015bc8 <f_open+0x3c0>
    60015af4:	fb043783          	ld	a5,-80(s0)
    60015af8:	0307a783          	lw	a5,48(a5)
    60015afc:	fcf42e23          	sw	a5,-36(s0)
    60015b00:	fb043783          	ld	a5,-80(s0)
    60015b04:	fd842703          	lw	a4,-40(s0)
    60015b08:	00070593          	mv	a1,a4
    60015b0c:	00078513          	mv	a0,a5
    60015b10:	bc8fd0ef          	jal	ra,60012ed8 <remove_chain>
    60015b14:	00050793          	mv	a5,a0
    60015b18:	fef42623          	sw	a5,-20(s0)
    60015b1c:	fec42783          	lw	a5,-20(s0)
    60015b20:	0007879b          	sext.w	a5,a5
    60015b24:	0a079263          	bnez	a5,60015bc8 <f_open+0x3c0>
    60015b28:	fb043783          	ld	a5,-80(s0)
    60015b2c:	fd842703          	lw	a4,-40(s0)
    60015b30:	fff7071b          	addiw	a4,a4,-1
    60015b34:	0007071b          	sext.w	a4,a4
    60015b38:	00e7a623          	sw	a4,12(a5)
    60015b3c:	fb043783          	ld	a5,-80(s0)
    60015b40:	fdc42703          	lw	a4,-36(s0)
    60015b44:	00070593          	mv	a1,a4
    60015b48:	00078513          	mv	a0,a5
    60015b4c:	f8cfc0ef          	jal	ra,600122d8 <move_window>
    60015b50:	00050793          	mv	a5,a0
    60015b54:	fef42623          	sw	a5,-20(s0)
    60015b58:	0700006f          	j	60015bc8 <f_open+0x3c0>
    60015b5c:	fec42783          	lw	a5,-20(s0)
    60015b60:	0007879b          	sext.w	a5,a5
    60015b64:	06079263          	bnez	a5,60015bc8 <f_open+0x3c0>
    60015b68:	fe043783          	ld	a5,-32(s0)
    60015b6c:	00b78793          	addi	a5,a5,11
    60015b70:	0007c783          	lbu	a5,0(a5)
    60015b74:	0007879b          	sext.w	a5,a5
    60015b78:	0107f793          	andi	a5,a5,16
    60015b7c:	0007879b          	sext.w	a5,a5
    60015b80:	00078863          	beqz	a5,60015b90 <f_open+0x388>
    60015b84:	00400793          	li	a5,4
    60015b88:	fef42623          	sw	a5,-20(s0)
    60015b8c:	03c0006f          	j	60015bc8 <f_open+0x3c0>
    60015b90:	f8f44783          	lbu	a5,-113(s0)
    60015b94:	0007879b          	sext.w	a5,a5
    60015b98:	0027f793          	andi	a5,a5,2
    60015b9c:	0007879b          	sext.w	a5,a5
    60015ba0:	02078463          	beqz	a5,60015bc8 <f_open+0x3c0>
    60015ba4:	fe043783          	ld	a5,-32(s0)
    60015ba8:	00b78793          	addi	a5,a5,11
    60015bac:	0007c783          	lbu	a5,0(a5)
    60015bb0:	0007879b          	sext.w	a5,a5
    60015bb4:	0017f793          	andi	a5,a5,1
    60015bb8:	0007879b          	sext.w	a5,a5
    60015bbc:	00078663          	beqz	a5,60015bc8 <f_open+0x3c0>
    60015bc0:	00700793          	li	a5,7
    60015bc4:	fef42623          	sw	a5,-20(s0)
    60015bc8:	fec42783          	lw	a5,-20(s0)
    60015bcc:	0007879b          	sext.w	a5,a5
    60015bd0:	04079063          	bnez	a5,60015c10 <f_open+0x408>
    60015bd4:	f8f44783          	lbu	a5,-113(s0)
    60015bd8:	0007879b          	sext.w	a5,a5
    60015bdc:	0087f793          	andi	a5,a5,8
    60015be0:	0007879b          	sext.w	a5,a5
    60015be4:	00078863          	beqz	a5,60015bf4 <f_open+0x3ec>
    60015be8:	f8f44783          	lbu	a5,-113(s0)
    60015bec:	0207e793          	ori	a5,a5,32
    60015bf0:	f8f407a3          	sb	a5,-113(s0)
    60015bf4:	fb043783          	ld	a5,-80(s0)
    60015bf8:	0307a703          	lw	a4,48(a5)
    60015bfc:	f9843783          	ld	a5,-104(s0)
    60015c00:	02e7a023          	sw	a4,32(a5)
    60015c04:	f9843783          	ld	a5,-104(s0)
    60015c08:	fe043703          	ld	a4,-32(s0)
    60015c0c:	02e7b423          	sd	a4,40(a5)
    60015c10:	fec42783          	lw	a5,-20(s0)
    60015c14:	0007879b          	sext.w	a5,a5
    60015c18:	0e079263          	bnez	a5,60015cfc <f_open+0x4f4>
    60015c1c:	f9843783          	ld	a5,-104(s0)
    60015c20:	f8f44703          	lbu	a4,-113(s0)
    60015c24:	00e78523          	sb	a4,10(a5)
    60015c28:	f9843783          	ld	a5,-104(s0)
    60015c2c:	000785a3          	sb	zero,11(a5)
    60015c30:	fb043783          	ld	a5,-80(s0)
    60015c34:	fe043583          	ld	a1,-32(s0)
    60015c38:	00078513          	mv	a0,a5
    60015c3c:	d3dfd0ef          	jal	ra,60013978 <ld_clust>
    60015c40:	00050793          	mv	a5,a0
    60015c44:	0007871b          	sext.w	a4,a5
    60015c48:	f9843783          	ld	a5,-104(s0)
    60015c4c:	00e7aa23          	sw	a4,20(a5)
    60015c50:	fe043783          	ld	a5,-32(s0)
    60015c54:	01f78793          	addi	a5,a5,31
    60015c58:	0007c783          	lbu	a5,0(a5)
    60015c5c:	0007879b          	sext.w	a5,a5
    60015c60:	0187979b          	slliw	a5,a5,0x18
    60015c64:	0007871b          	sext.w	a4,a5
    60015c68:	fe043783          	ld	a5,-32(s0)
    60015c6c:	01e78793          	addi	a5,a5,30
    60015c70:	0007c783          	lbu	a5,0(a5)
    60015c74:	0007879b          	sext.w	a5,a5
    60015c78:	0107979b          	slliw	a5,a5,0x10
    60015c7c:	0007879b          	sext.w	a5,a5
    60015c80:	00f767b3          	or	a5,a4,a5
    60015c84:	0007871b          	sext.w	a4,a5
    60015c88:	fe043783          	ld	a5,-32(s0)
    60015c8c:	01d78793          	addi	a5,a5,29
    60015c90:	0007c783          	lbu	a5,0(a5)
    60015c94:	0007879b          	sext.w	a5,a5
    60015c98:	0087979b          	slliw	a5,a5,0x8
    60015c9c:	0007879b          	sext.w	a5,a5
    60015ca0:	0007879b          	sext.w	a5,a5
    60015ca4:	00f767b3          	or	a5,a4,a5
    60015ca8:	0007871b          	sext.w	a4,a5
    60015cac:	fe043783          	ld	a5,-32(s0)
    60015cb0:	01c78793          	addi	a5,a5,28
    60015cb4:	0007c783          	lbu	a5,0(a5)
    60015cb8:	0007879b          	sext.w	a5,a5
    60015cbc:	00f767b3          	or	a5,a4,a5
    60015cc0:	0007871b          	sext.w	a4,a5
    60015cc4:	f9843783          	ld	a5,-104(s0)
    60015cc8:	00e7a823          	sw	a4,16(a5)
    60015ccc:	f9843783          	ld	a5,-104(s0)
    60015cd0:	0007a623          	sw	zero,12(a5)
    60015cd4:	f9843783          	ld	a5,-104(s0)
    60015cd8:	0007ae23          	sw	zero,28(a5)
    60015cdc:	fb043703          	ld	a4,-80(s0)
    60015ce0:	f9843783          	ld	a5,-104(s0)
    60015ce4:	00e7b023          	sd	a4,0(a5)
    60015ce8:	f9843783          	ld	a5,-104(s0)
    60015cec:	0007b783          	ld	a5,0(a5)
    60015cf0:	0067d703          	lhu	a4,6(a5)
    60015cf4:	f9843783          	ld	a5,-104(s0)
    60015cf8:	00e79423          	sh	a4,8(a5)
    60015cfc:	fec42783          	lw	a5,-20(s0)
    60015d00:	00078513          	mv	a0,a5
    60015d04:	07813083          	ld	ra,120(sp)
    60015d08:	07013403          	ld	s0,112(sp)
    60015d0c:	08010113          	addi	sp,sp,128
    60015d10:	00008067          	ret

0000000060015d14 <f_read>:
    60015d14:	fa010113          	addi	sp,sp,-96
    60015d18:	04113c23          	sd	ra,88(sp)
    60015d1c:	04813823          	sd	s0,80(sp)
    60015d20:	06010413          	addi	s0,sp,96
    60015d24:	faa43c23          	sd	a0,-72(s0)
    60015d28:	fab43823          	sd	a1,-80(s0)
    60015d2c:	00060793          	mv	a5,a2
    60015d30:	fad43023          	sd	a3,-96(s0)
    60015d34:	faf42623          	sw	a5,-84(s0)
    60015d38:	fb043783          	ld	a5,-80(s0)
    60015d3c:	fcf43c23          	sd	a5,-40(s0)
    60015d40:	fa043783          	ld	a5,-96(s0)
    60015d44:	0007a023          	sw	zero,0(a5)
    60015d48:	fb843503          	ld	a0,-72(s0)
    60015d4c:	915ff0ef          	jal	ra,60015660 <validate>
    60015d50:	00050793          	mv	a5,a0
    60015d54:	fcf42a23          	sw	a5,-44(s0)
    60015d58:	fd442783          	lw	a5,-44(s0)
    60015d5c:	0007879b          	sext.w	a5,a5
    60015d60:	00078663          	beqz	a5,60015d6c <f_read+0x58>
    60015d64:	fd442783          	lw	a5,-44(s0)
    60015d68:	4a40006f          	j	6001620c <f_read+0x4f8>
    60015d6c:	fb843783          	ld	a5,-72(s0)
    60015d70:	00b7c783          	lbu	a5,11(a5)
    60015d74:	00078a63          	beqz	a5,60015d88 <f_read+0x74>
    60015d78:	fb843783          	ld	a5,-72(s0)
    60015d7c:	00b7c783          	lbu	a5,11(a5)
    60015d80:	0007879b          	sext.w	a5,a5
    60015d84:	4880006f          	j	6001620c <f_read+0x4f8>
    60015d88:	fb843783          	ld	a5,-72(s0)
    60015d8c:	00a7c783          	lbu	a5,10(a5)
    60015d90:	0007879b          	sext.w	a5,a5
    60015d94:	0017f793          	andi	a5,a5,1
    60015d98:	0007879b          	sext.w	a5,a5
    60015d9c:	00079663          	bnez	a5,60015da8 <f_read+0x94>
    60015da0:	00700793          	li	a5,7
    60015da4:	4680006f          	j	6001620c <f_read+0x4f8>
    60015da8:	fb843783          	ld	a5,-72(s0)
    60015dac:	0107a703          	lw	a4,16(a5)
    60015db0:	fb843783          	ld	a5,-72(s0)
    60015db4:	00c7a783          	lw	a5,12(a5)
    60015db8:	40f707bb          	subw	a5,a4,a5
    60015dbc:	fcf42823          	sw	a5,-48(s0)
    60015dc0:	fac42703          	lw	a4,-84(s0)
    60015dc4:	fd042783          	lw	a5,-48(s0)
    60015dc8:	0007071b          	sext.w	a4,a4
    60015dcc:	0007879b          	sext.w	a5,a5
    60015dd0:	42e7f663          	bgeu	a5,a4,600161fc <f_read+0x4e8>
    60015dd4:	fd042783          	lw	a5,-48(s0)
    60015dd8:	faf42623          	sw	a5,-84(s0)
    60015ddc:	4200006f          	j	600161fc <f_read+0x4e8>
    60015de0:	fb843783          	ld	a5,-72(s0)
    60015de4:	00c7a783          	lw	a5,12(a5)
    60015de8:	1ff7f793          	andi	a5,a5,511
    60015dec:	0007879b          	sext.w	a5,a5
    60015df0:	34079263          	bnez	a5,60016134 <f_read+0x420>
    60015df4:	fb843783          	ld	a5,-72(s0)
    60015df8:	00c7a783          	lw	a5,12(a5)
    60015dfc:	0097d79b          	srliw	a5,a5,0x9
    60015e00:	0007879b          	sext.w	a5,a5
    60015e04:	0ff7f713          	andi	a4,a5,255
    60015e08:	fb843783          	ld	a5,-72(s0)
    60015e0c:	0007b783          	ld	a5,0(a5)
    60015e10:	0027c783          	lbu	a5,2(a5)
    60015e14:	fff7879b          	addiw	a5,a5,-1
    60015e18:	0ff7f793          	andi	a5,a5,255
    60015e1c:	00f777b3          	and	a5,a4,a5
    60015e20:	fcf407a3          	sb	a5,-49(s0)
    60015e24:	fcf44783          	lbu	a5,-49(s0)
    60015e28:	0ff7f793          	andi	a5,a5,255
    60015e2c:	08079c63          	bnez	a5,60015ec4 <f_read+0x1b0>
    60015e30:	fb843783          	ld	a5,-72(s0)
    60015e34:	00c7a783          	lw	a5,12(a5)
    60015e38:	00079a63          	bnez	a5,60015e4c <f_read+0x138>
    60015e3c:	fb843783          	ld	a5,-72(s0)
    60015e40:	0147a783          	lw	a5,20(a5)
    60015e44:	fef42623          	sw	a5,-20(s0)
    60015e48:	0280006f          	j	60015e70 <f_read+0x15c>
    60015e4c:	fb843783          	ld	a5,-72(s0)
    60015e50:	0007b703          	ld	a4,0(a5)
    60015e54:	fb843783          	ld	a5,-72(s0)
    60015e58:	0187a783          	lw	a5,24(a5)
    60015e5c:	00078593          	mv	a1,a5
    60015e60:	00070513          	mv	a0,a4
    60015e64:	805fc0ef          	jal	ra,60012668 <get_fat>
    60015e68:	00050793          	mv	a5,a0
    60015e6c:	fef42623          	sw	a5,-20(s0)
    60015e70:	fec42783          	lw	a5,-20(s0)
    60015e74:	0007871b          	sext.w	a4,a5
    60015e78:	00100793          	li	a5,1
    60015e7c:	00e7ec63          	bltu	a5,a4,60015e94 <f_read+0x180>
    60015e80:	fb843783          	ld	a5,-72(s0)
    60015e84:	00200713          	li	a4,2
    60015e88:	00e785a3          	sb	a4,11(a5)
    60015e8c:	00200793          	li	a5,2
    60015e90:	37c0006f          	j	6001620c <f_read+0x4f8>
    60015e94:	fec42783          	lw	a5,-20(s0)
    60015e98:	0007871b          	sext.w	a4,a5
    60015e9c:	fff00793          	li	a5,-1
    60015ea0:	00f71c63          	bne	a4,a5,60015eb8 <f_read+0x1a4>
    60015ea4:	fb843783          	ld	a5,-72(s0)
    60015ea8:	00100713          	li	a4,1
    60015eac:	00e785a3          	sb	a4,11(a5)
    60015eb0:	00100793          	li	a5,1
    60015eb4:	3580006f          	j	6001620c <f_read+0x4f8>
    60015eb8:	fb843783          	ld	a5,-72(s0)
    60015ebc:	fec42703          	lw	a4,-20(s0)
    60015ec0:	00e7ac23          	sw	a4,24(a5)
    60015ec4:	fb843783          	ld	a5,-72(s0)
    60015ec8:	0007b703          	ld	a4,0(a5)
    60015ecc:	fb843783          	ld	a5,-72(s0)
    60015ed0:	0187a783          	lw	a5,24(a5)
    60015ed4:	00078593          	mv	a1,a5
    60015ed8:	00070513          	mv	a0,a4
    60015edc:	f0cfc0ef          	jal	ra,600125e8 <clust2sect>
    60015ee0:	00050793          	mv	a5,a0
    60015ee4:	fcf42423          	sw	a5,-56(s0)
    60015ee8:	fc842783          	lw	a5,-56(s0)
    60015eec:	0007879b          	sext.w	a5,a5
    60015ef0:	00079c63          	bnez	a5,60015f08 <f_read+0x1f4>
    60015ef4:	fb843783          	ld	a5,-72(s0)
    60015ef8:	00200713          	li	a4,2
    60015efc:	00e785a3          	sb	a4,11(a5)
    60015f00:	00200793          	li	a5,2
    60015f04:	3080006f          	j	6001620c <f_read+0x4f8>
    60015f08:	fcf44783          	lbu	a5,-49(s0)
    60015f0c:	0007879b          	sext.w	a5,a5
    60015f10:	fc842703          	lw	a4,-56(s0)
    60015f14:	00f707bb          	addw	a5,a4,a5
    60015f18:	fcf42423          	sw	a5,-56(s0)
    60015f1c:	fac42783          	lw	a5,-84(s0)
    60015f20:	0097d79b          	srliw	a5,a5,0x9
    60015f24:	fef42223          	sw	a5,-28(s0)
    60015f28:	fe442783          	lw	a5,-28(s0)
    60015f2c:	0007879b          	sext.w	a5,a5
    60015f30:	12078063          	beqz	a5,60016050 <f_read+0x33c>
    60015f34:	fcf44783          	lbu	a5,-49(s0)
    60015f38:	0007879b          	sext.w	a5,a5
    60015f3c:	fe442703          	lw	a4,-28(s0)
    60015f40:	00f707bb          	addw	a5,a4,a5
    60015f44:	0007871b          	sext.w	a4,a5
    60015f48:	fb843783          	ld	a5,-72(s0)
    60015f4c:	0007b783          	ld	a5,0(a5)
    60015f50:	0027c783          	lbu	a5,2(a5)
    60015f54:	0007879b          	sext.w	a5,a5
    60015f58:	02e7f463          	bgeu	a5,a4,60015f80 <f_read+0x26c>
    60015f5c:	fb843783          	ld	a5,-72(s0)
    60015f60:	0007b783          	ld	a5,0(a5)
    60015f64:	0027c783          	lbu	a5,2(a5)
    60015f68:	0007871b          	sext.w	a4,a5
    60015f6c:	fcf44783          	lbu	a5,-49(s0)
    60015f70:	0007879b          	sext.w	a5,a5
    60015f74:	40f707bb          	subw	a5,a4,a5
    60015f78:	0007879b          	sext.w	a5,a5
    60015f7c:	fef42223          	sw	a5,-28(s0)
    60015f80:	fb843783          	ld	a5,-72(s0)
    60015f84:	0007b783          	ld	a5,0(a5)
    60015f88:	0017c783          	lbu	a5,1(a5)
    60015f8c:	fe442683          	lw	a3,-28(s0)
    60015f90:	fc842703          	lw	a4,-56(s0)
    60015f94:	00070613          	mv	a2,a4
    60015f98:	fd843583          	ld	a1,-40(s0)
    60015f9c:	00078513          	mv	a0,a5
    60015fa0:	f8cfb0ef          	jal	ra,6001172c <disk_read>
    60015fa4:	00050793          	mv	a5,a0
    60015fa8:	0007879b          	sext.w	a5,a5
    60015fac:	00078c63          	beqz	a5,60015fc4 <f_read+0x2b0>
    60015fb0:	fb843783          	ld	a5,-72(s0)
    60015fb4:	00100713          	li	a4,1
    60015fb8:	00e785a3          	sb	a4,11(a5)
    60015fbc:	00100793          	li	a5,1
    60015fc0:	24c0006f          	j	6001620c <f_read+0x4f8>
    60015fc4:	fb843783          	ld	a5,-72(s0)
    60015fc8:	00a7c783          	lbu	a5,10(a5)
    60015fcc:	0007879b          	sext.w	a5,a5
    60015fd0:	0407f793          	andi	a5,a5,64
    60015fd4:	0007879b          	sext.w	a5,a5
    60015fd8:	06078463          	beqz	a5,60016040 <f_read+0x32c>
    60015fdc:	fb843783          	ld	a5,-72(s0)
    60015fe0:	01c7a703          	lw	a4,28(a5)
    60015fe4:	fc842783          	lw	a5,-56(s0)
    60015fe8:	40f707bb          	subw	a5,a4,a5
    60015fec:	0007871b          	sext.w	a4,a5
    60015ff0:	fe442783          	lw	a5,-28(s0)
    60015ff4:	0007879b          	sext.w	a5,a5
    60015ff8:	04f77463          	bgeu	a4,a5,60016040 <f_read+0x32c>
    60015ffc:	fb843783          	ld	a5,-72(s0)
    60016000:	01c7a703          	lw	a4,28(a5)
    60016004:	fc842783          	lw	a5,-56(s0)
    60016008:	40f707bb          	subw	a5,a4,a5
    6001600c:	0007879b          	sext.w	a5,a5
    60016010:	0097979b          	slliw	a5,a5,0x9
    60016014:	0007879b          	sext.w	a5,a5
    60016018:	02079793          	slli	a5,a5,0x20
    6001601c:	0207d793          	srli	a5,a5,0x20
    60016020:	fd843703          	ld	a4,-40(s0)
    60016024:	00f70733          	add	a4,a4,a5
    60016028:	fb843783          	ld	a5,-72(s0)
    6001602c:	03078793          	addi	a5,a5,48
    60016030:	20000613          	li	a2,512
    60016034:	00078593          	mv	a1,a5
    60016038:	00070513          	mv	a0,a4
    6001603c:	fb9fb0ef          	jal	ra,60011ff4 <mem_cpy>
    60016040:	fe442783          	lw	a5,-28(s0)
    60016044:	0097979b          	slliw	a5,a5,0x9
    60016048:	fef42423          	sw	a5,-24(s0)
    6001604c:	1580006f          	j	600161a4 <f_read+0x490>
    60016050:	fb843783          	ld	a5,-72(s0)
    60016054:	01c7a703          	lw	a4,28(a5)
    60016058:	fc842783          	lw	a5,-56(s0)
    6001605c:	0007879b          	sext.w	a5,a5
    60016060:	0ce78463          	beq	a5,a4,60016128 <f_read+0x414>
    60016064:	fb843783          	ld	a5,-72(s0)
    60016068:	00a7c783          	lbu	a5,10(a5)
    6001606c:	0007879b          	sext.w	a5,a5
    60016070:	0407f793          	andi	a5,a5,64
    60016074:	0007879b          	sext.w	a5,a5
    60016078:	06078463          	beqz	a5,600160e0 <f_read+0x3cc>
    6001607c:	fb843783          	ld	a5,-72(s0)
    60016080:	0007b783          	ld	a5,0(a5)
    60016084:	0017c703          	lbu	a4,1(a5)
    60016088:	fb843783          	ld	a5,-72(s0)
    6001608c:	03078593          	addi	a1,a5,48
    60016090:	fb843783          	ld	a5,-72(s0)
    60016094:	01c7a783          	lw	a5,28(a5)
    60016098:	00100693          	li	a3,1
    6001609c:	00078613          	mv	a2,a5
    600160a0:	00070513          	mv	a0,a4
    600160a4:	fe4fb0ef          	jal	ra,60011888 <disk_write>
    600160a8:	00050793          	mv	a5,a0
    600160ac:	0007879b          	sext.w	a5,a5
    600160b0:	00078c63          	beqz	a5,600160c8 <f_read+0x3b4>
    600160b4:	fb843783          	ld	a5,-72(s0)
    600160b8:	00100713          	li	a4,1
    600160bc:	00e785a3          	sb	a4,11(a5)
    600160c0:	00100793          	li	a5,1
    600160c4:	1480006f          	j	6001620c <f_read+0x4f8>
    600160c8:	fb843783          	ld	a5,-72(s0)
    600160cc:	00a7c783          	lbu	a5,10(a5)
    600160d0:	fbf7f793          	andi	a5,a5,-65
    600160d4:	0ff7f713          	andi	a4,a5,255
    600160d8:	fb843783          	ld	a5,-72(s0)
    600160dc:	00e78523          	sb	a4,10(a5)
    600160e0:	fb843783          	ld	a5,-72(s0)
    600160e4:	0007b783          	ld	a5,0(a5)
    600160e8:	0017c703          	lbu	a4,1(a5)
    600160ec:	fb843783          	ld	a5,-72(s0)
    600160f0:	03078793          	addi	a5,a5,48
    600160f4:	fc842603          	lw	a2,-56(s0)
    600160f8:	00100693          	li	a3,1
    600160fc:	00078593          	mv	a1,a5
    60016100:	00070513          	mv	a0,a4
    60016104:	e28fb0ef          	jal	ra,6001172c <disk_read>
    60016108:	00050793          	mv	a5,a0
    6001610c:	0007879b          	sext.w	a5,a5
    60016110:	00078c63          	beqz	a5,60016128 <f_read+0x414>
    60016114:	fb843783          	ld	a5,-72(s0)
    60016118:	00100713          	li	a4,1
    6001611c:	00e785a3          	sb	a4,11(a5)
    60016120:	00100793          	li	a5,1
    60016124:	0e80006f          	j	6001620c <f_read+0x4f8>
    60016128:	fb843783          	ld	a5,-72(s0)
    6001612c:	fc842703          	lw	a4,-56(s0)
    60016130:	00e7ae23          	sw	a4,28(a5)
    60016134:	fb843783          	ld	a5,-72(s0)
    60016138:	00c7a783          	lw	a5,12(a5)
    6001613c:	1ff7f793          	andi	a5,a5,511
    60016140:	0007879b          	sext.w	a5,a5
    60016144:	20000713          	li	a4,512
    60016148:	40f707bb          	subw	a5,a4,a5
    6001614c:	fef42423          	sw	a5,-24(s0)
    60016150:	fe842703          	lw	a4,-24(s0)
    60016154:	fac42783          	lw	a5,-84(s0)
    60016158:	0007071b          	sext.w	a4,a4
    6001615c:	0007879b          	sext.w	a5,a5
    60016160:	00e7f663          	bgeu	a5,a4,6001616c <f_read+0x458>
    60016164:	fac42783          	lw	a5,-84(s0)
    60016168:	fef42423          	sw	a5,-24(s0)
    6001616c:	fb843783          	ld	a5,-72(s0)
    60016170:	00c7a783          	lw	a5,12(a5)
    60016174:	1ff7f793          	andi	a5,a5,511
    60016178:	0007879b          	sext.w	a5,a5
    6001617c:	02079793          	slli	a5,a5,0x20
    60016180:	0207d793          	srli	a5,a5,0x20
    60016184:	03078793          	addi	a5,a5,48
    60016188:	fb843703          	ld	a4,-72(s0)
    6001618c:	00f707b3          	add	a5,a4,a5
    60016190:	fe842703          	lw	a4,-24(s0)
    60016194:	00070613          	mv	a2,a4
    60016198:	00078593          	mv	a1,a5
    6001619c:	fd843503          	ld	a0,-40(s0)
    600161a0:	e55fb0ef          	jal	ra,60011ff4 <mem_cpy>
    600161a4:	fe846783          	lwu	a5,-24(s0)
    600161a8:	fd843703          	ld	a4,-40(s0)
    600161ac:	00f707b3          	add	a5,a4,a5
    600161b0:	fcf43c23          	sd	a5,-40(s0)
    600161b4:	fb843783          	ld	a5,-72(s0)
    600161b8:	00c7a783          	lw	a5,12(a5)
    600161bc:	fe842703          	lw	a4,-24(s0)
    600161c0:	00f707bb          	addw	a5,a4,a5
    600161c4:	0007871b          	sext.w	a4,a5
    600161c8:	fb843783          	ld	a5,-72(s0)
    600161cc:	00e7a623          	sw	a4,12(a5)
    600161d0:	fa043783          	ld	a5,-96(s0)
    600161d4:	0007a783          	lw	a5,0(a5)
    600161d8:	fe842703          	lw	a4,-24(s0)
    600161dc:	00f707bb          	addw	a5,a4,a5
    600161e0:	0007871b          	sext.w	a4,a5
    600161e4:	fa043783          	ld	a5,-96(s0)
    600161e8:	00e7a023          	sw	a4,0(a5)
    600161ec:	fac42703          	lw	a4,-84(s0)
    600161f0:	fe842783          	lw	a5,-24(s0)
    600161f4:	40f707bb          	subw	a5,a4,a5
    600161f8:	faf42623          	sw	a5,-84(s0)
    600161fc:	fac42783          	lw	a5,-84(s0)
    60016200:	0007879b          	sext.w	a5,a5
    60016204:	bc079ee3          	bnez	a5,60015de0 <f_read+0xcc>
    60016208:	00000793          	li	a5,0
    6001620c:	00078513          	mv	a0,a5
    60016210:	05813083          	ld	ra,88(sp)
    60016214:	05013403          	ld	s0,80(sp)
    60016218:	06010113          	addi	sp,sp,96
    6001621c:	00008067          	ret

0000000060016220 <f_write>:
    60016220:	fa010113          	addi	sp,sp,-96
    60016224:	04113c23          	sd	ra,88(sp)
    60016228:	04813823          	sd	s0,80(sp)
    6001622c:	06010413          	addi	s0,sp,96
    60016230:	faa43c23          	sd	a0,-72(s0)
    60016234:	fab43823          	sd	a1,-80(s0)
    60016238:	00060793          	mv	a5,a2
    6001623c:	fad43023          	sd	a3,-96(s0)
    60016240:	faf42623          	sw	a5,-84(s0)
    60016244:	fb043783          	ld	a5,-80(s0)
    60016248:	fcf43c23          	sd	a5,-40(s0)
    6001624c:	fa043783          	ld	a5,-96(s0)
    60016250:	0007a023          	sw	zero,0(a5)
    60016254:	fb843503          	ld	a0,-72(s0)
    60016258:	c08ff0ef          	jal	ra,60015660 <validate>
    6001625c:	00050793          	mv	a5,a0
    60016260:	fcf42a23          	sw	a5,-44(s0)
    60016264:	fd442783          	lw	a5,-44(s0)
    60016268:	0007879b          	sext.w	a5,a5
    6001626c:	00078663          	beqz	a5,60016278 <f_write+0x58>
    60016270:	fd442783          	lw	a5,-44(s0)
    60016274:	5500006f          	j	600167c4 <f_write+0x5a4>
    60016278:	fb843783          	ld	a5,-72(s0)
    6001627c:	00b7c783          	lbu	a5,11(a5)
    60016280:	00078a63          	beqz	a5,60016294 <f_write+0x74>
    60016284:	fb843783          	ld	a5,-72(s0)
    60016288:	00b7c783          	lbu	a5,11(a5)
    6001628c:	0007879b          	sext.w	a5,a5
    60016290:	5340006f          	j	600167c4 <f_write+0x5a4>
    60016294:	fb843783          	ld	a5,-72(s0)
    60016298:	00a7c783          	lbu	a5,10(a5)
    6001629c:	0007879b          	sext.w	a5,a5
    600162a0:	0027f793          	andi	a5,a5,2
    600162a4:	0007879b          	sext.w	a5,a5
    600162a8:	00079663          	bnez	a5,600162b4 <f_write+0x94>
    600162ac:	00700793          	li	a5,7
    600162b0:	5140006f          	j	600167c4 <f_write+0x5a4>
    600162b4:	fb843783          	ld	a5,-72(s0)
    600162b8:	00c7a783          	lw	a5,12(a5)
    600162bc:	fac42703          	lw	a4,-84(s0)
    600162c0:	00f707bb          	addw	a5,a4,a5
    600162c4:	0007871b          	sext.w	a4,a5
    600162c8:	fb843783          	ld	a5,-72(s0)
    600162cc:	00c7a783          	lw	a5,12(a5)
    600162d0:	4af77063          	bgeu	a4,a5,60016770 <f_write+0x550>
    600162d4:	fa042623          	sw	zero,-84(s0)
    600162d8:	4980006f          	j	60016770 <f_write+0x550>
    600162dc:	fb843783          	ld	a5,-72(s0)
    600162e0:	00c7a783          	lw	a5,12(a5)
    600162e4:	1ff7f793          	andi	a5,a5,511
    600162e8:	0007879b          	sext.w	a5,a5
    600162ec:	3a079263          	bnez	a5,60016690 <f_write+0x470>
    600162f0:	fb843783          	ld	a5,-72(s0)
    600162f4:	00c7a783          	lw	a5,12(a5)
    600162f8:	0097d79b          	srliw	a5,a5,0x9
    600162fc:	0007879b          	sext.w	a5,a5
    60016300:	0ff7f713          	andi	a4,a5,255
    60016304:	fb843783          	ld	a5,-72(s0)
    60016308:	0007b783          	ld	a5,0(a5)
    6001630c:	0027c783          	lbu	a5,2(a5)
    60016310:	fff7879b          	addiw	a5,a5,-1
    60016314:	0ff7f793          	andi	a5,a5,255
    60016318:	00f777b3          	and	a5,a4,a5
    6001631c:	fcf409a3          	sb	a5,-45(s0)
    60016320:	fd344783          	lbu	a5,-45(s0)
    60016324:	0ff7f793          	andi	a5,a5,255
    60016328:	0e079263          	bnez	a5,6001640c <f_write+0x1ec>
    6001632c:	fb843783          	ld	a5,-72(s0)
    60016330:	00c7a783          	lw	a5,12(a5)
    60016334:	02079e63          	bnez	a5,60016370 <f_write+0x150>
    60016338:	fb843783          	ld	a5,-72(s0)
    6001633c:	0147a783          	lw	a5,20(a5)
    60016340:	fef42623          	sw	a5,-20(s0)
    60016344:	fec42783          	lw	a5,-20(s0)
    60016348:	0007879b          	sext.w	a5,a5
    6001634c:	04079463          	bnez	a5,60016394 <f_write+0x174>
    60016350:	fb843783          	ld	a5,-72(s0)
    60016354:	0007b783          	ld	a5,0(a5)
    60016358:	00000593          	li	a1,0
    6001635c:	00078513          	mv	a0,a5
    60016360:	cd9fc0ef          	jal	ra,60013038 <create_chain>
    60016364:	00050793          	mv	a5,a0
    60016368:	fef42623          	sw	a5,-20(s0)
    6001636c:	0280006f          	j	60016394 <f_write+0x174>
    60016370:	fb843783          	ld	a5,-72(s0)
    60016374:	0007b703          	ld	a4,0(a5)
    60016378:	fb843783          	ld	a5,-72(s0)
    6001637c:	0187a783          	lw	a5,24(a5)
    60016380:	00078593          	mv	a1,a5
    60016384:	00070513          	mv	a0,a4
    60016388:	cb1fc0ef          	jal	ra,60013038 <create_chain>
    6001638c:	00050793          	mv	a5,a0
    60016390:	fef42623          	sw	a5,-20(s0)
    60016394:	fec42783          	lw	a5,-20(s0)
    60016398:	0007879b          	sext.w	a5,a5
    6001639c:	3e078263          	beqz	a5,60016780 <f_write+0x560>
    600163a0:	fec42783          	lw	a5,-20(s0)
    600163a4:	0007871b          	sext.w	a4,a5
    600163a8:	00100793          	li	a5,1
    600163ac:	00f71c63          	bne	a4,a5,600163c4 <f_write+0x1a4>
    600163b0:	fb843783          	ld	a5,-72(s0)
    600163b4:	00200713          	li	a4,2
    600163b8:	00e785a3          	sb	a4,11(a5)
    600163bc:	00200793          	li	a5,2
    600163c0:	4040006f          	j	600167c4 <f_write+0x5a4>
    600163c4:	fec42783          	lw	a5,-20(s0)
    600163c8:	0007871b          	sext.w	a4,a5
    600163cc:	fff00793          	li	a5,-1
    600163d0:	00f71c63          	bne	a4,a5,600163e8 <f_write+0x1c8>
    600163d4:	fb843783          	ld	a5,-72(s0)
    600163d8:	00100713          	li	a4,1
    600163dc:	00e785a3          	sb	a4,11(a5)
    600163e0:	00100793          	li	a5,1
    600163e4:	3e00006f          	j	600167c4 <f_write+0x5a4>
    600163e8:	fb843783          	ld	a5,-72(s0)
    600163ec:	fec42703          	lw	a4,-20(s0)
    600163f0:	00e7ac23          	sw	a4,24(a5)
    600163f4:	fb843783          	ld	a5,-72(s0)
    600163f8:	0147a783          	lw	a5,20(a5)
    600163fc:	00079863          	bnez	a5,6001640c <f_write+0x1ec>
    60016400:	fb843783          	ld	a5,-72(s0)
    60016404:	fec42703          	lw	a4,-20(s0)
    60016408:	00e7aa23          	sw	a4,20(a5)
    6001640c:	fb843783          	ld	a5,-72(s0)
    60016410:	00a7c783          	lbu	a5,10(a5)
    60016414:	0007879b          	sext.w	a5,a5
    60016418:	0407f793          	andi	a5,a5,64
    6001641c:	0007879b          	sext.w	a5,a5
    60016420:	06078463          	beqz	a5,60016488 <f_write+0x268>
    60016424:	fb843783          	ld	a5,-72(s0)
    60016428:	0007b783          	ld	a5,0(a5)
    6001642c:	0017c703          	lbu	a4,1(a5)
    60016430:	fb843783          	ld	a5,-72(s0)
    60016434:	03078593          	addi	a1,a5,48
    60016438:	fb843783          	ld	a5,-72(s0)
    6001643c:	01c7a783          	lw	a5,28(a5)
    60016440:	00100693          	li	a3,1
    60016444:	00078613          	mv	a2,a5
    60016448:	00070513          	mv	a0,a4
    6001644c:	c3cfb0ef          	jal	ra,60011888 <disk_write>
    60016450:	00050793          	mv	a5,a0
    60016454:	0007879b          	sext.w	a5,a5
    60016458:	00078c63          	beqz	a5,60016470 <f_write+0x250>
    6001645c:	fb843783          	ld	a5,-72(s0)
    60016460:	00100713          	li	a4,1
    60016464:	00e785a3          	sb	a4,11(a5)
    60016468:	00100793          	li	a5,1
    6001646c:	3580006f          	j	600167c4 <f_write+0x5a4>
    60016470:	fb843783          	ld	a5,-72(s0)
    60016474:	00a7c783          	lbu	a5,10(a5)
    60016478:	fbf7f793          	andi	a5,a5,-65
    6001647c:	0ff7f713          	andi	a4,a5,255
    60016480:	fb843783          	ld	a5,-72(s0)
    60016484:	00e78523          	sb	a4,10(a5)
    60016488:	fb843783          	ld	a5,-72(s0)
    6001648c:	0007b703          	ld	a4,0(a5)
    60016490:	fb843783          	ld	a5,-72(s0)
    60016494:	0187a783          	lw	a5,24(a5)
    60016498:	00078593          	mv	a1,a5
    6001649c:	00070513          	mv	a0,a4
    600164a0:	948fc0ef          	jal	ra,600125e8 <clust2sect>
    600164a4:	00050793          	mv	a5,a0
    600164a8:	fcf42623          	sw	a5,-52(s0)
    600164ac:	fcc42783          	lw	a5,-52(s0)
    600164b0:	0007879b          	sext.w	a5,a5
    600164b4:	00079c63          	bnez	a5,600164cc <f_write+0x2ac>
    600164b8:	fb843783          	ld	a5,-72(s0)
    600164bc:	00200713          	li	a4,2
    600164c0:	00e785a3          	sb	a4,11(a5)
    600164c4:	00200793          	li	a5,2
    600164c8:	2fc0006f          	j	600167c4 <f_write+0x5a4>
    600164cc:	fd344783          	lbu	a5,-45(s0)
    600164d0:	0007879b          	sext.w	a5,a5
    600164d4:	fcc42703          	lw	a4,-52(s0)
    600164d8:	00f707bb          	addw	a5,a4,a5
    600164dc:	fcf42623          	sw	a5,-52(s0)
    600164e0:	fac42783          	lw	a5,-84(s0)
    600164e4:	0097d79b          	srliw	a5,a5,0x9
    600164e8:	fef42223          	sw	a5,-28(s0)
    600164ec:	fe442783          	lw	a5,-28(s0)
    600164f0:	0007879b          	sext.w	a5,a5
    600164f4:	12078063          	beqz	a5,60016614 <f_write+0x3f4>
    600164f8:	fd344783          	lbu	a5,-45(s0)
    600164fc:	0007879b          	sext.w	a5,a5
    60016500:	fe442703          	lw	a4,-28(s0)
    60016504:	00f707bb          	addw	a5,a4,a5
    60016508:	0007871b          	sext.w	a4,a5
    6001650c:	fb843783          	ld	a5,-72(s0)
    60016510:	0007b783          	ld	a5,0(a5)
    60016514:	0027c783          	lbu	a5,2(a5)
    60016518:	0007879b          	sext.w	a5,a5
    6001651c:	02e7f463          	bgeu	a5,a4,60016544 <f_write+0x324>
    60016520:	fb843783          	ld	a5,-72(s0)
    60016524:	0007b783          	ld	a5,0(a5)
    60016528:	0027c783          	lbu	a5,2(a5)
    6001652c:	0007871b          	sext.w	a4,a5
    60016530:	fd344783          	lbu	a5,-45(s0)
    60016534:	0007879b          	sext.w	a5,a5
    60016538:	40f707bb          	subw	a5,a4,a5
    6001653c:	0007879b          	sext.w	a5,a5
    60016540:	fef42223          	sw	a5,-28(s0)
    60016544:	fb843783          	ld	a5,-72(s0)
    60016548:	0007b783          	ld	a5,0(a5)
    6001654c:	0017c783          	lbu	a5,1(a5)
    60016550:	fe442683          	lw	a3,-28(s0)
    60016554:	fcc42703          	lw	a4,-52(s0)
    60016558:	00070613          	mv	a2,a4
    6001655c:	fd843583          	ld	a1,-40(s0)
    60016560:	00078513          	mv	a0,a5
    60016564:	b24fb0ef          	jal	ra,60011888 <disk_write>
    60016568:	00050793          	mv	a5,a0
    6001656c:	0007879b          	sext.w	a5,a5
    60016570:	00078c63          	beqz	a5,60016588 <f_write+0x368>
    60016574:	fb843783          	ld	a5,-72(s0)
    60016578:	00100713          	li	a4,1
    6001657c:	00e785a3          	sb	a4,11(a5)
    60016580:	00100793          	li	a5,1
    60016584:	2400006f          	j	600167c4 <f_write+0x5a4>
    60016588:	fb843783          	ld	a5,-72(s0)
    6001658c:	01c7a703          	lw	a4,28(a5)
    60016590:	fcc42783          	lw	a5,-52(s0)
    60016594:	40f707bb          	subw	a5,a4,a5
    60016598:	0007871b          	sext.w	a4,a5
    6001659c:	fe442783          	lw	a5,-28(s0)
    600165a0:	0007879b          	sext.w	a5,a5
    600165a4:	06f77063          	bgeu	a4,a5,60016604 <f_write+0x3e4>
    600165a8:	fb843783          	ld	a5,-72(s0)
    600165ac:	03078693          	addi	a3,a5,48
    600165b0:	fb843783          	ld	a5,-72(s0)
    600165b4:	01c7a703          	lw	a4,28(a5)
    600165b8:	fcc42783          	lw	a5,-52(s0)
    600165bc:	40f707bb          	subw	a5,a4,a5
    600165c0:	0007879b          	sext.w	a5,a5
    600165c4:	0097979b          	slliw	a5,a5,0x9
    600165c8:	0007879b          	sext.w	a5,a5
    600165cc:	02079793          	slli	a5,a5,0x20
    600165d0:	0207d793          	srli	a5,a5,0x20
    600165d4:	fd843703          	ld	a4,-40(s0)
    600165d8:	00f707b3          	add	a5,a4,a5
    600165dc:	20000613          	li	a2,512
    600165e0:	00078593          	mv	a1,a5
    600165e4:	00068513          	mv	a0,a3
    600165e8:	a0dfb0ef          	jal	ra,60011ff4 <mem_cpy>
    600165ec:	fb843783          	ld	a5,-72(s0)
    600165f0:	00a7c783          	lbu	a5,10(a5)
    600165f4:	fbf7f793          	andi	a5,a5,-65
    600165f8:	0ff7f713          	andi	a4,a5,255
    600165fc:	fb843783          	ld	a5,-72(s0)
    60016600:	00e78523          	sb	a4,10(a5)
    60016604:	fe442783          	lw	a5,-28(s0)
    60016608:	0097979b          	slliw	a5,a5,0x9
    6001660c:	fef42423          	sw	a5,-24(s0)
    60016610:	1080006f          	j	60016718 <f_write+0x4f8>
    60016614:	fb843783          	ld	a5,-72(s0)
    60016618:	01c7a703          	lw	a4,28(a5)
    6001661c:	fcc42783          	lw	a5,-52(s0)
    60016620:	0007879b          	sext.w	a5,a5
    60016624:	06e78063          	beq	a5,a4,60016684 <f_write+0x464>
    60016628:	fb843783          	ld	a5,-72(s0)
    6001662c:	00c7a703          	lw	a4,12(a5)
    60016630:	fb843783          	ld	a5,-72(s0)
    60016634:	0107a783          	lw	a5,16(a5)
    60016638:	04f77663          	bgeu	a4,a5,60016684 <f_write+0x464>
    6001663c:	fb843783          	ld	a5,-72(s0)
    60016640:	0007b783          	ld	a5,0(a5)
    60016644:	0017c703          	lbu	a4,1(a5)
    60016648:	fb843783          	ld	a5,-72(s0)
    6001664c:	03078793          	addi	a5,a5,48
    60016650:	fcc42603          	lw	a2,-52(s0)
    60016654:	00100693          	li	a3,1
    60016658:	00078593          	mv	a1,a5
    6001665c:	00070513          	mv	a0,a4
    60016660:	8ccfb0ef          	jal	ra,6001172c <disk_read>
    60016664:	00050793          	mv	a5,a0
    60016668:	0007879b          	sext.w	a5,a5
    6001666c:	00078c63          	beqz	a5,60016684 <f_write+0x464>
    60016670:	fb843783          	ld	a5,-72(s0)
    60016674:	00100713          	li	a4,1
    60016678:	00e785a3          	sb	a4,11(a5)
    6001667c:	00100793          	li	a5,1
    60016680:	1440006f          	j	600167c4 <f_write+0x5a4>
    60016684:	fb843783          	ld	a5,-72(s0)
    60016688:	fcc42703          	lw	a4,-52(s0)
    6001668c:	00e7ae23          	sw	a4,28(a5)
    60016690:	fb843783          	ld	a5,-72(s0)
    60016694:	00c7a783          	lw	a5,12(a5)
    60016698:	1ff7f793          	andi	a5,a5,511
    6001669c:	0007879b          	sext.w	a5,a5
    600166a0:	20000713          	li	a4,512
    600166a4:	40f707bb          	subw	a5,a4,a5
    600166a8:	fef42423          	sw	a5,-24(s0)
    600166ac:	fe842703          	lw	a4,-24(s0)
    600166b0:	fac42783          	lw	a5,-84(s0)
    600166b4:	0007071b          	sext.w	a4,a4
    600166b8:	0007879b          	sext.w	a5,a5
    600166bc:	00e7f663          	bgeu	a5,a4,600166c8 <f_write+0x4a8>
    600166c0:	fac42783          	lw	a5,-84(s0)
    600166c4:	fef42423          	sw	a5,-24(s0)
    600166c8:	fb843783          	ld	a5,-72(s0)
    600166cc:	00c7a783          	lw	a5,12(a5)
    600166d0:	1ff7f793          	andi	a5,a5,511
    600166d4:	0007879b          	sext.w	a5,a5
    600166d8:	02079793          	slli	a5,a5,0x20
    600166dc:	0207d793          	srli	a5,a5,0x20
    600166e0:	03078793          	addi	a5,a5,48
    600166e4:	fb843703          	ld	a4,-72(s0)
    600166e8:	00f707b3          	add	a5,a4,a5
    600166ec:	fe842703          	lw	a4,-24(s0)
    600166f0:	00070613          	mv	a2,a4
    600166f4:	fd843583          	ld	a1,-40(s0)
    600166f8:	00078513          	mv	a0,a5
    600166fc:	8f9fb0ef          	jal	ra,60011ff4 <mem_cpy>
    60016700:	fb843783          	ld	a5,-72(s0)
    60016704:	00a7c783          	lbu	a5,10(a5)
    60016708:	0407e793          	ori	a5,a5,64
    6001670c:	0ff7f713          	andi	a4,a5,255
    60016710:	fb843783          	ld	a5,-72(s0)
    60016714:	00e78523          	sb	a4,10(a5)
    60016718:	fe846783          	lwu	a5,-24(s0)
    6001671c:	fd843703          	ld	a4,-40(s0)
    60016720:	00f707b3          	add	a5,a4,a5
    60016724:	fcf43c23          	sd	a5,-40(s0)
    60016728:	fb843783          	ld	a5,-72(s0)
    6001672c:	00c7a783          	lw	a5,12(a5)
    60016730:	fe842703          	lw	a4,-24(s0)
    60016734:	00f707bb          	addw	a5,a4,a5
    60016738:	0007871b          	sext.w	a4,a5
    6001673c:	fb843783          	ld	a5,-72(s0)
    60016740:	00e7a623          	sw	a4,12(a5)
    60016744:	fa043783          	ld	a5,-96(s0)
    60016748:	0007a783          	lw	a5,0(a5)
    6001674c:	fe842703          	lw	a4,-24(s0)
    60016750:	00f707bb          	addw	a5,a4,a5
    60016754:	0007871b          	sext.w	a4,a5
    60016758:	fa043783          	ld	a5,-96(s0)
    6001675c:	00e7a023          	sw	a4,0(a5)
    60016760:	fac42703          	lw	a4,-84(s0)
    60016764:	fe842783          	lw	a5,-24(s0)
    60016768:	40f707bb          	subw	a5,a4,a5
    6001676c:	faf42623          	sw	a5,-84(s0)
    60016770:	fac42783          	lw	a5,-84(s0)
    60016774:	0007879b          	sext.w	a5,a5
    60016778:	b60792e3          	bnez	a5,600162dc <f_write+0xbc>
    6001677c:	0080006f          	j	60016784 <f_write+0x564>
    60016780:	00000013          	nop
    60016784:	fb843783          	ld	a5,-72(s0)
    60016788:	00c7a703          	lw	a4,12(a5)
    6001678c:	fb843783          	ld	a5,-72(s0)
    60016790:	0107a783          	lw	a5,16(a5)
    60016794:	00e7fa63          	bgeu	a5,a4,600167a8 <f_write+0x588>
    60016798:	fb843783          	ld	a5,-72(s0)
    6001679c:	00c7a703          	lw	a4,12(a5)
    600167a0:	fb843783          	ld	a5,-72(s0)
    600167a4:	00e7a823          	sw	a4,16(a5)
    600167a8:	fb843783          	ld	a5,-72(s0)
    600167ac:	00a7c783          	lbu	a5,10(a5)
    600167b0:	0207e793          	ori	a5,a5,32
    600167b4:	0ff7f713          	andi	a4,a5,255
    600167b8:	fb843783          	ld	a5,-72(s0)
    600167bc:	00e78523          	sb	a4,10(a5)
    600167c0:	00000793          	li	a5,0
    600167c4:	00078513          	mv	a0,a5
    600167c8:	05813083          	ld	ra,88(sp)
    600167cc:	05013403          	ld	s0,80(sp)
    600167d0:	06010113          	addi	sp,sp,96
    600167d4:	00008067          	ret

00000000600167d8 <f_sync>:
    600167d8:	fc010113          	addi	sp,sp,-64
    600167dc:	02113c23          	sd	ra,56(sp)
    600167e0:	02813823          	sd	s0,48(sp)
    600167e4:	04010413          	addi	s0,sp,64
    600167e8:	fca43423          	sd	a0,-56(s0)
    600167ec:	fc843503          	ld	a0,-56(s0)
    600167f0:	e71fe0ef          	jal	ra,60015660 <validate>
    600167f4:	00050793          	mv	a5,a0
    600167f8:	fef42623          	sw	a5,-20(s0)
    600167fc:	fec42783          	lw	a5,-20(s0)
    60016800:	0007879b          	sext.w	a5,a5
    60016804:	24079a63          	bnez	a5,60016a58 <f_sync+0x280>
    60016808:	fc843783          	ld	a5,-56(s0)
    6001680c:	00a7c783          	lbu	a5,10(a5)
    60016810:	0007879b          	sext.w	a5,a5
    60016814:	0207f793          	andi	a5,a5,32
    60016818:	0007879b          	sext.w	a5,a5
    6001681c:	22078e63          	beqz	a5,60016a58 <f_sync+0x280>
    60016820:	fc843783          	ld	a5,-56(s0)
    60016824:	00a7c783          	lbu	a5,10(a5)
    60016828:	0007879b          	sext.w	a5,a5
    6001682c:	0407f793          	andi	a5,a5,64
    60016830:	0007879b          	sext.w	a5,a5
    60016834:	04078e63          	beqz	a5,60016890 <f_sync+0xb8>
    60016838:	fc843783          	ld	a5,-56(s0)
    6001683c:	0007b783          	ld	a5,0(a5)
    60016840:	0017c703          	lbu	a4,1(a5)
    60016844:	fc843783          	ld	a5,-56(s0)
    60016848:	03078593          	addi	a1,a5,48
    6001684c:	fc843783          	ld	a5,-56(s0)
    60016850:	01c7a783          	lw	a5,28(a5)
    60016854:	00100693          	li	a3,1
    60016858:	00078613          	mv	a2,a5
    6001685c:	00070513          	mv	a0,a4
    60016860:	828fb0ef          	jal	ra,60011888 <disk_write>
    60016864:	00050793          	mv	a5,a0
    60016868:	0007879b          	sext.w	a5,a5
    6001686c:	00078663          	beqz	a5,60016878 <f_sync+0xa0>
    60016870:	00100793          	li	a5,1
    60016874:	1e80006f          	j	60016a5c <f_sync+0x284>
    60016878:	fc843783          	ld	a5,-56(s0)
    6001687c:	00a7c783          	lbu	a5,10(a5)
    60016880:	fbf7f793          	andi	a5,a5,-65
    60016884:	0ff7f713          	andi	a4,a5,255
    60016888:	fc843783          	ld	a5,-56(s0)
    6001688c:	00e78523          	sb	a4,10(a5)
    60016890:	fc843783          	ld	a5,-56(s0)
    60016894:	0007b703          	ld	a4,0(a5)
    60016898:	fc843783          	ld	a5,-56(s0)
    6001689c:	0207a783          	lw	a5,32(a5)
    600168a0:	00078593          	mv	a1,a5
    600168a4:	00070513          	mv	a0,a4
    600168a8:	a31fb0ef          	jal	ra,600122d8 <move_window>
    600168ac:	00050793          	mv	a5,a0
    600168b0:	fef42623          	sw	a5,-20(s0)
    600168b4:	fec42783          	lw	a5,-20(s0)
    600168b8:	0007879b          	sext.w	a5,a5
    600168bc:	18079e63          	bnez	a5,60016a58 <f_sync+0x280>
    600168c0:	fc843783          	ld	a5,-56(s0)
    600168c4:	0287b783          	ld	a5,40(a5)
    600168c8:	fef43023          	sd	a5,-32(s0)
    600168cc:	fe043783          	ld	a5,-32(s0)
    600168d0:	00b78793          	addi	a5,a5,11
    600168d4:	0007c703          	lbu	a4,0(a5)
    600168d8:	fe043783          	ld	a5,-32(s0)
    600168dc:	00b78793          	addi	a5,a5,11
    600168e0:	02076713          	ori	a4,a4,32
    600168e4:	0ff77713          	andi	a4,a4,255
    600168e8:	00e78023          	sb	a4,0(a5)
    600168ec:	fc843783          	ld	a5,-56(s0)
    600168f0:	0107a703          	lw	a4,16(a5)
    600168f4:	fe043783          	ld	a5,-32(s0)
    600168f8:	01c78793          	addi	a5,a5,28
    600168fc:	0ff77713          	andi	a4,a4,255
    60016900:	00e78023          	sb	a4,0(a5)
    60016904:	fc843783          	ld	a5,-56(s0)
    60016908:	0107a783          	lw	a5,16(a5)
    6001690c:	03079793          	slli	a5,a5,0x30
    60016910:	0307d793          	srli	a5,a5,0x30
    60016914:	0087d79b          	srliw	a5,a5,0x8
    60016918:	03079713          	slli	a4,a5,0x30
    6001691c:	03075713          	srli	a4,a4,0x30
    60016920:	fe043783          	ld	a5,-32(s0)
    60016924:	01d78793          	addi	a5,a5,29
    60016928:	0ff77713          	andi	a4,a4,255
    6001692c:	00e78023          	sb	a4,0(a5)
    60016930:	fc843783          	ld	a5,-56(s0)
    60016934:	0107a783          	lw	a5,16(a5)
    60016938:	0107d79b          	srliw	a5,a5,0x10
    6001693c:	0007871b          	sext.w	a4,a5
    60016940:	fe043783          	ld	a5,-32(s0)
    60016944:	01e78793          	addi	a5,a5,30
    60016948:	0ff77713          	andi	a4,a4,255
    6001694c:	00e78023          	sb	a4,0(a5)
    60016950:	fc843783          	ld	a5,-56(s0)
    60016954:	0107a783          	lw	a5,16(a5)
    60016958:	0187d79b          	srliw	a5,a5,0x18
    6001695c:	0007871b          	sext.w	a4,a5
    60016960:	fe043783          	ld	a5,-32(s0)
    60016964:	01f78793          	addi	a5,a5,31
    60016968:	0ff77713          	andi	a4,a4,255
    6001696c:	00e78023          	sb	a4,0(a5)
    60016970:	fc843783          	ld	a5,-56(s0)
    60016974:	0147a783          	lw	a5,20(a5)
    60016978:	00078593          	mv	a1,a5
    6001697c:	fe043503          	ld	a0,-32(s0)
    60016980:	8e8fd0ef          	jal	ra,60013a68 <st_clust>
    60016984:	462107b7          	lui	a5,0x46210
    60016988:	fcf42e23          	sw	a5,-36(s0)
    6001698c:	fe043783          	ld	a5,-32(s0)
    60016990:	01678793          	addi	a5,a5,22 # 46210016 <_start-0x19dfffea>
    60016994:	fdc42703          	lw	a4,-36(s0)
    60016998:	0ff77713          	andi	a4,a4,255
    6001699c:	00e78023          	sb	a4,0(a5)
    600169a0:	fdc42783          	lw	a5,-36(s0)
    600169a4:	03079793          	slli	a5,a5,0x30
    600169a8:	0307d793          	srli	a5,a5,0x30
    600169ac:	0087d79b          	srliw	a5,a5,0x8
    600169b0:	03079713          	slli	a4,a5,0x30
    600169b4:	03075713          	srli	a4,a4,0x30
    600169b8:	fe043783          	ld	a5,-32(s0)
    600169bc:	01778793          	addi	a5,a5,23
    600169c0:	0ff77713          	andi	a4,a4,255
    600169c4:	00e78023          	sb	a4,0(a5)
    600169c8:	fdc42783          	lw	a5,-36(s0)
    600169cc:	0107d79b          	srliw	a5,a5,0x10
    600169d0:	0007871b          	sext.w	a4,a5
    600169d4:	fe043783          	ld	a5,-32(s0)
    600169d8:	01878793          	addi	a5,a5,24
    600169dc:	0ff77713          	andi	a4,a4,255
    600169e0:	00e78023          	sb	a4,0(a5)
    600169e4:	fdc42783          	lw	a5,-36(s0)
    600169e8:	0187d79b          	srliw	a5,a5,0x18
    600169ec:	0007871b          	sext.w	a4,a5
    600169f0:	fe043783          	ld	a5,-32(s0)
    600169f4:	01978793          	addi	a5,a5,25
    600169f8:	0ff77713          	andi	a4,a4,255
    600169fc:	00e78023          	sb	a4,0(a5)
    60016a00:	fe043783          	ld	a5,-32(s0)
    60016a04:	01278793          	addi	a5,a5,18
    60016a08:	00078023          	sb	zero,0(a5)
    60016a0c:	fe043783          	ld	a5,-32(s0)
    60016a10:	01378793          	addi	a5,a5,19
    60016a14:	00078023          	sb	zero,0(a5)
    60016a18:	fc843783          	ld	a5,-56(s0)
    60016a1c:	00a7c783          	lbu	a5,10(a5)
    60016a20:	fdf7f793          	andi	a5,a5,-33
    60016a24:	0ff7f713          	andi	a4,a5,255
    60016a28:	fc843783          	ld	a5,-56(s0)
    60016a2c:	00e78523          	sb	a4,10(a5)
    60016a30:	fc843783          	ld	a5,-56(s0)
    60016a34:	0007b783          	ld	a5,0(a5)
    60016a38:	00100713          	li	a4,1
    60016a3c:	00e78223          	sb	a4,4(a5)
    60016a40:	fc843783          	ld	a5,-56(s0)
    60016a44:	0007b783          	ld	a5,0(a5)
    60016a48:	00078513          	mv	a0,a5
    60016a4c:	941fb0ef          	jal	ra,6001238c <sync_fs>
    60016a50:	00050793          	mv	a5,a0
    60016a54:	fef42623          	sw	a5,-20(s0)
    60016a58:	fec42783          	lw	a5,-20(s0)
    60016a5c:	00078513          	mv	a0,a5
    60016a60:	03813083          	ld	ra,56(sp)
    60016a64:	03013403          	ld	s0,48(sp)
    60016a68:	04010113          	addi	sp,sp,64
    60016a6c:	00008067          	ret

0000000060016a70 <f_close>:
    60016a70:	fd010113          	addi	sp,sp,-48
    60016a74:	02113423          	sd	ra,40(sp)
    60016a78:	02813023          	sd	s0,32(sp)
    60016a7c:	03010413          	addi	s0,sp,48
    60016a80:	fca43c23          	sd	a0,-40(s0)
    60016a84:	fd843503          	ld	a0,-40(s0)
    60016a88:	d51ff0ef          	jal	ra,600167d8 <f_sync>
    60016a8c:	00050793          	mv	a5,a0
    60016a90:	fef42623          	sw	a5,-20(s0)
    60016a94:	fec42783          	lw	a5,-20(s0)
    60016a98:	0007879b          	sext.w	a5,a5
    60016a9c:	02079463          	bnez	a5,60016ac4 <f_close+0x54>
    60016aa0:	fd843503          	ld	a0,-40(s0)
    60016aa4:	bbdfe0ef          	jal	ra,60015660 <validate>
    60016aa8:	00050793          	mv	a5,a0
    60016aac:	fef42623          	sw	a5,-20(s0)
    60016ab0:	fec42783          	lw	a5,-20(s0)
    60016ab4:	0007879b          	sext.w	a5,a5
    60016ab8:	00079663          	bnez	a5,60016ac4 <f_close+0x54>
    60016abc:	fd843783          	ld	a5,-40(s0)
    60016ac0:	0007b023          	sd	zero,0(a5)
    60016ac4:	fec42783          	lw	a5,-20(s0)
    60016ac8:	00078513          	mv	a0,a5
    60016acc:	02813083          	ld	ra,40(sp)
    60016ad0:	02013403          	ld	s0,32(sp)
    60016ad4:	03010113          	addi	sp,sp,48
    60016ad8:	00008067          	ret

0000000060016adc <f_chdrive>:
    60016adc:	fd010113          	addi	sp,sp,-48
    60016ae0:	02113423          	sd	ra,40(sp)
    60016ae4:	02813023          	sd	s0,32(sp)
    60016ae8:	03010413          	addi	s0,sp,48
    60016aec:	fca43c23          	sd	a0,-40(s0)
    60016af0:	fd840793          	addi	a5,s0,-40
    60016af4:	00078513          	mv	a0,a5
    60016af8:	c69fd0ef          	jal	ra,60014760 <get_ldnumber>
    60016afc:	00050793          	mv	a5,a0
    60016b00:	fef42623          	sw	a5,-20(s0)
    60016b04:	fec42783          	lw	a5,-20(s0)
    60016b08:	0007879b          	sext.w	a5,a5
    60016b0c:	0007d663          	bgez	a5,60016b18 <f_chdrive+0x3c>
    60016b10:	00b00793          	li	a5,11
    60016b14:	0180006f          	j	60016b2c <f_chdrive+0x50>
    60016b18:	fec42783          	lw	a5,-20(s0)
    60016b1c:	0ff7f713          	andi	a4,a5,255
    60016b20:	6001a7b7          	lui	a5,0x6001a
    60016b24:	2ce78923          	sb	a4,722(a5) # 6001a2d2 <CurrVol>
    60016b28:	00000793          	li	a5,0
    60016b2c:	00078513          	mv	a0,a5
    60016b30:	02813083          	ld	ra,40(sp)
    60016b34:	02013403          	ld	s0,32(sp)
    60016b38:	03010113          	addi	sp,sp,48
    60016b3c:	00008067          	ret

0000000060016b40 <f_chdir>:
    60016b40:	f9010113          	addi	sp,sp,-112
    60016b44:	06113423          	sd	ra,104(sp)
    60016b48:	06813023          	sd	s0,96(sp)
    60016b4c:	04913c23          	sd	s1,88(sp)
    60016b50:	07010413          	addi	s0,sp,112
    60016b54:	f8a43c23          	sd	a0,-104(s0)
    60016b58:	f9840713          	addi	a4,s0,-104
    60016b5c:	fb040793          	addi	a5,s0,-80
    60016b60:	00000613          	li	a2,0
    60016b64:	00070593          	mv	a1,a4
    60016b68:	00078513          	mv	a0,a5
    60016b6c:	f25fd0ef          	jal	ra,60014a90 <find_volume>
    60016b70:	00050793          	mv	a5,a0
    60016b74:	fcf42e23          	sw	a5,-36(s0)
    60016b78:	fdc42783          	lw	a5,-36(s0)
    60016b7c:	0007879b          	sext.w	a5,a5
    60016b80:	0a079863          	bnez	a5,60016c30 <f_chdir+0xf0>
    60016b84:	fa040793          	addi	a5,s0,-96
    60016b88:	fcf43823          	sd	a5,-48(s0)
    60016b8c:	f9843703          	ld	a4,-104(s0)
    60016b90:	fb040793          	addi	a5,s0,-80
    60016b94:	00070593          	mv	a1,a4
    60016b98:	00078513          	mv	a0,a5
    60016b9c:	9c1fd0ef          	jal	ra,6001455c <follow_path>
    60016ba0:	00050793          	mv	a5,a0
    60016ba4:	fcf42e23          	sw	a5,-36(s0)
    60016ba8:	fdc42783          	lw	a5,-36(s0)
    60016bac:	0007879b          	sext.w	a5,a5
    60016bb0:	06079463          	bnez	a5,60016c18 <f_chdir+0xd8>
    60016bb4:	fc843783          	ld	a5,-56(s0)
    60016bb8:	00079a63          	bnez	a5,60016bcc <f_chdir+0x8c>
    60016bbc:	fb043783          	ld	a5,-80(s0)
    60016bc0:	fbc42703          	lw	a4,-68(s0)
    60016bc4:	00e7aa23          	sw	a4,20(a5)
    60016bc8:	0500006f          	j	60016c18 <f_chdir+0xd8>
    60016bcc:	fc843783          	ld	a5,-56(s0)
    60016bd0:	00b78793          	addi	a5,a5,11
    60016bd4:	0007c783          	lbu	a5,0(a5)
    60016bd8:	0007879b          	sext.w	a5,a5
    60016bdc:	0107f793          	andi	a5,a5,16
    60016be0:	0007879b          	sext.w	a5,a5
    60016be4:	02078663          	beqz	a5,60016c10 <f_chdir+0xd0>
    60016be8:	fb043783          	ld	a5,-80(s0)
    60016bec:	fc843703          	ld	a4,-56(s0)
    60016bf0:	fb043483          	ld	s1,-80(s0)
    60016bf4:	00070593          	mv	a1,a4
    60016bf8:	00078513          	mv	a0,a5
    60016bfc:	d7dfc0ef          	jal	ra,60013978 <ld_clust>
    60016c00:	00050793          	mv	a5,a0
    60016c04:	0007879b          	sext.w	a5,a5
    60016c08:	00f4aa23          	sw	a5,20(s1)
    60016c0c:	00c0006f          	j	60016c18 <f_chdir+0xd8>
    60016c10:	00500793          	li	a5,5
    60016c14:	fcf42e23          	sw	a5,-36(s0)
    60016c18:	fdc42783          	lw	a5,-36(s0)
    60016c1c:	0007871b          	sext.w	a4,a5
    60016c20:	00400793          	li	a5,4
    60016c24:	00f71663          	bne	a4,a5,60016c30 <f_chdir+0xf0>
    60016c28:	00500793          	li	a5,5
    60016c2c:	fcf42e23          	sw	a5,-36(s0)
    60016c30:	fdc42783          	lw	a5,-36(s0)
    60016c34:	00078513          	mv	a0,a5
    60016c38:	06813083          	ld	ra,104(sp)
    60016c3c:	06013403          	ld	s0,96(sp)
    60016c40:	05813483          	ld	s1,88(sp)
    60016c44:	07010113          	addi	sp,sp,112
    60016c48:	00008067          	ret

0000000060016c4c <f_getcwd>:
    60016c4c:	f7010113          	addi	sp,sp,-144
    60016c50:	08113423          	sd	ra,136(sp)
    60016c54:	08813023          	sd	s0,128(sp)
    60016c58:	09010413          	addi	s0,sp,144
    60016c5c:	f6a43c23          	sd	a0,-136(s0)
    60016c60:	00058793          	mv	a5,a1
    60016c64:	f6f42a23          	sw	a5,-140(s0)
    60016c68:	f7843783          	ld	a5,-136(s0)
    60016c6c:	00078023          	sb	zero,0(a5)
    60016c70:	f7840713          	addi	a4,s0,-136
    60016c74:	fa840793          	addi	a5,s0,-88
    60016c78:	00000613          	li	a2,0
    60016c7c:	00070593          	mv	a1,a4
    60016c80:	00078513          	mv	a0,a5
    60016c84:	e0dfd0ef          	jal	ra,60014a90 <find_volume>
    60016c88:	00050793          	mv	a5,a0
    60016c8c:	fef42623          	sw	a5,-20(s0)
    60016c90:	fec42783          	lw	a5,-20(s0)
    60016c94:	0007879b          	sext.w	a5,a5
    60016c98:	30079c63          	bnez	a5,60016fb0 <f_getcwd+0x364>
    60016c9c:	f8040793          	addi	a5,s0,-128
    60016ca0:	fcf43423          	sd	a5,-56(s0)
    60016ca4:	f7442783          	lw	a5,-140(s0)
    60016ca8:	fef42423          	sw	a5,-24(s0)
    60016cac:	fa843783          	ld	a5,-88(s0)
    60016cb0:	0147a783          	lw	a5,20(a5)
    60016cb4:	faf42a23          	sw	a5,-76(s0)
    60016cb8:	2040006f          	j	60016ebc <f_getcwd+0x270>
    60016cbc:	fa840793          	addi	a5,s0,-88
    60016cc0:	00100593          	li	a1,1
    60016cc4:	00078513          	mv	a0,a5
    60016cc8:	de4fc0ef          	jal	ra,600132ac <dir_sdi>
    60016ccc:	00050793          	mv	a5,a0
    60016cd0:	fef42623          	sw	a5,-20(s0)
    60016cd4:	fec42783          	lw	a5,-20(s0)
    60016cd8:	0007879b          	sext.w	a5,a5
    60016cdc:	1e079c63          	bnez	a5,60016ed4 <f_getcwd+0x288>
    60016ce0:	fa840793          	addi	a5,s0,-88
    60016ce4:	00000593          	li	a1,0
    60016ce8:	00078513          	mv	a0,a5
    60016cec:	f4dfc0ef          	jal	ra,60013c38 <dir_read>
    60016cf0:	00050793          	mv	a5,a0
    60016cf4:	fef42623          	sw	a5,-20(s0)
    60016cf8:	fec42783          	lw	a5,-20(s0)
    60016cfc:	0007879b          	sext.w	a5,a5
    60016d00:	1c079e63          	bnez	a5,60016edc <f_getcwd+0x290>
    60016d04:	fa843783          	ld	a5,-88(s0)
    60016d08:	fc043703          	ld	a4,-64(s0)
    60016d0c:	00070593          	mv	a1,a4
    60016d10:	00078513          	mv	a0,a5
    60016d14:	c65fc0ef          	jal	ra,60013978 <ld_clust>
    60016d18:	00050793          	mv	a5,a0
    60016d1c:	0007879b          	sext.w	a5,a5
    60016d20:	faf42a23          	sw	a5,-76(s0)
    60016d24:	fa840793          	addi	a5,s0,-88
    60016d28:	00000593          	li	a1,0
    60016d2c:	00078513          	mv	a0,a5
    60016d30:	d7cfc0ef          	jal	ra,600132ac <dir_sdi>
    60016d34:	00050793          	mv	a5,a0
    60016d38:	fef42623          	sw	a5,-20(s0)
    60016d3c:	fec42783          	lw	a5,-20(s0)
    60016d40:	0007879b          	sext.w	a5,a5
    60016d44:	1a079063          	bnez	a5,60016ee4 <f_getcwd+0x298>
    60016d48:	fa840793          	addi	a5,s0,-88
    60016d4c:	00000593          	li	a1,0
    60016d50:	00078513          	mv	a0,a5
    60016d54:	ee5fc0ef          	jal	ra,60013c38 <dir_read>
    60016d58:	00050793          	mv	a5,a0
    60016d5c:	fef42623          	sw	a5,-20(s0)
    60016d60:	fec42783          	lw	a5,-20(s0)
    60016d64:	0007879b          	sext.w	a5,a5
    60016d68:	04079a63          	bnez	a5,60016dbc <f_getcwd+0x170>
    60016d6c:	fa843783          	ld	a5,-88(s0)
    60016d70:	fc043703          	ld	a4,-64(s0)
    60016d74:	00070593          	mv	a1,a4
    60016d78:	00078513          	mv	a0,a5
    60016d7c:	bfdfc0ef          	jal	ra,60013978 <ld_clust>
    60016d80:	00050793          	mv	a5,a0
    60016d84:	0007871b          	sext.w	a4,a5
    60016d88:	fd442783          	lw	a5,-44(s0)
    60016d8c:	0007879b          	sext.w	a5,a5
    60016d90:	02e78a63          	beq	a5,a4,60016dc4 <f_getcwd+0x178>
    60016d94:	fa840793          	addi	a5,s0,-88
    60016d98:	00000593          	li	a1,0
    60016d9c:	00078513          	mv	a0,a5
    60016da0:	f44fc0ef          	jal	ra,600134e4 <dir_next>
    60016da4:	00050793          	mv	a5,a0
    60016da8:	fef42623          	sw	a5,-20(s0)
    60016dac:	fec42783          	lw	a5,-20(s0)
    60016db0:	0007879b          	sext.w	a5,a5
    60016db4:	f8078ae3          	beqz	a5,60016d48 <f_getcwd+0xfc>
    60016db8:	0100006f          	j	60016dc8 <f_getcwd+0x17c>
    60016dbc:	00000013          	nop
    60016dc0:	0080006f          	j	60016dc8 <f_getcwd+0x17c>
    60016dc4:	00000013          	nop
    60016dc8:	fec42783          	lw	a5,-20(s0)
    60016dcc:	0007871b          	sext.w	a4,a5
    60016dd0:	00400793          	li	a5,4
    60016dd4:	00f71663          	bne	a4,a5,60016de0 <f_getcwd+0x194>
    60016dd8:	00200793          	li	a5,2
    60016ddc:	fef42623          	sw	a5,-20(s0)
    60016de0:	fec42783          	lw	a5,-20(s0)
    60016de4:	0007879b          	sext.w	a5,a5
    60016de8:	10079263          	bnez	a5,60016eec <f_getcwd+0x2a0>
    60016dec:	f9040713          	addi	a4,s0,-112
    60016df0:	fa840793          	addi	a5,s0,-88
    60016df4:	00070593          	mv	a1,a4
    60016df8:	00078513          	mv	a0,a5
    60016dfc:	920fd0ef          	jal	ra,60013f1c <get_fileinfo>
    60016e00:	f9040793          	addi	a5,s0,-112
    60016e04:	00978793          	addi	a5,a5,9
    60016e08:	fcf43c23          	sd	a5,-40(s0)
    60016e0c:	fe042223          	sw	zero,-28(s0)
    60016e10:	0100006f          	j	60016e20 <f_getcwd+0x1d4>
    60016e14:	fe442783          	lw	a5,-28(s0)
    60016e18:	0017879b          	addiw	a5,a5,1
    60016e1c:	fef42223          	sw	a5,-28(s0)
    60016e20:	fe446783          	lwu	a5,-28(s0)
    60016e24:	fd843703          	ld	a4,-40(s0)
    60016e28:	00f707b3          	add	a5,a4,a5
    60016e2c:	0007c783          	lbu	a5,0(a5)
    60016e30:	fe0792e3          	bnez	a5,60016e14 <f_getcwd+0x1c8>
    60016e34:	fe442783          	lw	a5,-28(s0)
    60016e38:	0037879b          	addiw	a5,a5,3
    60016e3c:	0007871b          	sext.w	a4,a5
    60016e40:	fe842783          	lw	a5,-24(s0)
    60016e44:	0007879b          	sext.w	a5,a5
    60016e48:	04e7f463          	bgeu	a5,a4,60016e90 <f_getcwd+0x244>
    60016e4c:	01100793          	li	a5,17
    60016e50:	fef42623          	sw	a5,-20(s0)
    60016e54:	09c0006f          	j	60016ef0 <f_getcwd+0x2a4>
    60016e58:	fe442783          	lw	a5,-28(s0)
    60016e5c:	fff7879b          	addiw	a5,a5,-1
    60016e60:	fef42223          	sw	a5,-28(s0)
    60016e64:	fe446783          	lwu	a5,-28(s0)
    60016e68:	fd843703          	ld	a4,-40(s0)
    60016e6c:	00f70733          	add	a4,a4,a5
    60016e70:	f7843683          	ld	a3,-136(s0)
    60016e74:	fe842783          	lw	a5,-24(s0)
    60016e78:	fff7879b          	addiw	a5,a5,-1
    60016e7c:	fef42423          	sw	a5,-24(s0)
    60016e80:	fe846783          	lwu	a5,-24(s0)
    60016e84:	00f687b3          	add	a5,a3,a5
    60016e88:	00074703          	lbu	a4,0(a4)
    60016e8c:	00e78023          	sb	a4,0(a5)
    60016e90:	fe442783          	lw	a5,-28(s0)
    60016e94:	0007879b          	sext.w	a5,a5
    60016e98:	fc0790e3          	bnez	a5,60016e58 <f_getcwd+0x20c>
    60016e9c:	f7843703          	ld	a4,-136(s0)
    60016ea0:	fe842783          	lw	a5,-24(s0)
    60016ea4:	fff7879b          	addiw	a5,a5,-1
    60016ea8:	fef42423          	sw	a5,-24(s0)
    60016eac:	fe846783          	lwu	a5,-24(s0)
    60016eb0:	00f707b3          	add	a5,a4,a5
    60016eb4:	02f00713          	li	a4,47
    60016eb8:	00e78023          	sb	a4,0(a5)
    60016ebc:	fb442783          	lw	a5,-76(s0)
    60016ec0:	fcf42a23          	sw	a5,-44(s0)
    60016ec4:	fd442783          	lw	a5,-44(s0)
    60016ec8:	0007879b          	sext.w	a5,a5
    60016ecc:	de0798e3          	bnez	a5,60016cbc <f_getcwd+0x70>
    60016ed0:	0200006f          	j	60016ef0 <f_getcwd+0x2a4>
    60016ed4:	00000013          	nop
    60016ed8:	0180006f          	j	60016ef0 <f_getcwd+0x2a4>
    60016edc:	00000013          	nop
    60016ee0:	0100006f          	j	60016ef0 <f_getcwd+0x2a4>
    60016ee4:	00000013          	nop
    60016ee8:	0080006f          	j	60016ef0 <f_getcwd+0x2a4>
    60016eec:	00000013          	nop
    60016ef0:	f7843783          	ld	a5,-136(s0)
    60016ef4:	fcf43c23          	sd	a5,-40(s0)
    60016ef8:	fec42783          	lw	a5,-20(s0)
    60016efc:	0007879b          	sext.w	a5,a5
    60016f00:	0a079463          	bnez	a5,60016fa8 <f_getcwd+0x35c>
    60016f04:	6001a7b7          	lui	a5,0x6001a
    60016f08:	2d27c703          	lbu	a4,722(a5) # 6001a2d2 <CurrVol>
    60016f0c:	fd843783          	ld	a5,-40(s0)
    60016f10:	00178693          	addi	a3,a5,1
    60016f14:	fcd43c23          	sd	a3,-40(s0)
    60016f18:	0307071b          	addiw	a4,a4,48
    60016f1c:	0ff77713          	andi	a4,a4,255
    60016f20:	00e78023          	sb	a4,0(a5)
    60016f24:	fd843783          	ld	a5,-40(s0)
    60016f28:	00178713          	addi	a4,a5,1
    60016f2c:	fce43c23          	sd	a4,-40(s0)
    60016f30:	03a00713          	li	a4,58
    60016f34:	00e78023          	sb	a4,0(a5)
    60016f38:	fe842703          	lw	a4,-24(s0)
    60016f3c:	f7442783          	lw	a5,-140(s0)
    60016f40:	0007071b          	sext.w	a4,a4
    60016f44:	0007879b          	sext.w	a5,a5
    60016f48:	00f71e63          	bne	a4,a5,60016f64 <f_getcwd+0x318>
    60016f4c:	fd843783          	ld	a5,-40(s0)
    60016f50:	00178713          	addi	a4,a5,1
    60016f54:	fce43c23          	sd	a4,-40(s0)
    60016f58:	02f00713          	li	a4,47
    60016f5c:	00e78023          	sb	a4,0(a5)
    60016f60:	0480006f          	j	60016fa8 <f_getcwd+0x35c>
    60016f64:	f7843703          	ld	a4,-136(s0)
    60016f68:	fe842783          	lw	a5,-24(s0)
    60016f6c:	0017869b          	addiw	a3,a5,1
    60016f70:	fed42423          	sw	a3,-24(s0)
    60016f74:	02079793          	slli	a5,a5,0x20
    60016f78:	0207d793          	srli	a5,a5,0x20
    60016f7c:	00f70733          	add	a4,a4,a5
    60016f80:	fd843783          	ld	a5,-40(s0)
    60016f84:	00178693          	addi	a3,a5,1
    60016f88:	fcd43c23          	sd	a3,-40(s0)
    60016f8c:	00074703          	lbu	a4,0(a4)
    60016f90:	00e78023          	sb	a4,0(a5)
    60016f94:	fe842703          	lw	a4,-24(s0)
    60016f98:	f7442783          	lw	a5,-140(s0)
    60016f9c:	0007071b          	sext.w	a4,a4
    60016fa0:	0007879b          	sext.w	a5,a5
    60016fa4:	fcf760e3          	bltu	a4,a5,60016f64 <f_getcwd+0x318>
    60016fa8:	fd843783          	ld	a5,-40(s0)
    60016fac:	00078023          	sb	zero,0(a5)
    60016fb0:	fec42783          	lw	a5,-20(s0)
    60016fb4:	00078513          	mv	a0,a5
    60016fb8:	08813083          	ld	ra,136(sp)
    60016fbc:	08013403          	ld	s0,128(sp)
    60016fc0:	09010113          	addi	sp,sp,144
    60016fc4:	00008067          	ret

0000000060016fc8 <f_lseek>:
    60016fc8:	fc010113          	addi	sp,sp,-64
    60016fcc:	02113c23          	sd	ra,56(sp)
    60016fd0:	02813823          	sd	s0,48(sp)
    60016fd4:	04010413          	addi	s0,sp,64
    60016fd8:	fca43423          	sd	a0,-56(s0)
    60016fdc:	00058793          	mv	a5,a1
    60016fe0:	fcf42223          	sw	a5,-60(s0)
    60016fe4:	fc843503          	ld	a0,-56(s0)
    60016fe8:	e78fe0ef          	jal	ra,60015660 <validate>
    60016fec:	00050793          	mv	a5,a0
    60016ff0:	fef42223          	sw	a5,-28(s0)
    60016ff4:	fe442783          	lw	a5,-28(s0)
    60016ff8:	0007879b          	sext.w	a5,a5
    60016ffc:	00078663          	beqz	a5,60017008 <f_lseek+0x40>
    60017000:	fe442783          	lw	a5,-28(s0)
    60017004:	4a40006f          	j	600174a8 <f_lseek+0x4e0>
    60017008:	fc843783          	ld	a5,-56(s0)
    6001700c:	00b7c783          	lbu	a5,11(a5)
    60017010:	00078a63          	beqz	a5,60017024 <f_lseek+0x5c>
    60017014:	fc843783          	ld	a5,-56(s0)
    60017018:	00b7c783          	lbu	a5,11(a5)
    6001701c:	0007879b          	sext.w	a5,a5
    60017020:	4880006f          	j	600174a8 <f_lseek+0x4e0>
    60017024:	fc843783          	ld	a5,-56(s0)
    60017028:	0107a703          	lw	a4,16(a5)
    6001702c:	fc442783          	lw	a5,-60(s0)
    60017030:	0007879b          	sext.w	a5,a5
    60017034:	02f77463          	bgeu	a4,a5,6001705c <f_lseek+0x94>
    60017038:	fc843783          	ld	a5,-56(s0)
    6001703c:	00a7c783          	lbu	a5,10(a5)
    60017040:	0007879b          	sext.w	a5,a5
    60017044:	0027f793          	andi	a5,a5,2
    60017048:	0007879b          	sext.w	a5,a5
    6001704c:	00079863          	bnez	a5,6001705c <f_lseek+0x94>
    60017050:	fc843783          	ld	a5,-56(s0)
    60017054:	0107a783          	lw	a5,16(a5)
    60017058:	fcf42223          	sw	a5,-60(s0)
    6001705c:	fc843783          	ld	a5,-56(s0)
    60017060:	00c7a783          	lw	a5,12(a5)
    60017064:	fef42023          	sw	a5,-32(s0)
    60017068:	fe042423          	sw	zero,-24(s0)
    6001706c:	fc843783          	ld	a5,-56(s0)
    60017070:	fe842703          	lw	a4,-24(s0)
    60017074:	00e7a623          	sw	a4,12(a5)
    60017078:	fc442783          	lw	a5,-60(s0)
    6001707c:	0007879b          	sext.w	a5,a5
    60017080:	2e078863          	beqz	a5,60017370 <f_lseek+0x3a8>
    60017084:	fc843783          	ld	a5,-56(s0)
    60017088:	0007b783          	ld	a5,0(a5)
    6001708c:	0027c783          	lbu	a5,2(a5)
    60017090:	0007879b          	sext.w	a5,a5
    60017094:	0097979b          	slliw	a5,a5,0x9
    60017098:	fcf42e23          	sw	a5,-36(s0)
    6001709c:	fe042783          	lw	a5,-32(s0)
    600170a0:	0007879b          	sext.w	a5,a5
    600170a4:	08078463          	beqz	a5,6001712c <f_lseek+0x164>
    600170a8:	fc442783          	lw	a5,-60(s0)
    600170ac:	fff7879b          	addiw	a5,a5,-1
    600170b0:	0007871b          	sext.w	a4,a5
    600170b4:	fdc42783          	lw	a5,-36(s0)
    600170b8:	02f757bb          	divuw	a5,a4,a5
    600170bc:	0007869b          	sext.w	a3,a5
    600170c0:	fe042783          	lw	a5,-32(s0)
    600170c4:	fff7879b          	addiw	a5,a5,-1
    600170c8:	0007871b          	sext.w	a4,a5
    600170cc:	fdc42783          	lw	a5,-36(s0)
    600170d0:	02f757bb          	divuw	a5,a4,a5
    600170d4:	0007879b          	sext.w	a5,a5
    600170d8:	00068713          	mv	a4,a3
    600170dc:	04f76863          	bltu	a4,a5,6001712c <f_lseek+0x164>
    600170e0:	fe042783          	lw	a5,-32(s0)
    600170e4:	fff7879b          	addiw	a5,a5,-1
    600170e8:	0007871b          	sext.w	a4,a5
    600170ec:	fdc42783          	lw	a5,-36(s0)
    600170f0:	40f007bb          	negw	a5,a5
    600170f4:	0007879b          	sext.w	a5,a5
    600170f8:	00f777b3          	and	a5,a4,a5
    600170fc:	0007871b          	sext.w	a4,a5
    60017100:	fc843783          	ld	a5,-56(s0)
    60017104:	00e7a623          	sw	a4,12(a5)
    60017108:	fc843783          	ld	a5,-56(s0)
    6001710c:	00c7a783          	lw	a5,12(a5)
    60017110:	fc442703          	lw	a4,-60(s0)
    60017114:	40f707bb          	subw	a5,a4,a5
    60017118:	fcf42223          	sw	a5,-60(s0)
    6001711c:	fc843783          	ld	a5,-56(s0)
    60017120:	0187a783          	lw	a5,24(a5)
    60017124:	fef42623          	sw	a5,-20(s0)
    60017128:	0980006f          	j	600171c0 <f_lseek+0x1f8>
    6001712c:	fc843783          	ld	a5,-56(s0)
    60017130:	0147a783          	lw	a5,20(a5)
    60017134:	fef42623          	sw	a5,-20(s0)
    60017138:	fec42783          	lw	a5,-20(s0)
    6001713c:	0007879b          	sext.w	a5,a5
    60017140:	06079a63          	bnez	a5,600171b4 <f_lseek+0x1ec>
    60017144:	fc843783          	ld	a5,-56(s0)
    60017148:	0007b783          	ld	a5,0(a5)
    6001714c:	00000593          	li	a1,0
    60017150:	00078513          	mv	a0,a5
    60017154:	ee5fb0ef          	jal	ra,60013038 <create_chain>
    60017158:	00050793          	mv	a5,a0
    6001715c:	fef42623          	sw	a5,-20(s0)
    60017160:	fec42783          	lw	a5,-20(s0)
    60017164:	0007871b          	sext.w	a4,a5
    60017168:	00100793          	li	a5,1
    6001716c:	00f71c63          	bne	a4,a5,60017184 <f_lseek+0x1bc>
    60017170:	fc843783          	ld	a5,-56(s0)
    60017174:	00200713          	li	a4,2
    60017178:	00e785a3          	sb	a4,11(a5)
    6001717c:	00200793          	li	a5,2
    60017180:	3280006f          	j	600174a8 <f_lseek+0x4e0>
    60017184:	fec42783          	lw	a5,-20(s0)
    60017188:	0007871b          	sext.w	a4,a5
    6001718c:	fff00793          	li	a5,-1
    60017190:	00f71c63          	bne	a4,a5,600171a8 <f_lseek+0x1e0>
    60017194:	fc843783          	ld	a5,-56(s0)
    60017198:	00100713          	li	a4,1
    6001719c:	00e785a3          	sb	a4,11(a5)
    600171a0:	00100793          	li	a5,1
    600171a4:	3040006f          	j	600174a8 <f_lseek+0x4e0>
    600171a8:	fc843783          	ld	a5,-56(s0)
    600171ac:	fec42703          	lw	a4,-20(s0)
    600171b0:	00e7aa23          	sw	a4,20(a5)
    600171b4:	fc843783          	ld	a5,-56(s0)
    600171b8:	fec42703          	lw	a4,-20(s0)
    600171bc:	00e7ac23          	sw	a4,24(a5)
    600171c0:	fec42783          	lw	a5,-20(s0)
    600171c4:	0007879b          	sext.w	a5,a5
    600171c8:	1a078463          	beqz	a5,60017370 <f_lseek+0x3a8>
    600171cc:	10c0006f          	j	600172d8 <f_lseek+0x310>
    600171d0:	fc843783          	ld	a5,-56(s0)
    600171d4:	00a7c783          	lbu	a5,10(a5)
    600171d8:	0007879b          	sext.w	a5,a5
    600171dc:	0027f793          	andi	a5,a5,2
    600171e0:	0007879b          	sext.w	a5,a5
    600171e4:	02078e63          	beqz	a5,60017220 <f_lseek+0x258>
    600171e8:	fc843783          	ld	a5,-56(s0)
    600171ec:	0007b783          	ld	a5,0(a5)
    600171f0:	fec42703          	lw	a4,-20(s0)
    600171f4:	00070593          	mv	a1,a4
    600171f8:	00078513          	mv	a0,a5
    600171fc:	e3dfb0ef          	jal	ra,60013038 <create_chain>
    60017200:	00050793          	mv	a5,a0
    60017204:	fef42623          	sw	a5,-20(s0)
    60017208:	fec42783          	lw	a5,-20(s0)
    6001720c:	0007879b          	sext.w	a5,a5
    60017210:	02079863          	bnez	a5,60017240 <f_lseek+0x278>
    60017214:	fdc42783          	lw	a5,-36(s0)
    60017218:	fcf42223          	sw	a5,-60(s0)
    6001721c:	0d00006f          	j	600172ec <f_lseek+0x324>
    60017220:	fc843783          	ld	a5,-56(s0)
    60017224:	0007b783          	ld	a5,0(a5)
    60017228:	fec42703          	lw	a4,-20(s0)
    6001722c:	00070593          	mv	a1,a4
    60017230:	00078513          	mv	a0,a5
    60017234:	c34fb0ef          	jal	ra,60012668 <get_fat>
    60017238:	00050793          	mv	a5,a0
    6001723c:	fef42623          	sw	a5,-20(s0)
    60017240:	fec42783          	lw	a5,-20(s0)
    60017244:	0007871b          	sext.w	a4,a5
    60017248:	fff00793          	li	a5,-1
    6001724c:	00f71c63          	bne	a4,a5,60017264 <f_lseek+0x29c>
    60017250:	fc843783          	ld	a5,-56(s0)
    60017254:	00100713          	li	a4,1
    60017258:	00e785a3          	sb	a4,11(a5)
    6001725c:	00100793          	li	a5,1
    60017260:	2480006f          	j	600174a8 <f_lseek+0x4e0>
    60017264:	fec42783          	lw	a5,-20(s0)
    60017268:	0007871b          	sext.w	a4,a5
    6001726c:	00100793          	li	a5,1
    60017270:	00e7fe63          	bgeu	a5,a4,6001728c <f_lseek+0x2c4>
    60017274:	fc843783          	ld	a5,-56(s0)
    60017278:	0007b783          	ld	a5,0(a5)
    6001727c:	0187a703          	lw	a4,24(a5)
    60017280:	fec42783          	lw	a5,-20(s0)
    60017284:	0007879b          	sext.w	a5,a5
    60017288:	00e7ec63          	bltu	a5,a4,600172a0 <f_lseek+0x2d8>
    6001728c:	fc843783          	ld	a5,-56(s0)
    60017290:	00200713          	li	a4,2
    60017294:	00e785a3          	sb	a4,11(a5)
    60017298:	00200793          	li	a5,2
    6001729c:	20c0006f          	j	600174a8 <f_lseek+0x4e0>
    600172a0:	fc843783          	ld	a5,-56(s0)
    600172a4:	fec42703          	lw	a4,-20(s0)
    600172a8:	00e7ac23          	sw	a4,24(a5)
    600172ac:	fc843783          	ld	a5,-56(s0)
    600172b0:	00c7a783          	lw	a5,12(a5)
    600172b4:	fdc42703          	lw	a4,-36(s0)
    600172b8:	00f707bb          	addw	a5,a4,a5
    600172bc:	0007871b          	sext.w	a4,a5
    600172c0:	fc843783          	ld	a5,-56(s0)
    600172c4:	00e7a623          	sw	a4,12(a5)
    600172c8:	fc442703          	lw	a4,-60(s0)
    600172cc:	fdc42783          	lw	a5,-36(s0)
    600172d0:	40f707bb          	subw	a5,a4,a5
    600172d4:	fcf42223          	sw	a5,-60(s0)
    600172d8:	fc442703          	lw	a4,-60(s0)
    600172dc:	fdc42783          	lw	a5,-36(s0)
    600172e0:	0007071b          	sext.w	a4,a4
    600172e4:	0007879b          	sext.w	a5,a5
    600172e8:	eee7e4e3          	bltu	a5,a4,600171d0 <f_lseek+0x208>
    600172ec:	fc843783          	ld	a5,-56(s0)
    600172f0:	00c7a783          	lw	a5,12(a5)
    600172f4:	fc442703          	lw	a4,-60(s0)
    600172f8:	00f707bb          	addw	a5,a4,a5
    600172fc:	0007871b          	sext.w	a4,a5
    60017300:	fc843783          	ld	a5,-56(s0)
    60017304:	00e7a623          	sw	a4,12(a5)
    60017308:	fc442783          	lw	a5,-60(s0)
    6001730c:	1ff7f793          	andi	a5,a5,511
    60017310:	0007879b          	sext.w	a5,a5
    60017314:	04078e63          	beqz	a5,60017370 <f_lseek+0x3a8>
    60017318:	fc843783          	ld	a5,-56(s0)
    6001731c:	0007b783          	ld	a5,0(a5)
    60017320:	fec42703          	lw	a4,-20(s0)
    60017324:	00070593          	mv	a1,a4
    60017328:	00078513          	mv	a0,a5
    6001732c:	abcfb0ef          	jal	ra,600125e8 <clust2sect>
    60017330:	00050793          	mv	a5,a0
    60017334:	fef42423          	sw	a5,-24(s0)
    60017338:	fe842783          	lw	a5,-24(s0)
    6001733c:	0007879b          	sext.w	a5,a5
    60017340:	00079c63          	bnez	a5,60017358 <f_lseek+0x390>
    60017344:	fc843783          	ld	a5,-56(s0)
    60017348:	00200713          	li	a4,2
    6001734c:	00e785a3          	sb	a4,11(a5)
    60017350:	00200793          	li	a5,2
    60017354:	1540006f          	j	600174a8 <f_lseek+0x4e0>
    60017358:	fc442783          	lw	a5,-60(s0)
    6001735c:	0097d79b          	srliw	a5,a5,0x9
    60017360:	0007879b          	sext.w	a5,a5
    60017364:	fe842703          	lw	a4,-24(s0)
    60017368:	00f707bb          	addw	a5,a4,a5
    6001736c:	fef42423          	sw	a5,-24(s0)
    60017370:	fc843783          	ld	a5,-56(s0)
    60017374:	00c7a783          	lw	a5,12(a5)
    60017378:	1ff7f793          	andi	a5,a5,511
    6001737c:	0007879b          	sext.w	a5,a5
    60017380:	0e078463          	beqz	a5,60017468 <f_lseek+0x4a0>
    60017384:	fc843783          	ld	a5,-56(s0)
    60017388:	01c7a703          	lw	a4,28(a5)
    6001738c:	fe842783          	lw	a5,-24(s0)
    60017390:	0007879b          	sext.w	a5,a5
    60017394:	0ce78a63          	beq	a5,a4,60017468 <f_lseek+0x4a0>
    60017398:	fc843783          	ld	a5,-56(s0)
    6001739c:	00a7c783          	lbu	a5,10(a5)
    600173a0:	0007879b          	sext.w	a5,a5
    600173a4:	0407f793          	andi	a5,a5,64
    600173a8:	0007879b          	sext.w	a5,a5
    600173ac:	06078463          	beqz	a5,60017414 <f_lseek+0x44c>
    600173b0:	fc843783          	ld	a5,-56(s0)
    600173b4:	0007b783          	ld	a5,0(a5)
    600173b8:	0017c703          	lbu	a4,1(a5)
    600173bc:	fc843783          	ld	a5,-56(s0)
    600173c0:	03078593          	addi	a1,a5,48
    600173c4:	fc843783          	ld	a5,-56(s0)
    600173c8:	01c7a783          	lw	a5,28(a5)
    600173cc:	00100693          	li	a3,1
    600173d0:	00078613          	mv	a2,a5
    600173d4:	00070513          	mv	a0,a4
    600173d8:	cb0fa0ef          	jal	ra,60011888 <disk_write>
    600173dc:	00050793          	mv	a5,a0
    600173e0:	0007879b          	sext.w	a5,a5
    600173e4:	00078c63          	beqz	a5,600173fc <f_lseek+0x434>
    600173e8:	fc843783          	ld	a5,-56(s0)
    600173ec:	00100713          	li	a4,1
    600173f0:	00e785a3          	sb	a4,11(a5)
    600173f4:	00100793          	li	a5,1
    600173f8:	0b00006f          	j	600174a8 <f_lseek+0x4e0>
    600173fc:	fc843783          	ld	a5,-56(s0)
    60017400:	00a7c783          	lbu	a5,10(a5)
    60017404:	fbf7f793          	andi	a5,a5,-65
    60017408:	0ff7f713          	andi	a4,a5,255
    6001740c:	fc843783          	ld	a5,-56(s0)
    60017410:	00e78523          	sb	a4,10(a5)
    60017414:	fc843783          	ld	a5,-56(s0)
    60017418:	0007b783          	ld	a5,0(a5)
    6001741c:	0017c703          	lbu	a4,1(a5)
    60017420:	fc843783          	ld	a5,-56(s0)
    60017424:	03078793          	addi	a5,a5,48
    60017428:	fe842603          	lw	a2,-24(s0)
    6001742c:	00100693          	li	a3,1
    60017430:	00078593          	mv	a1,a5
    60017434:	00070513          	mv	a0,a4
    60017438:	af4fa0ef          	jal	ra,6001172c <disk_read>
    6001743c:	00050793          	mv	a5,a0
    60017440:	0007879b          	sext.w	a5,a5
    60017444:	00078c63          	beqz	a5,6001745c <f_lseek+0x494>
    60017448:	fc843783          	ld	a5,-56(s0)
    6001744c:	00100713          	li	a4,1
    60017450:	00e785a3          	sb	a4,11(a5)
    60017454:	00100793          	li	a5,1
    60017458:	0500006f          	j	600174a8 <f_lseek+0x4e0>
    6001745c:	fc843783          	ld	a5,-56(s0)
    60017460:	fe842703          	lw	a4,-24(s0)
    60017464:	00e7ae23          	sw	a4,28(a5)
    60017468:	fc843783          	ld	a5,-56(s0)
    6001746c:	00c7a703          	lw	a4,12(a5)
    60017470:	fc843783          	ld	a5,-56(s0)
    60017474:	0107a783          	lw	a5,16(a5)
    60017478:	02e7f663          	bgeu	a5,a4,600174a4 <f_lseek+0x4dc>
    6001747c:	fc843783          	ld	a5,-56(s0)
    60017480:	00c7a703          	lw	a4,12(a5)
    60017484:	fc843783          	ld	a5,-56(s0)
    60017488:	00e7a823          	sw	a4,16(a5)
    6001748c:	fc843783          	ld	a5,-56(s0)
    60017490:	00a7c783          	lbu	a5,10(a5)
    60017494:	0207e793          	ori	a5,a5,32
    60017498:	0ff7f713          	andi	a4,a5,255
    6001749c:	fc843783          	ld	a5,-56(s0)
    600174a0:	00e78523          	sb	a4,10(a5)
    600174a4:	fe442783          	lw	a5,-28(s0)
    600174a8:	00078513          	mv	a0,a5
    600174ac:	03813083          	ld	ra,56(sp)
    600174b0:	03013403          	ld	s0,48(sp)
    600174b4:	04010113          	addi	sp,sp,64
    600174b8:	00008067          	ret

00000000600174bc <f_opendir>:
    600174bc:	fc010113          	addi	sp,sp,-64
    600174c0:	02113c23          	sd	ra,56(sp)
    600174c4:	02813823          	sd	s0,48(sp)
    600174c8:	04010413          	addi	s0,sp,64
    600174cc:	fca43423          	sd	a0,-56(s0)
    600174d0:	fcb43023          	sd	a1,-64(s0)
    600174d4:	fc843783          	ld	a5,-56(s0)
    600174d8:	00079663          	bnez	a5,600174e4 <f_opendir+0x28>
    600174dc:	00900793          	li	a5,9
    600174e0:	12c0006f          	j	6001760c <f_opendir+0x150>
    600174e4:	fc040713          	addi	a4,s0,-64
    600174e8:	fe040793          	addi	a5,s0,-32
    600174ec:	00000613          	li	a2,0
    600174f0:	00070593          	mv	a1,a4
    600174f4:	00078513          	mv	a0,a5
    600174f8:	d98fd0ef          	jal	ra,60014a90 <find_volume>
    600174fc:	00050793          	mv	a5,a0
    60017500:	fef42623          	sw	a5,-20(s0)
    60017504:	fec42783          	lw	a5,-20(s0)
    60017508:	0007879b          	sext.w	a5,a5
    6001750c:	0e079463          	bnez	a5,600175f4 <f_opendir+0x138>
    60017510:	fe043703          	ld	a4,-32(s0)
    60017514:	fc843783          	ld	a5,-56(s0)
    60017518:	00e7b023          	sd	a4,0(a5)
    6001751c:	fc843783          	ld	a5,-56(s0)
    60017520:	fd040713          	addi	a4,s0,-48
    60017524:	02e7b023          	sd	a4,32(a5)
    60017528:	fc043783          	ld	a5,-64(s0)
    6001752c:	00078593          	mv	a1,a5
    60017530:	fc843503          	ld	a0,-56(s0)
    60017534:	828fd0ef          	jal	ra,6001455c <follow_path>
    60017538:	00050793          	mv	a5,a0
    6001753c:	fef42623          	sw	a5,-20(s0)
    60017540:	fec42783          	lw	a5,-20(s0)
    60017544:	0007879b          	sext.w	a5,a5
    60017548:	08079a63          	bnez	a5,600175dc <f_opendir+0x120>
    6001754c:	fc843783          	ld	a5,-56(s0)
    60017550:	0187b783          	ld	a5,24(a5)
    60017554:	04078c63          	beqz	a5,600175ac <f_opendir+0xf0>
    60017558:	fc843783          	ld	a5,-56(s0)
    6001755c:	0187b783          	ld	a5,24(a5)
    60017560:	00b78793          	addi	a5,a5,11
    60017564:	0007c783          	lbu	a5,0(a5)
    60017568:	0007879b          	sext.w	a5,a5
    6001756c:	0107f793          	andi	a5,a5,16
    60017570:	0007879b          	sext.w	a5,a5
    60017574:	02078863          	beqz	a5,600175a4 <f_opendir+0xe8>
    60017578:	fe043703          	ld	a4,-32(s0)
    6001757c:	fc843783          	ld	a5,-56(s0)
    60017580:	0187b783          	ld	a5,24(a5)
    60017584:	00078593          	mv	a1,a5
    60017588:	00070513          	mv	a0,a4
    6001758c:	becfc0ef          	jal	ra,60013978 <ld_clust>
    60017590:	00050793          	mv	a5,a0
    60017594:	0007871b          	sext.w	a4,a5
    60017598:	fc843783          	ld	a5,-56(s0)
    6001759c:	00e7a623          	sw	a4,12(a5)
    600175a0:	00c0006f          	j	600175ac <f_opendir+0xf0>
    600175a4:	00500793          	li	a5,5
    600175a8:	fef42623          	sw	a5,-20(s0)
    600175ac:	fec42783          	lw	a5,-20(s0)
    600175b0:	0007879b          	sext.w	a5,a5
    600175b4:	02079463          	bnez	a5,600175dc <f_opendir+0x120>
    600175b8:	fe043783          	ld	a5,-32(s0)
    600175bc:	0067d703          	lhu	a4,6(a5)
    600175c0:	fc843783          	ld	a5,-56(s0)
    600175c4:	00e79423          	sh	a4,8(a5)
    600175c8:	00000593          	li	a1,0
    600175cc:	fc843503          	ld	a0,-56(s0)
    600175d0:	cddfb0ef          	jal	ra,600132ac <dir_sdi>
    600175d4:	00050793          	mv	a5,a0
    600175d8:	fef42623          	sw	a5,-20(s0)
    600175dc:	fec42783          	lw	a5,-20(s0)
    600175e0:	0007871b          	sext.w	a4,a5
    600175e4:	00400793          	li	a5,4
    600175e8:	00f71663          	bne	a4,a5,600175f4 <f_opendir+0x138>
    600175ec:	00500793          	li	a5,5
    600175f0:	fef42623          	sw	a5,-20(s0)
    600175f4:	fec42783          	lw	a5,-20(s0)
    600175f8:	0007879b          	sext.w	a5,a5
    600175fc:	00078663          	beqz	a5,60017608 <f_opendir+0x14c>
    60017600:	fc843783          	ld	a5,-56(s0)
    60017604:	0007b023          	sd	zero,0(a5)
    60017608:	fec42783          	lw	a5,-20(s0)
    6001760c:	00078513          	mv	a0,a5
    60017610:	03813083          	ld	ra,56(sp)
    60017614:	03013403          	ld	s0,48(sp)
    60017618:	04010113          	addi	sp,sp,64
    6001761c:	00008067          	ret

0000000060017620 <f_closedir>:
    60017620:	fd010113          	addi	sp,sp,-48
    60017624:	02113423          	sd	ra,40(sp)
    60017628:	02813023          	sd	s0,32(sp)
    6001762c:	03010413          	addi	s0,sp,48
    60017630:	fca43c23          	sd	a0,-40(s0)
    60017634:	fd843503          	ld	a0,-40(s0)
    60017638:	828fe0ef          	jal	ra,60015660 <validate>
    6001763c:	00050793          	mv	a5,a0
    60017640:	fef42623          	sw	a5,-20(s0)
    60017644:	fec42783          	lw	a5,-20(s0)
    60017648:	0007879b          	sext.w	a5,a5
    6001764c:	00079663          	bnez	a5,60017658 <f_closedir+0x38>
    60017650:	fd843783          	ld	a5,-40(s0)
    60017654:	0007b023          	sd	zero,0(a5)
    60017658:	fec42783          	lw	a5,-20(s0)
    6001765c:	00078513          	mv	a0,a5
    60017660:	02813083          	ld	ra,40(sp)
    60017664:	02013403          	ld	s0,32(sp)
    60017668:	03010113          	addi	sp,sp,48
    6001766c:	00008067          	ret

0000000060017670 <f_readdir>:
    60017670:	fd010113          	addi	sp,sp,-48
    60017674:	02113423          	sd	ra,40(sp)
    60017678:	02813023          	sd	s0,32(sp)
    6001767c:	03010413          	addi	s0,sp,48
    60017680:	fca43c23          	sd	a0,-40(s0)
    60017684:	fcb43823          	sd	a1,-48(s0)
    60017688:	fd843503          	ld	a0,-40(s0)
    6001768c:	fd5fd0ef          	jal	ra,60015660 <validate>
    60017690:	00050793          	mv	a5,a0
    60017694:	fef42623          	sw	a5,-20(s0)
    60017698:	fec42783          	lw	a5,-20(s0)
    6001769c:	0007879b          	sext.w	a5,a5
    600176a0:	0a079463          	bnez	a5,60017748 <f_readdir+0xd8>
    600176a4:	fd043783          	ld	a5,-48(s0)
    600176a8:	00079e63          	bnez	a5,600176c4 <f_readdir+0x54>
    600176ac:	00000593          	li	a1,0
    600176b0:	fd843503          	ld	a0,-40(s0)
    600176b4:	bf9fb0ef          	jal	ra,600132ac <dir_sdi>
    600176b8:	00050793          	mv	a5,a0
    600176bc:	fef42623          	sw	a5,-20(s0)
    600176c0:	0880006f          	j	60017748 <f_readdir+0xd8>
    600176c4:	fd843783          	ld	a5,-40(s0)
    600176c8:	fe040713          	addi	a4,s0,-32
    600176cc:	02e7b023          	sd	a4,32(a5)
    600176d0:	00000593          	li	a1,0
    600176d4:	fd843503          	ld	a0,-40(s0)
    600176d8:	d60fc0ef          	jal	ra,60013c38 <dir_read>
    600176dc:	00050793          	mv	a5,a0
    600176e0:	fef42623          	sw	a5,-20(s0)
    600176e4:	fec42783          	lw	a5,-20(s0)
    600176e8:	0007871b          	sext.w	a4,a5
    600176ec:	00400793          	li	a5,4
    600176f0:	00f71863          	bne	a4,a5,60017700 <f_readdir+0x90>
    600176f4:	fd843783          	ld	a5,-40(s0)
    600176f8:	0007aa23          	sw	zero,20(a5)
    600176fc:	fe042623          	sw	zero,-20(s0)
    60017700:	fec42783          	lw	a5,-20(s0)
    60017704:	0007879b          	sext.w	a5,a5
    60017708:	04079063          	bnez	a5,60017748 <f_readdir+0xd8>
    6001770c:	fd043583          	ld	a1,-48(s0)
    60017710:	fd843503          	ld	a0,-40(s0)
    60017714:	809fc0ef          	jal	ra,60013f1c <get_fileinfo>
    60017718:	00000593          	li	a1,0
    6001771c:	fd843503          	ld	a0,-40(s0)
    60017720:	dc5fb0ef          	jal	ra,600134e4 <dir_next>
    60017724:	00050793          	mv	a5,a0
    60017728:	fef42623          	sw	a5,-20(s0)
    6001772c:	fec42783          	lw	a5,-20(s0)
    60017730:	0007871b          	sext.w	a4,a5
    60017734:	00400793          	li	a5,4
    60017738:	00f71863          	bne	a4,a5,60017748 <f_readdir+0xd8>
    6001773c:	fd843783          	ld	a5,-40(s0)
    60017740:	0007aa23          	sw	zero,20(a5)
    60017744:	fe042623          	sw	zero,-20(s0)
    60017748:	fec42783          	lw	a5,-20(s0)
    6001774c:	00078513          	mv	a0,a5
    60017750:	02813083          	ld	ra,40(sp)
    60017754:	02013403          	ld	s0,32(sp)
    60017758:	03010113          	addi	sp,sp,48
    6001775c:	00008067          	ret

0000000060017760 <f_stat>:
    60017760:	fa010113          	addi	sp,sp,-96
    60017764:	04113c23          	sd	ra,88(sp)
    60017768:	04813823          	sd	s0,80(sp)
    6001776c:	06010413          	addi	s0,sp,96
    60017770:	faa43423          	sd	a0,-88(s0)
    60017774:	fab43023          	sd	a1,-96(s0)
    60017778:	fa840713          	addi	a4,s0,-88
    6001777c:	fc040793          	addi	a5,s0,-64
    60017780:	00000613          	li	a2,0
    60017784:	00070593          	mv	a1,a4
    60017788:	00078513          	mv	a0,a5
    6001778c:	b04fd0ef          	jal	ra,60014a90 <find_volume>
    60017790:	00050793          	mv	a5,a0
    60017794:	fef42623          	sw	a5,-20(s0)
    60017798:	fec42783          	lw	a5,-20(s0)
    6001779c:	0007879b          	sext.w	a5,a5
    600177a0:	06079063          	bnez	a5,60017800 <f_stat+0xa0>
    600177a4:	fb040793          	addi	a5,s0,-80
    600177a8:	fef43023          	sd	a5,-32(s0)
    600177ac:	fa843703          	ld	a4,-88(s0)
    600177b0:	fc040793          	addi	a5,s0,-64
    600177b4:	00070593          	mv	a1,a4
    600177b8:	00078513          	mv	a0,a5
    600177bc:	da1fc0ef          	jal	ra,6001455c <follow_path>
    600177c0:	00050793          	mv	a5,a0
    600177c4:	fef42623          	sw	a5,-20(s0)
    600177c8:	fec42783          	lw	a5,-20(s0)
    600177cc:	0007879b          	sext.w	a5,a5
    600177d0:	02079863          	bnez	a5,60017800 <f_stat+0xa0>
    600177d4:	fd843783          	ld	a5,-40(s0)
    600177d8:	02078063          	beqz	a5,600177f8 <f_stat+0x98>
    600177dc:	fa043783          	ld	a5,-96(s0)
    600177e0:	02078063          	beqz	a5,60017800 <f_stat+0xa0>
    600177e4:	fc040793          	addi	a5,s0,-64
    600177e8:	fa043583          	ld	a1,-96(s0)
    600177ec:	00078513          	mv	a0,a5
    600177f0:	f2cfc0ef          	jal	ra,60013f1c <get_fileinfo>
    600177f4:	00c0006f          	j	60017800 <f_stat+0xa0>
    600177f8:	00600793          	li	a5,6
    600177fc:	fef42623          	sw	a5,-20(s0)
    60017800:	fec42783          	lw	a5,-20(s0)
    60017804:	00078513          	mv	a0,a5
    60017808:	05813083          	ld	ra,88(sp)
    6001780c:	05013403          	ld	s0,80(sp)
    60017810:	06010113          	addi	sp,sp,96
    60017814:	00008067          	ret

0000000060017818 <f_getfree>:
    60017818:	fa010113          	addi	sp,sp,-96
    6001781c:	04113c23          	sd	ra,88(sp)
    60017820:	04813823          	sd	s0,80(sp)
    60017824:	06010413          	addi	s0,sp,96
    60017828:	faa43c23          	sd	a0,-72(s0)
    6001782c:	fab43823          	sd	a1,-80(s0)
    60017830:	fac43423          	sd	a2,-88(s0)
    60017834:	fb840793          	addi	a5,s0,-72
    60017838:	00000613          	li	a2,0
    6001783c:	00078593          	mv	a1,a5
    60017840:	fa843503          	ld	a0,-88(s0)
    60017844:	a4cfd0ef          	jal	ra,60014a90 <find_volume>
    60017848:	00050793          	mv	a5,a0
    6001784c:	fef42623          	sw	a5,-20(s0)
    60017850:	fa843783          	ld	a5,-88(s0)
    60017854:	0007b783          	ld	a5,0(a5)
    60017858:	fcf43423          	sd	a5,-56(s0)
    6001785c:	fec42783          	lw	a5,-20(s0)
    60017860:	0007879b          	sext.w	a5,a5
    60017864:	2c079463          	bnez	a5,60017b2c <f_getfree+0x314>
    60017868:	fc843783          	ld	a5,-56(s0)
    6001786c:	0107a703          	lw	a4,16(a5)
    60017870:	fc843783          	ld	a5,-56(s0)
    60017874:	0187a783          	lw	a5,24(a5)
    60017878:	ffe7879b          	addiw	a5,a5,-2
    6001787c:	0007879b          	sext.w	a5,a5
    60017880:	00e7ec63          	bltu	a5,a4,60017898 <f_getfree+0x80>
    60017884:	fc843783          	ld	a5,-56(s0)
    60017888:	0107a703          	lw	a4,16(a5)
    6001788c:	fb043783          	ld	a5,-80(s0)
    60017890:	00e7a023          	sw	a4,0(a5)
    60017894:	2980006f          	j	60017b2c <f_getfree+0x314>
    60017898:	fc843783          	ld	a5,-56(s0)
    6001789c:	0007c783          	lbu	a5,0(a5)
    600178a0:	fcf403a3          	sb	a5,-57(s0)
    600178a4:	fe042423          	sw	zero,-24(s0)
    600178a8:	fc744783          	lbu	a5,-57(s0)
    600178ac:	0ff7f713          	andi	a4,a5,255
    600178b0:	00100793          	li	a5,1
    600178b4:	08f71c63          	bne	a4,a5,6001794c <f_getfree+0x134>
    600178b8:	00200793          	li	a5,2
    600178bc:	fef42223          	sw	a5,-28(s0)
    600178c0:	fe442783          	lw	a5,-28(s0)
    600178c4:	00078593          	mv	a1,a5
    600178c8:	fc843503          	ld	a0,-56(s0)
    600178cc:	d9dfa0ef          	jal	ra,60012668 <get_fat>
    600178d0:	00050793          	mv	a5,a0
    600178d4:	fcf42023          	sw	a5,-64(s0)
    600178d8:	fc042783          	lw	a5,-64(s0)
    600178dc:	0007871b          	sext.w	a4,a5
    600178e0:	fff00793          	li	a5,-1
    600178e4:	00f71863          	bne	a4,a5,600178f4 <f_getfree+0xdc>
    600178e8:	00100793          	li	a5,1
    600178ec:	fef42623          	sw	a5,-20(s0)
    600178f0:	20c0006f          	j	60017afc <f_getfree+0x2e4>
    600178f4:	fc042783          	lw	a5,-64(s0)
    600178f8:	0007871b          	sext.w	a4,a5
    600178fc:	00100793          	li	a5,1
    60017900:	00f71863          	bne	a4,a5,60017910 <f_getfree+0xf8>
    60017904:	00200793          	li	a5,2
    60017908:	fef42623          	sw	a5,-20(s0)
    6001790c:	1f00006f          	j	60017afc <f_getfree+0x2e4>
    60017910:	fc042783          	lw	a5,-64(s0)
    60017914:	0007879b          	sext.w	a5,a5
    60017918:	00079863          	bnez	a5,60017928 <f_getfree+0x110>
    6001791c:	fe842783          	lw	a5,-24(s0)
    60017920:	0017879b          	addiw	a5,a5,1
    60017924:	fef42423          	sw	a5,-24(s0)
    60017928:	fe442783          	lw	a5,-28(s0)
    6001792c:	0017879b          	addiw	a5,a5,1
    60017930:	fef42223          	sw	a5,-28(s0)
    60017934:	fc843783          	ld	a5,-56(s0)
    60017938:	0187a703          	lw	a4,24(a5)
    6001793c:	fe442783          	lw	a5,-28(s0)
    60017940:	0007879b          	sext.w	a5,a5
    60017944:	f6e7eee3          	bltu	a5,a4,600178c0 <f_getfree+0xa8>
    60017948:	1b40006f          	j	60017afc <f_getfree+0x2e4>
    6001794c:	fc843783          	ld	a5,-56(s0)
    60017950:	0187a783          	lw	a5,24(a5)
    60017954:	fef42223          	sw	a5,-28(s0)
    60017958:	fc843783          	ld	a5,-56(s0)
    6001795c:	0247a783          	lw	a5,36(a5)
    60017960:	fef42023          	sw	a5,-32(s0)
    60017964:	fc042e23          	sw	zero,-36(s0)
    60017968:	fc043823          	sd	zero,-48(s0)
    6001796c:	fdc42783          	lw	a5,-36(s0)
    60017970:	0007879b          	sext.w	a5,a5
    60017974:	04079263          	bnez	a5,600179b8 <f_getfree+0x1a0>
    60017978:	fe042783          	lw	a5,-32(s0)
    6001797c:	0017871b          	addiw	a4,a5,1
    60017980:	fee42023          	sw	a4,-32(s0)
    60017984:	00078593          	mv	a1,a5
    60017988:	fc843503          	ld	a0,-56(s0)
    6001798c:	94dfa0ef          	jal	ra,600122d8 <move_window>
    60017990:	00050793          	mv	a5,a0
    60017994:	fef42623          	sw	a5,-20(s0)
    60017998:	fec42783          	lw	a5,-20(s0)
    6001799c:	0007879b          	sext.w	a5,a5
    600179a0:	14079c63          	bnez	a5,60017af8 <f_getfree+0x2e0>
    600179a4:	fc843783          	ld	a5,-56(s0)
    600179a8:	03478793          	addi	a5,a5,52
    600179ac:	fcf43823          	sd	a5,-48(s0)
    600179b0:	20000793          	li	a5,512
    600179b4:	fcf42e23          	sw	a5,-36(s0)
    600179b8:	fc744783          	lbu	a5,-57(s0)
    600179bc:	0ff7f713          	andi	a4,a5,255
    600179c0:	00200793          	li	a5,2
    600179c4:	06f71663          	bne	a4,a5,60017a30 <f_getfree+0x218>
    600179c8:	fd043783          	ld	a5,-48(s0)
    600179cc:	00178793          	addi	a5,a5,1
    600179d0:	0007c783          	lbu	a5,0(a5)
    600179d4:	0007879b          	sext.w	a5,a5
    600179d8:	0087979b          	slliw	a5,a5,0x8
    600179dc:	0007879b          	sext.w	a5,a5
    600179e0:	0107971b          	slliw	a4,a5,0x10
    600179e4:	4107571b          	sraiw	a4,a4,0x10
    600179e8:	fd043783          	ld	a5,-48(s0)
    600179ec:	0007c783          	lbu	a5,0(a5)
    600179f0:	0107979b          	slliw	a5,a5,0x10
    600179f4:	4107d79b          	sraiw	a5,a5,0x10
    600179f8:	00f767b3          	or	a5,a4,a5
    600179fc:	0107979b          	slliw	a5,a5,0x10
    60017a00:	4107d79b          	sraiw	a5,a5,0x10
    60017a04:	00079863          	bnez	a5,60017a14 <f_getfree+0x1fc>
    60017a08:	fe842783          	lw	a5,-24(s0)
    60017a0c:	0017879b          	addiw	a5,a5,1
    60017a10:	fef42423          	sw	a5,-24(s0)
    60017a14:	fd043783          	ld	a5,-48(s0)
    60017a18:	00278793          	addi	a5,a5,2
    60017a1c:	fcf43823          	sd	a5,-48(s0)
    60017a20:	fdc42783          	lw	a5,-36(s0)
    60017a24:	ffe7879b          	addiw	a5,a5,-2
    60017a28:	fcf42e23          	sw	a5,-36(s0)
    60017a2c:	0b00006f          	j	60017adc <f_getfree+0x2c4>
    60017a30:	fd043783          	ld	a5,-48(s0)
    60017a34:	00378793          	addi	a5,a5,3
    60017a38:	0007c783          	lbu	a5,0(a5)
    60017a3c:	0007879b          	sext.w	a5,a5
    60017a40:	0187979b          	slliw	a5,a5,0x18
    60017a44:	0007871b          	sext.w	a4,a5
    60017a48:	fd043783          	ld	a5,-48(s0)
    60017a4c:	00278793          	addi	a5,a5,2
    60017a50:	0007c783          	lbu	a5,0(a5)
    60017a54:	0007879b          	sext.w	a5,a5
    60017a58:	0107979b          	slliw	a5,a5,0x10
    60017a5c:	0007879b          	sext.w	a5,a5
    60017a60:	00f767b3          	or	a5,a4,a5
    60017a64:	0007871b          	sext.w	a4,a5
    60017a68:	fd043783          	ld	a5,-48(s0)
    60017a6c:	00178793          	addi	a5,a5,1
    60017a70:	0007c783          	lbu	a5,0(a5)
    60017a74:	0007879b          	sext.w	a5,a5
    60017a78:	0087979b          	slliw	a5,a5,0x8
    60017a7c:	0007879b          	sext.w	a5,a5
    60017a80:	0007879b          	sext.w	a5,a5
    60017a84:	00f767b3          	or	a5,a4,a5
    60017a88:	0007871b          	sext.w	a4,a5
    60017a8c:	fd043783          	ld	a5,-48(s0)
    60017a90:	0007c783          	lbu	a5,0(a5)
    60017a94:	0007879b          	sext.w	a5,a5
    60017a98:	00f767b3          	or	a5,a4,a5
    60017a9c:	0007879b          	sext.w	a5,a5
    60017aa0:	00078713          	mv	a4,a5
    60017aa4:	100007b7          	lui	a5,0x10000
    60017aa8:	fff78793          	addi	a5,a5,-1 # fffffff <_start-0x50010001>
    60017aac:	00f777b3          	and	a5,a4,a5
    60017ab0:	0007879b          	sext.w	a5,a5
    60017ab4:	00079863          	bnez	a5,60017ac4 <f_getfree+0x2ac>
    60017ab8:	fe842783          	lw	a5,-24(s0)
    60017abc:	0017879b          	addiw	a5,a5,1
    60017ac0:	fef42423          	sw	a5,-24(s0)
    60017ac4:	fd043783          	ld	a5,-48(s0)
    60017ac8:	00478793          	addi	a5,a5,4
    60017acc:	fcf43823          	sd	a5,-48(s0)
    60017ad0:	fdc42783          	lw	a5,-36(s0)
    60017ad4:	ffc7879b          	addiw	a5,a5,-4
    60017ad8:	fcf42e23          	sw	a5,-36(s0)
    60017adc:	fe442783          	lw	a5,-28(s0)
    60017ae0:	fff7879b          	addiw	a5,a5,-1
    60017ae4:	fef42223          	sw	a5,-28(s0)
    60017ae8:	fe442783          	lw	a5,-28(s0)
    60017aec:	0007879b          	sext.w	a5,a5
    60017af0:	e6079ee3          	bnez	a5,6001796c <f_getfree+0x154>
    60017af4:	0080006f          	j	60017afc <f_getfree+0x2e4>
    60017af8:	00000013          	nop
    60017afc:	fc843783          	ld	a5,-56(s0)
    60017b00:	fe842703          	lw	a4,-24(s0)
    60017b04:	00e7a823          	sw	a4,16(a5)
    60017b08:	fc843783          	ld	a5,-56(s0)
    60017b0c:	0057c783          	lbu	a5,5(a5)
    60017b10:	0017e793          	ori	a5,a5,1
    60017b14:	0ff7f713          	andi	a4,a5,255
    60017b18:	fc843783          	ld	a5,-56(s0)
    60017b1c:	00e782a3          	sb	a4,5(a5)
    60017b20:	fb043783          	ld	a5,-80(s0)
    60017b24:	fe842703          	lw	a4,-24(s0)
    60017b28:	00e7a023          	sw	a4,0(a5)
    60017b2c:	fec42783          	lw	a5,-20(s0)
    60017b30:	00078513          	mv	a0,a5
    60017b34:	05813083          	ld	ra,88(sp)
    60017b38:	05013403          	ld	s0,80(sp)
    60017b3c:	06010113          	addi	sp,sp,96
    60017b40:	00008067          	ret

0000000060017b44 <f_truncate>:
    60017b44:	fd010113          	addi	sp,sp,-48
    60017b48:	02113423          	sd	ra,40(sp)
    60017b4c:	02813023          	sd	s0,32(sp)
    60017b50:	03010413          	addi	s0,sp,48
    60017b54:	fca43c23          	sd	a0,-40(s0)
    60017b58:	fd843503          	ld	a0,-40(s0)
    60017b5c:	b05fd0ef          	jal	ra,60015660 <validate>
    60017b60:	00050793          	mv	a5,a0
    60017b64:	fef42623          	sw	a5,-20(s0)
    60017b68:	fec42783          	lw	a5,-20(s0)
    60017b6c:	0007879b          	sext.w	a5,a5
    60017b70:	04079063          	bnez	a5,60017bb0 <f_truncate+0x6c>
    60017b74:	fd843783          	ld	a5,-40(s0)
    60017b78:	00b7c783          	lbu	a5,11(a5)
    60017b7c:	00078a63          	beqz	a5,60017b90 <f_truncate+0x4c>
    60017b80:	fd843783          	ld	a5,-40(s0)
    60017b84:	00b7c783          	lbu	a5,11(a5)
    60017b88:	fef42623          	sw	a5,-20(s0)
    60017b8c:	0240006f          	j	60017bb0 <f_truncate+0x6c>
    60017b90:	fd843783          	ld	a5,-40(s0)
    60017b94:	00a7c783          	lbu	a5,10(a5)
    60017b98:	0007879b          	sext.w	a5,a5
    60017b9c:	0027f793          	andi	a5,a5,2
    60017ba0:	0007879b          	sext.w	a5,a5
    60017ba4:	00079663          	bnez	a5,60017bb0 <f_truncate+0x6c>
    60017ba8:	00700793          	li	a5,7
    60017bac:	fef42623          	sw	a5,-20(s0)
    60017bb0:	fec42783          	lw	a5,-20(s0)
    60017bb4:	0007879b          	sext.w	a5,a5
    60017bb8:	1e079663          	bnez	a5,60017da4 <f_truncate+0x260>
    60017bbc:	fd843783          	ld	a5,-40(s0)
    60017bc0:	0107a703          	lw	a4,16(a5)
    60017bc4:	fd843783          	ld	a5,-40(s0)
    60017bc8:	00c7a783          	lw	a5,12(a5)
    60017bcc:	1ae7fe63          	bgeu	a5,a4,60017d88 <f_truncate+0x244>
    60017bd0:	fd843783          	ld	a5,-40(s0)
    60017bd4:	00c7a703          	lw	a4,12(a5)
    60017bd8:	fd843783          	ld	a5,-40(s0)
    60017bdc:	00e7a823          	sw	a4,16(a5)
    60017be0:	fd843783          	ld	a5,-40(s0)
    60017be4:	00a7c783          	lbu	a5,10(a5)
    60017be8:	0207e793          	ori	a5,a5,32
    60017bec:	0ff7f713          	andi	a4,a5,255
    60017bf0:	fd843783          	ld	a5,-40(s0)
    60017bf4:	00e78523          	sb	a4,10(a5)
    60017bf8:	fd843783          	ld	a5,-40(s0)
    60017bfc:	00c7a783          	lw	a5,12(a5)
    60017c00:	02079a63          	bnez	a5,60017c34 <f_truncate+0xf0>
    60017c04:	fd843783          	ld	a5,-40(s0)
    60017c08:	0007b703          	ld	a4,0(a5)
    60017c0c:	fd843783          	ld	a5,-40(s0)
    60017c10:	0147a783          	lw	a5,20(a5)
    60017c14:	00078593          	mv	a1,a5
    60017c18:	00070513          	mv	a0,a4
    60017c1c:	abcfb0ef          	jal	ra,60012ed8 <remove_chain>
    60017c20:	00050793          	mv	a5,a0
    60017c24:	fef42623          	sw	a5,-20(s0)
    60017c28:	fd843783          	ld	a5,-40(s0)
    60017c2c:	0007aa23          	sw	zero,20(a5)
    60017c30:	0d80006f          	j	60017d08 <f_truncate+0x1c4>
    60017c34:	fd843783          	ld	a5,-40(s0)
    60017c38:	0007b703          	ld	a4,0(a5)
    60017c3c:	fd843783          	ld	a5,-40(s0)
    60017c40:	0187a783          	lw	a5,24(a5)
    60017c44:	00078593          	mv	a1,a5
    60017c48:	00070513          	mv	a0,a4
    60017c4c:	a1dfa0ef          	jal	ra,60012668 <get_fat>
    60017c50:	00050793          	mv	a5,a0
    60017c54:	fef42423          	sw	a5,-24(s0)
    60017c58:	fe042623          	sw	zero,-20(s0)
    60017c5c:	fe842783          	lw	a5,-24(s0)
    60017c60:	0007871b          	sext.w	a4,a5
    60017c64:	fff00793          	li	a5,-1
    60017c68:	00f71663          	bne	a4,a5,60017c74 <f_truncate+0x130>
    60017c6c:	00100793          	li	a5,1
    60017c70:	fef42623          	sw	a5,-20(s0)
    60017c74:	fe842783          	lw	a5,-24(s0)
    60017c78:	0007871b          	sext.w	a4,a5
    60017c7c:	00100793          	li	a5,1
    60017c80:	00f71663          	bne	a4,a5,60017c8c <f_truncate+0x148>
    60017c84:	00200793          	li	a5,2
    60017c88:	fef42623          	sw	a5,-20(s0)
    60017c8c:	fec42783          	lw	a5,-20(s0)
    60017c90:	0007879b          	sext.w	a5,a5
    60017c94:	06079a63          	bnez	a5,60017d08 <f_truncate+0x1c4>
    60017c98:	fd843783          	ld	a5,-40(s0)
    60017c9c:	0007b783          	ld	a5,0(a5)
    60017ca0:	0187a703          	lw	a4,24(a5)
    60017ca4:	fe842783          	lw	a5,-24(s0)
    60017ca8:	0007879b          	sext.w	a5,a5
    60017cac:	04e7fe63          	bgeu	a5,a4,60017d08 <f_truncate+0x1c4>
    60017cb0:	fd843783          	ld	a5,-40(s0)
    60017cb4:	0007b703          	ld	a4,0(a5)
    60017cb8:	fd843783          	ld	a5,-40(s0)
    60017cbc:	0187a683          	lw	a3,24(a5)
    60017cc0:	100007b7          	lui	a5,0x10000
    60017cc4:	fff78613          	addi	a2,a5,-1 # fffffff <_start-0x50010001>
    60017cc8:	00068593          	mv	a1,a3
    60017ccc:	00070513          	mv	a0,a4
    60017cd0:	d25fa0ef          	jal	ra,600129f4 <put_fat>
    60017cd4:	00050793          	mv	a5,a0
    60017cd8:	fef42623          	sw	a5,-20(s0)
    60017cdc:	fec42783          	lw	a5,-20(s0)
    60017ce0:	0007879b          	sext.w	a5,a5
    60017ce4:	02079263          	bnez	a5,60017d08 <f_truncate+0x1c4>
    60017ce8:	fd843783          	ld	a5,-40(s0)
    60017cec:	0007b783          	ld	a5,0(a5)
    60017cf0:	fe842703          	lw	a4,-24(s0)
    60017cf4:	00070593          	mv	a1,a4
    60017cf8:	00078513          	mv	a0,a5
    60017cfc:	9dcfb0ef          	jal	ra,60012ed8 <remove_chain>
    60017d00:	00050793          	mv	a5,a0
    60017d04:	fef42623          	sw	a5,-20(s0)
    60017d08:	fec42783          	lw	a5,-20(s0)
    60017d0c:	0007879b          	sext.w	a5,a5
    60017d10:	06079c63          	bnez	a5,60017d88 <f_truncate+0x244>
    60017d14:	fd843783          	ld	a5,-40(s0)
    60017d18:	00a7c783          	lbu	a5,10(a5)
    60017d1c:	0007879b          	sext.w	a5,a5
    60017d20:	0407f793          	andi	a5,a5,64
    60017d24:	0007879b          	sext.w	a5,a5
    60017d28:	06078063          	beqz	a5,60017d88 <f_truncate+0x244>
    60017d2c:	fd843783          	ld	a5,-40(s0)
    60017d30:	0007b783          	ld	a5,0(a5)
    60017d34:	0017c703          	lbu	a4,1(a5)
    60017d38:	fd843783          	ld	a5,-40(s0)
    60017d3c:	03078593          	addi	a1,a5,48
    60017d40:	fd843783          	ld	a5,-40(s0)
    60017d44:	01c7a783          	lw	a5,28(a5)
    60017d48:	00100693          	li	a3,1
    60017d4c:	00078613          	mv	a2,a5
    60017d50:	00070513          	mv	a0,a4
    60017d54:	b35f90ef          	jal	ra,60011888 <disk_write>
    60017d58:	00050793          	mv	a5,a0
    60017d5c:	0007879b          	sext.w	a5,a5
    60017d60:	00078863          	beqz	a5,60017d70 <f_truncate+0x22c>
    60017d64:	00100793          	li	a5,1
    60017d68:	fef42623          	sw	a5,-20(s0)
    60017d6c:	01c0006f          	j	60017d88 <f_truncate+0x244>
    60017d70:	fd843783          	ld	a5,-40(s0)
    60017d74:	00a7c783          	lbu	a5,10(a5)
    60017d78:	fbf7f793          	andi	a5,a5,-65
    60017d7c:	0ff7f713          	andi	a4,a5,255
    60017d80:	fd843783          	ld	a5,-40(s0)
    60017d84:	00e78523          	sb	a4,10(a5)
    60017d88:	fec42783          	lw	a5,-20(s0)
    60017d8c:	0007879b          	sext.w	a5,a5
    60017d90:	00078a63          	beqz	a5,60017da4 <f_truncate+0x260>
    60017d94:	fec42783          	lw	a5,-20(s0)
    60017d98:	0ff7f713          	andi	a4,a5,255
    60017d9c:	fd843783          	ld	a5,-40(s0)
    60017da0:	00e785a3          	sb	a4,11(a5)
    60017da4:	fec42783          	lw	a5,-20(s0)
    60017da8:	00078513          	mv	a0,a5
    60017dac:	02813083          	ld	ra,40(sp)
    60017db0:	02013403          	ld	s0,32(sp)
    60017db4:	03010113          	addi	sp,sp,48
    60017db8:	00008067          	ret

0000000060017dbc <f_unlink>:
    60017dbc:	f7010113          	addi	sp,sp,-144
    60017dc0:	08113423          	sd	ra,136(sp)
    60017dc4:	08813023          	sd	s0,128(sp)
    60017dc8:	09010413          	addi	s0,sp,144
    60017dcc:	f6a43c23          	sd	a0,-136(s0)
    60017dd0:	fe042423          	sw	zero,-24(s0)
    60017dd4:	f7840713          	addi	a4,s0,-136
    60017dd8:	fb840793          	addi	a5,s0,-72
    60017ddc:	00100613          	li	a2,1
    60017de0:	00070593          	mv	a1,a4
    60017de4:	00078513          	mv	a0,a5
    60017de8:	ca9fc0ef          	jal	ra,60014a90 <find_volume>
    60017dec:	00050793          	mv	a5,a0
    60017df0:	fef42623          	sw	a5,-20(s0)
    60017df4:	fec42783          	lw	a5,-20(s0)
    60017df8:	0007879b          	sext.w	a5,a5
    60017dfc:	20079463          	bnez	a5,60018004 <f_unlink+0x248>
    60017e00:	f8040793          	addi	a5,s0,-128
    60017e04:	fcf43c23          	sd	a5,-40(s0)
    60017e08:	f7843703          	ld	a4,-136(s0)
    60017e0c:	fb840793          	addi	a5,s0,-72
    60017e10:	00070593          	mv	a1,a4
    60017e14:	00078513          	mv	a0,a5
    60017e18:	f44fc0ef          	jal	ra,6001455c <follow_path>
    60017e1c:	00050793          	mv	a5,a0
    60017e20:	fef42623          	sw	a5,-20(s0)
    60017e24:	fec42783          	lw	a5,-20(s0)
    60017e28:	0007879b          	sext.w	a5,a5
    60017e2c:	02079463          	bnez	a5,60017e54 <f_unlink+0x98>
    60017e30:	fd843783          	ld	a5,-40(s0)
    60017e34:	00b78793          	addi	a5,a5,11
    60017e38:	0007c783          	lbu	a5,0(a5)
    60017e3c:	0007879b          	sext.w	a5,a5
    60017e40:	0207f793          	andi	a5,a5,32
    60017e44:	0007879b          	sext.w	a5,a5
    60017e48:	00078663          	beqz	a5,60017e54 <f_unlink+0x98>
    60017e4c:	00600793          	li	a5,6
    60017e50:	fef42623          	sw	a5,-20(s0)
    60017e54:	fec42783          	lw	a5,-20(s0)
    60017e58:	0007879b          	sext.w	a5,a5
    60017e5c:	1a079463          	bnez	a5,60018004 <f_unlink+0x248>
    60017e60:	fd043783          	ld	a5,-48(s0)
    60017e64:	fef43023          	sd	a5,-32(s0)
    60017e68:	fe043783          	ld	a5,-32(s0)
    60017e6c:	00079863          	bnez	a5,60017e7c <f_unlink+0xc0>
    60017e70:	00600793          	li	a5,6
    60017e74:	fef42623          	sw	a5,-20(s0)
    60017e78:	0280006f          	j	60017ea0 <f_unlink+0xe4>
    60017e7c:	fe043783          	ld	a5,-32(s0)
    60017e80:	00b78793          	addi	a5,a5,11
    60017e84:	0007c783          	lbu	a5,0(a5)
    60017e88:	0007879b          	sext.w	a5,a5
    60017e8c:	0017f793          	andi	a5,a5,1
    60017e90:	0007879b          	sext.w	a5,a5
    60017e94:	00078663          	beqz	a5,60017ea0 <f_unlink+0xe4>
    60017e98:	00700793          	li	a5,7
    60017e9c:	fef42623          	sw	a5,-20(s0)
    60017ea0:	fec42783          	lw	a5,-20(s0)
    60017ea4:	0007879b          	sext.w	a5,a5
    60017ea8:	0e079463          	bnez	a5,60017f90 <f_unlink+0x1d4>
    60017eac:	fb843783          	ld	a5,-72(s0)
    60017eb0:	fe043583          	ld	a1,-32(s0)
    60017eb4:	00078513          	mv	a0,a5
    60017eb8:	ac1fb0ef          	jal	ra,60013978 <ld_clust>
    60017ebc:	00050793          	mv	a5,a0
    60017ec0:	fef42423          	sw	a5,-24(s0)
    60017ec4:	fe842783          	lw	a5,-24(s0)
    60017ec8:	0007879b          	sext.w	a5,a5
    60017ecc:	0c078263          	beqz	a5,60017f90 <f_unlink+0x1d4>
    60017ed0:	fe043783          	ld	a5,-32(s0)
    60017ed4:	00b78793          	addi	a5,a5,11
    60017ed8:	0007c783          	lbu	a5,0(a5)
    60017edc:	0007879b          	sext.w	a5,a5
    60017ee0:	0107f793          	andi	a5,a5,16
    60017ee4:	0007879b          	sext.w	a5,a5
    60017ee8:	0a078463          	beqz	a5,60017f90 <f_unlink+0x1d4>
    60017eec:	fb843783          	ld	a5,-72(s0)
    60017ef0:	0147a703          	lw	a4,20(a5)
    60017ef4:	fe842783          	lw	a5,-24(s0)
    60017ef8:	0007879b          	sext.w	a5,a5
    60017efc:	00e79863          	bne	a5,a4,60017f0c <f_unlink+0x150>
    60017f00:	00700793          	li	a5,7
    60017f04:	fef42623          	sw	a5,-20(s0)
    60017f08:	0880006f          	j	60017f90 <f_unlink+0x1d4>
    60017f0c:	fb840713          	addi	a4,s0,-72
    60017f10:	f9040793          	addi	a5,s0,-112
    60017f14:	02800613          	li	a2,40
    60017f18:	00070593          	mv	a1,a4
    60017f1c:	00078513          	mv	a0,a5
    60017f20:	8d4fa0ef          	jal	ra,60011ff4 <mem_cpy>
    60017f24:	fe842783          	lw	a5,-24(s0)
    60017f28:	f8f42e23          	sw	a5,-100(s0)
    60017f2c:	f9040793          	addi	a5,s0,-112
    60017f30:	00200593          	li	a1,2
    60017f34:	00078513          	mv	a0,a5
    60017f38:	b74fb0ef          	jal	ra,600132ac <dir_sdi>
    60017f3c:	00050793          	mv	a5,a0
    60017f40:	fef42623          	sw	a5,-20(s0)
    60017f44:	fec42783          	lw	a5,-20(s0)
    60017f48:	0007879b          	sext.w	a5,a5
    60017f4c:	04079263          	bnez	a5,60017f90 <f_unlink+0x1d4>
    60017f50:	f9040793          	addi	a5,s0,-112
    60017f54:	00000593          	li	a1,0
    60017f58:	00078513          	mv	a0,a5
    60017f5c:	cddfb0ef          	jal	ra,60013c38 <dir_read>
    60017f60:	00050793          	mv	a5,a0
    60017f64:	fef42623          	sw	a5,-20(s0)
    60017f68:	fec42783          	lw	a5,-20(s0)
    60017f6c:	0007879b          	sext.w	a5,a5
    60017f70:	00079663          	bnez	a5,60017f7c <f_unlink+0x1c0>
    60017f74:	00700793          	li	a5,7
    60017f78:	fef42623          	sw	a5,-20(s0)
    60017f7c:	fec42783          	lw	a5,-20(s0)
    60017f80:	0007871b          	sext.w	a4,a5
    60017f84:	00400793          	li	a5,4
    60017f88:	00f71463          	bne	a4,a5,60017f90 <f_unlink+0x1d4>
    60017f8c:	fe042623          	sw	zero,-20(s0)
    60017f90:	fec42783          	lw	a5,-20(s0)
    60017f94:	0007879b          	sext.w	a5,a5
    60017f98:	06079663          	bnez	a5,60018004 <f_unlink+0x248>
    60017f9c:	fb840793          	addi	a5,s0,-72
    60017fa0:	00078513          	mv	a0,a5
    60017fa4:	eb9fb0ef          	jal	ra,60013e5c <dir_remove>
    60017fa8:	00050793          	mv	a5,a0
    60017fac:	fef42623          	sw	a5,-20(s0)
    60017fb0:	fec42783          	lw	a5,-20(s0)
    60017fb4:	0007879b          	sext.w	a5,a5
    60017fb8:	02079663          	bnez	a5,60017fe4 <f_unlink+0x228>
    60017fbc:	fe842783          	lw	a5,-24(s0)
    60017fc0:	0007879b          	sext.w	a5,a5
    60017fc4:	02078063          	beqz	a5,60017fe4 <f_unlink+0x228>
    60017fc8:	fb843783          	ld	a5,-72(s0)
    60017fcc:	fe842703          	lw	a4,-24(s0)
    60017fd0:	00070593          	mv	a1,a4
    60017fd4:	00078513          	mv	a0,a5
    60017fd8:	f01fa0ef          	jal	ra,60012ed8 <remove_chain>
    60017fdc:	00050793          	mv	a5,a0
    60017fe0:	fef42623          	sw	a5,-20(s0)
    60017fe4:	fec42783          	lw	a5,-20(s0)
    60017fe8:	0007879b          	sext.w	a5,a5
    60017fec:	00079c63          	bnez	a5,60018004 <f_unlink+0x248>
    60017ff0:	fb843783          	ld	a5,-72(s0)
    60017ff4:	00078513          	mv	a0,a5
    60017ff8:	b94fa0ef          	jal	ra,6001238c <sync_fs>
    60017ffc:	00050793          	mv	a5,a0
    60018000:	fef42623          	sw	a5,-20(s0)
    60018004:	fec42783          	lw	a5,-20(s0)
    60018008:	00078513          	mv	a0,a5
    6001800c:	08813083          	ld	ra,136(sp)
    60018010:	08013403          	ld	s0,128(sp)
    60018014:	09010113          	addi	sp,sp,144
    60018018:	00008067          	ret

000000006001801c <f_mkdir>:
    6001801c:	f8010113          	addi	sp,sp,-128
    60018020:	06113c23          	sd	ra,120(sp)
    60018024:	06813823          	sd	s0,112(sp)
    60018028:	08010413          	addi	s0,sp,128
    6001802c:	f8a43423          	sd	a0,-120(s0)
    60018030:	462107b7          	lui	a5,0x46210
    60018034:	fcf42e23          	sw	a5,-36(s0)
    60018038:	f8840713          	addi	a4,s0,-120
    6001803c:	fa840793          	addi	a5,s0,-88
    60018040:	00100613          	li	a2,1
    60018044:	00070593          	mv	a1,a4
    60018048:	00078513          	mv	a0,a5
    6001804c:	a45fc0ef          	jal	ra,60014a90 <find_volume>
    60018050:	00050793          	mv	a5,a0
    60018054:	fef42623          	sw	a5,-20(s0)
    60018058:	fec42783          	lw	a5,-20(s0)
    6001805c:	0007879b          	sext.w	a5,a5
    60018060:	3e079463          	bnez	a5,60018448 <f_mkdir+0x42c>
    60018064:	f9840793          	addi	a5,s0,-104
    60018068:	fcf43423          	sd	a5,-56(s0)
    6001806c:	f8843703          	ld	a4,-120(s0)
    60018070:	fa840793          	addi	a5,s0,-88
    60018074:	00070593          	mv	a1,a4
    60018078:	00078513          	mv	a0,a5
    6001807c:	ce0fc0ef          	jal	ra,6001455c <follow_path>
    60018080:	00050793          	mv	a5,a0
    60018084:	fef42623          	sw	a5,-20(s0)
    60018088:	fec42783          	lw	a5,-20(s0)
    6001808c:	0007879b          	sext.w	a5,a5
    60018090:	00079663          	bnez	a5,6001809c <f_mkdir+0x80>
    60018094:	00800793          	li	a5,8
    60018098:	fef42623          	sw	a5,-20(s0)
    6001809c:	fec42783          	lw	a5,-20(s0)
    600180a0:	0007871b          	sext.w	a4,a5
    600180a4:	00400793          	li	a5,4
    600180a8:	02f71463          	bne	a4,a5,600180d0 <f_mkdir+0xb4>
    600180ac:	fc843783          	ld	a5,-56(s0)
    600180b0:	00b78793          	addi	a5,a5,11 # 4621000b <_start-0x19dffff5>
    600180b4:	0007c783          	lbu	a5,0(a5)
    600180b8:	0007879b          	sext.w	a5,a5
    600180bc:	0207f793          	andi	a5,a5,32
    600180c0:	0007879b          	sext.w	a5,a5
    600180c4:	00078663          	beqz	a5,600180d0 <f_mkdir+0xb4>
    600180c8:	00600793          	li	a5,6
    600180cc:	fef42623          	sw	a5,-20(s0)
    600180d0:	fec42783          	lw	a5,-20(s0)
    600180d4:	0007871b          	sext.w	a4,a5
    600180d8:	00400793          	li	a5,4
    600180dc:	36f71663          	bne	a4,a5,60018448 <f_mkdir+0x42c>
    600180e0:	fa843783          	ld	a5,-88(s0)
    600180e4:	00000593          	li	a1,0
    600180e8:	00078513          	mv	a0,a5
    600180ec:	f4dfa0ef          	jal	ra,60013038 <create_chain>
    600180f0:	00050793          	mv	a5,a0
    600180f4:	fcf42c23          	sw	a5,-40(s0)
    600180f8:	fe042623          	sw	zero,-20(s0)
    600180fc:	fd842783          	lw	a5,-40(s0)
    60018100:	0007879b          	sext.w	a5,a5
    60018104:	00079663          	bnez	a5,60018110 <f_mkdir+0xf4>
    60018108:	00700793          	li	a5,7
    6001810c:	fef42623          	sw	a5,-20(s0)
    60018110:	fd842783          	lw	a5,-40(s0)
    60018114:	0007871b          	sext.w	a4,a5
    60018118:	00100793          	li	a5,1
    6001811c:	00f71663          	bne	a4,a5,60018128 <f_mkdir+0x10c>
    60018120:	00200793          	li	a5,2
    60018124:	fef42623          	sw	a5,-20(s0)
    60018128:	fd842783          	lw	a5,-40(s0)
    6001812c:	0007871b          	sext.w	a4,a5
    60018130:	fff00793          	li	a5,-1
    60018134:	00f71663          	bne	a4,a5,60018140 <f_mkdir+0x124>
    60018138:	00100793          	li	a5,1
    6001813c:	fef42623          	sw	a5,-20(s0)
    60018140:	fec42783          	lw	a5,-20(s0)
    60018144:	0007879b          	sext.w	a5,a5
    60018148:	00079c63          	bnez	a5,60018160 <f_mkdir+0x144>
    6001814c:	fa843783          	ld	a5,-88(s0)
    60018150:	00078513          	mv	a0,a5
    60018154:	874fa0ef          	jal	ra,600121c8 <sync_window>
    60018158:	00050793          	mv	a5,a0
    6001815c:	fef42623          	sw	a5,-20(s0)
    60018160:	fec42783          	lw	a5,-20(s0)
    60018164:	0007879b          	sext.w	a5,a5
    60018168:	1e079063          	bnez	a5,60018348 <f_mkdir+0x32c>
    6001816c:	fa843783          	ld	a5,-88(s0)
    60018170:	fd842703          	lw	a4,-40(s0)
    60018174:	00070593          	mv	a1,a4
    60018178:	00078513          	mv	a0,a5
    6001817c:	c6cfa0ef          	jal	ra,600125e8 <clust2sect>
    60018180:	00050793          	mv	a5,a0
    60018184:	fef42223          	sw	a5,-28(s0)
    60018188:	fa843783          	ld	a5,-88(s0)
    6001818c:	03478793          	addi	a5,a5,52
    60018190:	fcf43823          	sd	a5,-48(s0)
    60018194:	20000613          	li	a2,512
    60018198:	00000593          	li	a1,0
    6001819c:	fd043503          	ld	a0,-48(s0)
    600181a0:	ec5f90ef          	jal	ra,60012064 <mem_set>
    600181a4:	00b00613          	li	a2,11
    600181a8:	02000593          	li	a1,32
    600181ac:	fd043503          	ld	a0,-48(s0)
    600181b0:	eb5f90ef          	jal	ra,60012064 <mem_set>
    600181b4:	fd043783          	ld	a5,-48(s0)
    600181b8:	02e00713          	li	a4,46
    600181bc:	00e78023          	sb	a4,0(a5)
    600181c0:	fd043783          	ld	a5,-48(s0)
    600181c4:	00b78793          	addi	a5,a5,11
    600181c8:	01000713          	li	a4,16
    600181cc:	00e78023          	sb	a4,0(a5)
    600181d0:	fd043783          	ld	a5,-48(s0)
    600181d4:	01678793          	addi	a5,a5,22
    600181d8:	fdc42703          	lw	a4,-36(s0)
    600181dc:	0ff77713          	andi	a4,a4,255
    600181e0:	00e78023          	sb	a4,0(a5)
    600181e4:	fdc42783          	lw	a5,-36(s0)
    600181e8:	03079793          	slli	a5,a5,0x30
    600181ec:	0307d793          	srli	a5,a5,0x30
    600181f0:	0087d79b          	srliw	a5,a5,0x8
    600181f4:	03079713          	slli	a4,a5,0x30
    600181f8:	03075713          	srli	a4,a4,0x30
    600181fc:	fd043783          	ld	a5,-48(s0)
    60018200:	01778793          	addi	a5,a5,23
    60018204:	0ff77713          	andi	a4,a4,255
    60018208:	00e78023          	sb	a4,0(a5)
    6001820c:	fdc42783          	lw	a5,-36(s0)
    60018210:	0107d79b          	srliw	a5,a5,0x10
    60018214:	0007871b          	sext.w	a4,a5
    60018218:	fd043783          	ld	a5,-48(s0)
    6001821c:	01878793          	addi	a5,a5,24
    60018220:	0ff77713          	andi	a4,a4,255
    60018224:	00e78023          	sb	a4,0(a5)
    60018228:	fdc42783          	lw	a5,-36(s0)
    6001822c:	0187d79b          	srliw	a5,a5,0x18
    60018230:	0007871b          	sext.w	a4,a5
    60018234:	fd043783          	ld	a5,-48(s0)
    60018238:	01978793          	addi	a5,a5,25
    6001823c:	0ff77713          	andi	a4,a4,255
    60018240:	00e78023          	sb	a4,0(a5)
    60018244:	fd842783          	lw	a5,-40(s0)
    60018248:	00078593          	mv	a1,a5
    6001824c:	fd043503          	ld	a0,-48(s0)
    60018250:	819fb0ef          	jal	ra,60013a68 <st_clust>
    60018254:	fd043783          	ld	a5,-48(s0)
    60018258:	02078793          	addi	a5,a5,32
    6001825c:	02000613          	li	a2,32
    60018260:	fd043583          	ld	a1,-48(s0)
    60018264:	00078513          	mv	a0,a5
    60018268:	d8df90ef          	jal	ra,60011ff4 <mem_cpy>
    6001826c:	fd043783          	ld	a5,-48(s0)
    60018270:	02178793          	addi	a5,a5,33
    60018274:	02e00713          	li	a4,46
    60018278:	00e78023          	sb	a4,0(a5)
    6001827c:	fb442783          	lw	a5,-76(s0)
    60018280:	fef42023          	sw	a5,-32(s0)
    60018284:	fa843783          	ld	a5,-88(s0)
    60018288:	0007c783          	lbu	a5,0(a5)
    6001828c:	00078713          	mv	a4,a5
    60018290:	00300793          	li	a5,3
    60018294:	00f71e63          	bne	a4,a5,600182b0 <f_mkdir+0x294>
    60018298:	fa843783          	ld	a5,-88(s0)
    6001829c:	0287a703          	lw	a4,40(a5)
    600182a0:	fe042783          	lw	a5,-32(s0)
    600182a4:	0007879b          	sext.w	a5,a5
    600182a8:	00e79463          	bne	a5,a4,600182b0 <f_mkdir+0x294>
    600182ac:	fe042023          	sw	zero,-32(s0)
    600182b0:	fd043783          	ld	a5,-48(s0)
    600182b4:	02078793          	addi	a5,a5,32
    600182b8:	fe042703          	lw	a4,-32(s0)
    600182bc:	00070593          	mv	a1,a4
    600182c0:	00078513          	mv	a0,a5
    600182c4:	fa4fb0ef          	jal	ra,60013a68 <st_clust>
    600182c8:	fa843783          	ld	a5,-88(s0)
    600182cc:	0027c783          	lbu	a5,2(a5)
    600182d0:	fef405a3          	sb	a5,-21(s0)
    600182d4:	0600006f          	j	60018334 <f_mkdir+0x318>
    600182d8:	fe442783          	lw	a5,-28(s0)
    600182dc:	0017871b          	addiw	a4,a5,1
    600182e0:	fee42223          	sw	a4,-28(s0)
    600182e4:	fa843703          	ld	a4,-88(s0)
    600182e8:	02f72823          	sw	a5,48(a4)
    600182ec:	fa843783          	ld	a5,-88(s0)
    600182f0:	00100713          	li	a4,1
    600182f4:	00e78223          	sb	a4,4(a5)
    600182f8:	fa843783          	ld	a5,-88(s0)
    600182fc:	00078513          	mv	a0,a5
    60018300:	ec9f90ef          	jal	ra,600121c8 <sync_window>
    60018304:	00050793          	mv	a5,a0
    60018308:	fef42623          	sw	a5,-20(s0)
    6001830c:	fec42783          	lw	a5,-20(s0)
    60018310:	0007879b          	sext.w	a5,a5
    60018314:	02079863          	bnez	a5,60018344 <f_mkdir+0x328>
    60018318:	20000613          	li	a2,512
    6001831c:	00000593          	li	a1,0
    60018320:	fd043503          	ld	a0,-48(s0)
    60018324:	d41f90ef          	jal	ra,60012064 <mem_set>
    60018328:	feb44783          	lbu	a5,-21(s0)
    6001832c:	fff7879b          	addiw	a5,a5,-1
    60018330:	fef405a3          	sb	a5,-21(s0)
    60018334:	feb44783          	lbu	a5,-21(s0)
    60018338:	0ff7f793          	andi	a5,a5,255
    6001833c:	f8079ee3          	bnez	a5,600182d8 <f_mkdir+0x2bc>
    60018340:	0080006f          	j	60018348 <f_mkdir+0x32c>
    60018344:	00000013          	nop
    60018348:	fec42783          	lw	a5,-20(s0)
    6001834c:	0007879b          	sext.w	a5,a5
    60018350:	00079c63          	bnez	a5,60018368 <f_mkdir+0x34c>
    60018354:	fa840793          	addi	a5,s0,-88
    60018358:	00078513          	mv	a0,a5
    6001835c:	a3dfb0ef          	jal	ra,60013d98 <dir_register>
    60018360:	00050793          	mv	a5,a0
    60018364:	fef42623          	sw	a5,-20(s0)
    60018368:	fec42783          	lw	a5,-20(s0)
    6001836c:	0007879b          	sext.w	a5,a5
    60018370:	00078e63          	beqz	a5,6001838c <f_mkdir+0x370>
    60018374:	fa843783          	ld	a5,-88(s0)
    60018378:	fd842703          	lw	a4,-40(s0)
    6001837c:	00070593          	mv	a1,a4
    60018380:	00078513          	mv	a0,a5
    60018384:	b55fa0ef          	jal	ra,60012ed8 <remove_chain>
    60018388:	0c00006f          	j	60018448 <f_mkdir+0x42c>
    6001838c:	fc043783          	ld	a5,-64(s0)
    60018390:	fcf43823          	sd	a5,-48(s0)
    60018394:	fd043783          	ld	a5,-48(s0)
    60018398:	00b78793          	addi	a5,a5,11
    6001839c:	01000713          	li	a4,16
    600183a0:	00e78023          	sb	a4,0(a5)
    600183a4:	fd043783          	ld	a5,-48(s0)
    600183a8:	01678793          	addi	a5,a5,22
    600183ac:	fdc42703          	lw	a4,-36(s0)
    600183b0:	0ff77713          	andi	a4,a4,255
    600183b4:	00e78023          	sb	a4,0(a5)
    600183b8:	fdc42783          	lw	a5,-36(s0)
    600183bc:	03079793          	slli	a5,a5,0x30
    600183c0:	0307d793          	srli	a5,a5,0x30
    600183c4:	0087d79b          	srliw	a5,a5,0x8
    600183c8:	03079713          	slli	a4,a5,0x30
    600183cc:	03075713          	srli	a4,a4,0x30
    600183d0:	fd043783          	ld	a5,-48(s0)
    600183d4:	01778793          	addi	a5,a5,23
    600183d8:	0ff77713          	andi	a4,a4,255
    600183dc:	00e78023          	sb	a4,0(a5)
    600183e0:	fdc42783          	lw	a5,-36(s0)
    600183e4:	0107d79b          	srliw	a5,a5,0x10
    600183e8:	0007871b          	sext.w	a4,a5
    600183ec:	fd043783          	ld	a5,-48(s0)
    600183f0:	01878793          	addi	a5,a5,24
    600183f4:	0ff77713          	andi	a4,a4,255
    600183f8:	00e78023          	sb	a4,0(a5)
    600183fc:	fdc42783          	lw	a5,-36(s0)
    60018400:	0187d79b          	srliw	a5,a5,0x18
    60018404:	0007871b          	sext.w	a4,a5
    60018408:	fd043783          	ld	a5,-48(s0)
    6001840c:	01978793          	addi	a5,a5,25
    60018410:	0ff77713          	andi	a4,a4,255
    60018414:	00e78023          	sb	a4,0(a5)
    60018418:	fd842783          	lw	a5,-40(s0)
    6001841c:	00078593          	mv	a1,a5
    60018420:	fd043503          	ld	a0,-48(s0)
    60018424:	e44fb0ef          	jal	ra,60013a68 <st_clust>
    60018428:	fa843783          	ld	a5,-88(s0)
    6001842c:	00100713          	li	a4,1
    60018430:	00e78223          	sb	a4,4(a5)
    60018434:	fa843783          	ld	a5,-88(s0)
    60018438:	00078513          	mv	a0,a5
    6001843c:	f51f90ef          	jal	ra,6001238c <sync_fs>
    60018440:	00050793          	mv	a5,a0
    60018444:	fef42623          	sw	a5,-20(s0)
    60018448:	fec42783          	lw	a5,-20(s0)
    6001844c:	00078513          	mv	a0,a5
    60018450:	07813083          	ld	ra,120(sp)
    60018454:	07013403          	ld	s0,112(sp)
    60018458:	08010113          	addi	sp,sp,128
    6001845c:	00008067          	ret

0000000060018460 <f_chmod>:
    60018460:	f9010113          	addi	sp,sp,-112
    60018464:	06113423          	sd	ra,104(sp)
    60018468:	06813023          	sd	s0,96(sp)
    6001846c:	07010413          	addi	s0,sp,112
    60018470:	f8a43c23          	sd	a0,-104(s0)
    60018474:	00058793          	mv	a5,a1
    60018478:	00060713          	mv	a4,a2
    6001847c:	f8f40ba3          	sb	a5,-105(s0)
    60018480:	00070793          	mv	a5,a4
    60018484:	f8f40b23          	sb	a5,-106(s0)
    60018488:	f9840713          	addi	a4,s0,-104
    6001848c:	fb840793          	addi	a5,s0,-72
    60018490:	00100613          	li	a2,1
    60018494:	00070593          	mv	a1,a4
    60018498:	00078513          	mv	a0,a5
    6001849c:	df4fc0ef          	jal	ra,60014a90 <find_volume>
    600184a0:	00050793          	mv	a5,a0
    600184a4:	fef42623          	sw	a5,-20(s0)
    600184a8:	fec42783          	lw	a5,-20(s0)
    600184ac:	0007879b          	sext.w	a5,a5
    600184b0:	0e079863          	bnez	a5,600185a0 <f_chmod+0x140>
    600184b4:	fa840793          	addi	a5,s0,-88
    600184b8:	fcf43c23          	sd	a5,-40(s0)
    600184bc:	f9843703          	ld	a4,-104(s0)
    600184c0:	fb840793          	addi	a5,s0,-72
    600184c4:	00070593          	mv	a1,a4
    600184c8:	00078513          	mv	a0,a5
    600184cc:	890fc0ef          	jal	ra,6001455c <follow_path>
    600184d0:	00050793          	mv	a5,a0
    600184d4:	fef42623          	sw	a5,-20(s0)
    600184d8:	fec42783          	lw	a5,-20(s0)
    600184dc:	0007879b          	sext.w	a5,a5
    600184e0:	02079463          	bnez	a5,60018508 <f_chmod+0xa8>
    600184e4:	fd843783          	ld	a5,-40(s0)
    600184e8:	00b78793          	addi	a5,a5,11
    600184ec:	0007c783          	lbu	a5,0(a5)
    600184f0:	0007879b          	sext.w	a5,a5
    600184f4:	0207f793          	andi	a5,a5,32
    600184f8:	0007879b          	sext.w	a5,a5
    600184fc:	00078663          	beqz	a5,60018508 <f_chmod+0xa8>
    60018500:	00600793          	li	a5,6
    60018504:	fef42623          	sw	a5,-20(s0)
    60018508:	fec42783          	lw	a5,-20(s0)
    6001850c:	0007879b          	sext.w	a5,a5
    60018510:	08079863          	bnez	a5,600185a0 <f_chmod+0x140>
    60018514:	fd043783          	ld	a5,-48(s0)
    60018518:	fef43023          	sd	a5,-32(s0)
    6001851c:	fe043783          	ld	a5,-32(s0)
    60018520:	00079863          	bnez	a5,60018530 <f_chmod+0xd0>
    60018524:	00600793          	li	a5,6
    60018528:	fef42623          	sw	a5,-20(s0)
    6001852c:	0740006f          	j	600185a0 <f_chmod+0x140>
    60018530:	f9644783          	lbu	a5,-106(s0)
    60018534:	0277f793          	andi	a5,a5,39
    60018538:	f8f40b23          	sb	a5,-106(s0)
    6001853c:	f9744703          	lbu	a4,-105(s0)
    60018540:	f9644783          	lbu	a5,-106(s0)
    60018544:	00f777b3          	and	a5,a4,a5
    60018548:	0ff7f693          	andi	a3,a5,255
    6001854c:	fe043783          	ld	a5,-32(s0)
    60018550:	00b78793          	addi	a5,a5,11
    60018554:	0007c703          	lbu	a4,0(a5)
    60018558:	f9644783          	lbu	a5,-106(s0)
    6001855c:	fff7c793          	not	a5,a5
    60018560:	0ff7f793          	andi	a5,a5,255
    60018564:	00f777b3          	and	a5,a4,a5
    60018568:	0ff7f713          	andi	a4,a5,255
    6001856c:	fe043783          	ld	a5,-32(s0)
    60018570:	00b78793          	addi	a5,a5,11
    60018574:	00e6e733          	or	a4,a3,a4
    60018578:	0ff77713          	andi	a4,a4,255
    6001857c:	00e78023          	sb	a4,0(a5)
    60018580:	fb843783          	ld	a5,-72(s0)
    60018584:	00100713          	li	a4,1
    60018588:	00e78223          	sb	a4,4(a5)
    6001858c:	fb843783          	ld	a5,-72(s0)
    60018590:	00078513          	mv	a0,a5
    60018594:	df9f90ef          	jal	ra,6001238c <sync_fs>
    60018598:	00050793          	mv	a5,a0
    6001859c:	fef42623          	sw	a5,-20(s0)
    600185a0:	fec42783          	lw	a5,-20(s0)
    600185a4:	00078513          	mv	a0,a5
    600185a8:	06813083          	ld	ra,104(sp)
    600185ac:	06013403          	ld	s0,96(sp)
    600185b0:	07010113          	addi	sp,sp,112
    600185b4:	00008067          	ret

00000000600185b8 <f_rename>:
    600185b8:	f4010113          	addi	sp,sp,-192
    600185bc:	0a113c23          	sd	ra,184(sp)
    600185c0:	0a813823          	sd	s0,176(sp)
    600185c4:	0a913423          	sd	s1,168(sp)
    600185c8:	0c010413          	addi	s0,sp,192
    600185cc:	f4a43423          	sd	a0,-184(s0)
    600185d0:	f4b43023          	sd	a1,-192(s0)
    600185d4:	f4840713          	addi	a4,s0,-184
    600185d8:	fa040793          	addi	a5,s0,-96
    600185dc:	00100613          	li	a2,1
    600185e0:	00070593          	mv	a1,a4
    600185e4:	00078513          	mv	a0,a5
    600185e8:	ca8fc0ef          	jal	ra,60014a90 <find_volume>
    600185ec:	00050793          	mv	a5,a0
    600185f0:	fcf42e23          	sw	a5,-36(s0)
    600185f4:	fdc42783          	lw	a5,-36(s0)
    600185f8:	0007879b          	sext.w	a5,a5
    600185fc:	28079e63          	bnez	a5,60018898 <f_rename+0x2e0>
    60018600:	fa043783          	ld	a5,-96(s0)
    60018604:	f6f43c23          	sd	a5,-136(s0)
    60018608:	f5040793          	addi	a5,s0,-176
    6001860c:	fcf43023          	sd	a5,-64(s0)
    60018610:	f4843703          	ld	a4,-184(s0)
    60018614:	fa040793          	addi	a5,s0,-96
    60018618:	00070593          	mv	a1,a4
    6001861c:	00078513          	mv	a0,a5
    60018620:	f3dfb0ef          	jal	ra,6001455c <follow_path>
    60018624:	00050793          	mv	a5,a0
    60018628:	fcf42e23          	sw	a5,-36(s0)
    6001862c:	fdc42783          	lw	a5,-36(s0)
    60018630:	0007879b          	sext.w	a5,a5
    60018634:	02079463          	bnez	a5,6001865c <f_rename+0xa4>
    60018638:	fc043783          	ld	a5,-64(s0)
    6001863c:	00b78793          	addi	a5,a5,11
    60018640:	0007c783          	lbu	a5,0(a5)
    60018644:	0007879b          	sext.w	a5,a5
    60018648:	0207f793          	andi	a5,a5,32
    6001864c:	0007879b          	sext.w	a5,a5
    60018650:	00078663          	beqz	a5,6001865c <f_rename+0xa4>
    60018654:	00600793          	li	a5,6
    60018658:	fcf42e23          	sw	a5,-36(s0)
    6001865c:	fdc42783          	lw	a5,-36(s0)
    60018660:	0007879b          	sext.w	a5,a5
    60018664:	22079a63          	bnez	a5,60018898 <f_rename+0x2e0>
    60018668:	fb843783          	ld	a5,-72(s0)
    6001866c:	00079863          	bnez	a5,6001867c <f_rename+0xc4>
    60018670:	00400793          	li	a5,4
    60018674:	fcf42e23          	sw	a5,-36(s0)
    60018678:	2200006f          	j	60018898 <f_rename+0x2e0>
    6001867c:	fb843783          	ld	a5,-72(s0)
    60018680:	00b78713          	addi	a4,a5,11
    60018684:	f6040793          	addi	a5,s0,-160
    60018688:	01500613          	li	a2,21
    6001868c:	00070593          	mv	a1,a4
    60018690:	00078513          	mv	a0,a5
    60018694:	961f90ef          	jal	ra,60011ff4 <mem_cpy>
    60018698:	fa040713          	addi	a4,s0,-96
    6001869c:	f7840793          	addi	a5,s0,-136
    600186a0:	02800613          	li	a2,40
    600186a4:	00070593          	mv	a1,a4
    600186a8:	00078513          	mv	a0,a5
    600186ac:	949f90ef          	jal	ra,60011ff4 <mem_cpy>
    600186b0:	f4040793          	addi	a5,s0,-192
    600186b4:	00078513          	mv	a0,a5
    600186b8:	8a8fc0ef          	jal	ra,60014760 <get_ldnumber>
    600186bc:	00050793          	mv	a5,a0
    600186c0:	0207c263          	bltz	a5,600186e4 <f_rename+0x12c>
    600186c4:	f4043703          	ld	a4,-192(s0)
    600186c8:	f7840793          	addi	a5,s0,-136
    600186cc:	00070593          	mv	a1,a4
    600186d0:	00078513          	mv	a0,a5
    600186d4:	e89fb0ef          	jal	ra,6001455c <follow_path>
    600186d8:	00050793          	mv	a5,a0
    600186dc:	fcf42e23          	sw	a5,-36(s0)
    600186e0:	00c0006f          	j	600186ec <f_rename+0x134>
    600186e4:	00b00793          	li	a5,11
    600186e8:	fcf42e23          	sw	a5,-36(s0)
    600186ec:	fdc42783          	lw	a5,-36(s0)
    600186f0:	0007879b          	sext.w	a5,a5
    600186f4:	00079663          	bnez	a5,60018700 <f_rename+0x148>
    600186f8:	00800793          	li	a5,8
    600186fc:	fcf42e23          	sw	a5,-36(s0)
    60018700:	fdc42783          	lw	a5,-36(s0)
    60018704:	0007871b          	sext.w	a4,a5
    60018708:	00400793          	li	a5,4
    6001870c:	18f71663          	bne	a4,a5,60018898 <f_rename+0x2e0>
    60018710:	f7840793          	addi	a5,s0,-136
    60018714:	00078513          	mv	a0,a5
    60018718:	e80fb0ef          	jal	ra,60013d98 <dir_register>
    6001871c:	00050793          	mv	a5,a0
    60018720:	fcf42e23          	sw	a5,-36(s0)
    60018724:	fdc42783          	lw	a5,-36(s0)
    60018728:	0007879b          	sext.w	a5,a5
    6001872c:	16079663          	bnez	a5,60018898 <f_rename+0x2e0>
    60018730:	f9043783          	ld	a5,-112(s0)
    60018734:	fcf43823          	sd	a5,-48(s0)
    60018738:	fd043783          	ld	a5,-48(s0)
    6001873c:	00d78713          	addi	a4,a5,13
    60018740:	f6040793          	addi	a5,s0,-160
    60018744:	00278793          	addi	a5,a5,2
    60018748:	01300613          	li	a2,19
    6001874c:	00078593          	mv	a1,a5
    60018750:	00070513          	mv	a0,a4
    60018754:	8a1f90ef          	jal	ra,60011ff4 <mem_cpy>
    60018758:	f6044703          	lbu	a4,-160(s0)
    6001875c:	fd043783          	ld	a5,-48(s0)
    60018760:	00b78793          	addi	a5,a5,11
    60018764:	02076713          	ori	a4,a4,32
    60018768:	0ff77713          	andi	a4,a4,255
    6001876c:	00e78023          	sb	a4,0(a5)
    60018770:	fa043783          	ld	a5,-96(s0)
    60018774:	00100713          	li	a4,1
    60018778:	00e78223          	sb	a4,4(a5)
    6001877c:	fd043783          	ld	a5,-48(s0)
    60018780:	00b78793          	addi	a5,a5,11
    60018784:	0007c783          	lbu	a5,0(a5)
    60018788:	0007879b          	sext.w	a5,a5
    6001878c:	0107f793          	andi	a5,a5,16
    60018790:	0007879b          	sext.w	a5,a5
    60018794:	0c078263          	beqz	a5,60018858 <f_rename+0x2a0>
    60018798:	fac42703          	lw	a4,-84(s0)
    6001879c:	f8442783          	lw	a5,-124(s0)
    600187a0:	0af70c63          	beq	a4,a5,60018858 <f_rename+0x2a0>
    600187a4:	fa043483          	ld	s1,-96(s0)
    600187a8:	fa043783          	ld	a5,-96(s0)
    600187ac:	fd043583          	ld	a1,-48(s0)
    600187b0:	00078513          	mv	a0,a5
    600187b4:	9c4fb0ef          	jal	ra,60013978 <ld_clust>
    600187b8:	00050793          	mv	a5,a0
    600187bc:	0007879b          	sext.w	a5,a5
    600187c0:	00078593          	mv	a1,a5
    600187c4:	00048513          	mv	a0,s1
    600187c8:	e21f90ef          	jal	ra,600125e8 <clust2sect>
    600187cc:	00050793          	mv	a5,a0
    600187d0:	fcf42623          	sw	a5,-52(s0)
    600187d4:	fcc42783          	lw	a5,-52(s0)
    600187d8:	0007879b          	sext.w	a5,a5
    600187dc:	00079863          	bnez	a5,600187ec <f_rename+0x234>
    600187e0:	00200793          	li	a5,2
    600187e4:	fcf42e23          	sw	a5,-36(s0)
    600187e8:	0700006f          	j	60018858 <f_rename+0x2a0>
    600187ec:	fa043783          	ld	a5,-96(s0)
    600187f0:	fcc42703          	lw	a4,-52(s0)
    600187f4:	00070593          	mv	a1,a4
    600187f8:	00078513          	mv	a0,a5
    600187fc:	addf90ef          	jal	ra,600122d8 <move_window>
    60018800:	00050793          	mv	a5,a0
    60018804:	fcf42e23          	sw	a5,-36(s0)
    60018808:	fa043783          	ld	a5,-96(s0)
    6001880c:	03478793          	addi	a5,a5,52
    60018810:	02078793          	addi	a5,a5,32
    60018814:	fcf43823          	sd	a5,-48(s0)
    60018818:	fdc42783          	lw	a5,-36(s0)
    6001881c:	0007879b          	sext.w	a5,a5
    60018820:	02079c63          	bnez	a5,60018858 <f_rename+0x2a0>
    60018824:	fd043783          	ld	a5,-48(s0)
    60018828:	00178793          	addi	a5,a5,1
    6001882c:	0007c783          	lbu	a5,0(a5)
    60018830:	00078713          	mv	a4,a5
    60018834:	02e00793          	li	a5,46
    60018838:	02f71063          	bne	a4,a5,60018858 <f_rename+0x2a0>
    6001883c:	f8442783          	lw	a5,-124(s0)
    60018840:	00078593          	mv	a1,a5
    60018844:	fd043503          	ld	a0,-48(s0)
    60018848:	a20fb0ef          	jal	ra,60013a68 <st_clust>
    6001884c:	fa043783          	ld	a5,-96(s0)
    60018850:	00100713          	li	a4,1
    60018854:	00e78223          	sb	a4,4(a5)
    60018858:	fdc42783          	lw	a5,-36(s0)
    6001885c:	0007879b          	sext.w	a5,a5
    60018860:	02079c63          	bnez	a5,60018898 <f_rename+0x2e0>
    60018864:	fa040793          	addi	a5,s0,-96
    60018868:	00078513          	mv	a0,a5
    6001886c:	df0fb0ef          	jal	ra,60013e5c <dir_remove>
    60018870:	00050793          	mv	a5,a0
    60018874:	fcf42e23          	sw	a5,-36(s0)
    60018878:	fdc42783          	lw	a5,-36(s0)
    6001887c:	0007879b          	sext.w	a5,a5
    60018880:	00079c63          	bnez	a5,60018898 <f_rename+0x2e0>
    60018884:	fa043783          	ld	a5,-96(s0)
    60018888:	00078513          	mv	a0,a5
    6001888c:	b01f90ef          	jal	ra,6001238c <sync_fs>
    60018890:	00050793          	mv	a5,a0
    60018894:	fcf42e23          	sw	a5,-36(s0)
    60018898:	fdc42783          	lw	a5,-36(s0)
    6001889c:	00078513          	mv	a0,a5
    600188a0:	0b813083          	ld	ra,184(sp)
    600188a4:	0b013403          	ld	s0,176(sp)
    600188a8:	0a813483          	ld	s1,168(sp)
    600188ac:	0c010113          	addi	sp,sp,192
    600188b0:	00008067          	ret

00000000600188b4 <f_utime>:
    600188b4:	f9010113          	addi	sp,sp,-112
    600188b8:	06113423          	sd	ra,104(sp)
    600188bc:	06813023          	sd	s0,96(sp)
    600188c0:	07010413          	addi	s0,sp,112
    600188c4:	f8a43c23          	sd	a0,-104(s0)
    600188c8:	f8b43823          	sd	a1,-112(s0)
    600188cc:	f9840713          	addi	a4,s0,-104
    600188d0:	fb840793          	addi	a5,s0,-72
    600188d4:	00100613          	li	a2,1
    600188d8:	00070593          	mv	a1,a4
    600188dc:	00078513          	mv	a0,a5
    600188e0:	9b0fc0ef          	jal	ra,60014a90 <find_volume>
    600188e4:	00050793          	mv	a5,a0
    600188e8:	fef42623          	sw	a5,-20(s0)
    600188ec:	fec42783          	lw	a5,-20(s0)
    600188f0:	0007879b          	sext.w	a5,a5
    600188f4:	10079c63          	bnez	a5,60018a0c <f_utime+0x158>
    600188f8:	fa840793          	addi	a5,s0,-88
    600188fc:	fcf43c23          	sd	a5,-40(s0)
    60018900:	f9843703          	ld	a4,-104(s0)
    60018904:	fb840793          	addi	a5,s0,-72
    60018908:	00070593          	mv	a1,a4
    6001890c:	00078513          	mv	a0,a5
    60018910:	c4dfb0ef          	jal	ra,6001455c <follow_path>
    60018914:	00050793          	mv	a5,a0
    60018918:	fef42623          	sw	a5,-20(s0)
    6001891c:	fec42783          	lw	a5,-20(s0)
    60018920:	0007879b          	sext.w	a5,a5
    60018924:	02079463          	bnez	a5,6001894c <f_utime+0x98>
    60018928:	fd843783          	ld	a5,-40(s0)
    6001892c:	00b78793          	addi	a5,a5,11
    60018930:	0007c783          	lbu	a5,0(a5)
    60018934:	0007879b          	sext.w	a5,a5
    60018938:	0207f793          	andi	a5,a5,32
    6001893c:	0007879b          	sext.w	a5,a5
    60018940:	00078663          	beqz	a5,6001894c <f_utime+0x98>
    60018944:	00600793          	li	a5,6
    60018948:	fef42623          	sw	a5,-20(s0)
    6001894c:	fec42783          	lw	a5,-20(s0)
    60018950:	0007879b          	sext.w	a5,a5
    60018954:	0a079c63          	bnez	a5,60018a0c <f_utime+0x158>
    60018958:	fd043783          	ld	a5,-48(s0)
    6001895c:	fef43023          	sd	a5,-32(s0)
    60018960:	fe043783          	ld	a5,-32(s0)
    60018964:	00079863          	bnez	a5,60018974 <f_utime+0xc0>
    60018968:	00600793          	li	a5,6
    6001896c:	fef42623          	sw	a5,-20(s0)
    60018970:	09c0006f          	j	60018a0c <f_utime+0x158>
    60018974:	f9043783          	ld	a5,-112(s0)
    60018978:	0067d703          	lhu	a4,6(a5)
    6001897c:	fe043783          	ld	a5,-32(s0)
    60018980:	01678793          	addi	a5,a5,22
    60018984:	0ff77713          	andi	a4,a4,255
    60018988:	00e78023          	sb	a4,0(a5)
    6001898c:	f9043783          	ld	a5,-112(s0)
    60018990:	0067d783          	lhu	a5,6(a5)
    60018994:	0087d79b          	srliw	a5,a5,0x8
    60018998:	03079713          	slli	a4,a5,0x30
    6001899c:	03075713          	srli	a4,a4,0x30
    600189a0:	fe043783          	ld	a5,-32(s0)
    600189a4:	01778793          	addi	a5,a5,23
    600189a8:	0ff77713          	andi	a4,a4,255
    600189ac:	00e78023          	sb	a4,0(a5)
    600189b0:	f9043783          	ld	a5,-112(s0)
    600189b4:	0047d703          	lhu	a4,4(a5)
    600189b8:	fe043783          	ld	a5,-32(s0)
    600189bc:	01878793          	addi	a5,a5,24
    600189c0:	0ff77713          	andi	a4,a4,255
    600189c4:	00e78023          	sb	a4,0(a5)
    600189c8:	f9043783          	ld	a5,-112(s0)
    600189cc:	0047d783          	lhu	a5,4(a5)
    600189d0:	0087d79b          	srliw	a5,a5,0x8
    600189d4:	03079713          	slli	a4,a5,0x30
    600189d8:	03075713          	srli	a4,a4,0x30
    600189dc:	fe043783          	ld	a5,-32(s0)
    600189e0:	01978793          	addi	a5,a5,25
    600189e4:	0ff77713          	andi	a4,a4,255
    600189e8:	00e78023          	sb	a4,0(a5)
    600189ec:	fb843783          	ld	a5,-72(s0)
    600189f0:	00100713          	li	a4,1
    600189f4:	00e78223          	sb	a4,4(a5)
    600189f8:	fb843783          	ld	a5,-72(s0)
    600189fc:	00078513          	mv	a0,a5
    60018a00:	98df90ef          	jal	ra,6001238c <sync_fs>
    60018a04:	00050793          	mv	a5,a0
    60018a08:	fef42623          	sw	a5,-20(s0)
    60018a0c:	fec42783          	lw	a5,-20(s0)
    60018a10:	00078513          	mv	a0,a5
    60018a14:	06813083          	ld	ra,104(sp)
    60018a18:	06013403          	ld	s0,96(sp)
    60018a1c:	07010113          	addi	sp,sp,112
    60018a20:	00008067          	ret

0000000060018a24 <f_getlabel>:
    60018a24:	f9010113          	addi	sp,sp,-112
    60018a28:	06113423          	sd	ra,104(sp)
    60018a2c:	06813023          	sd	s0,96(sp)
    60018a30:	07010413          	addi	s0,sp,112
    60018a34:	faa43423          	sd	a0,-88(s0)
    60018a38:	fab43023          	sd	a1,-96(s0)
    60018a3c:	f8c43c23          	sd	a2,-104(s0)
    60018a40:	fa840713          	addi	a4,s0,-88
    60018a44:	fb840793          	addi	a5,s0,-72
    60018a48:	00000613          	li	a2,0
    60018a4c:	00070593          	mv	a1,a4
    60018a50:	00078513          	mv	a0,a5
    60018a54:	83cfc0ef          	jal	ra,60014a90 <find_volume>
    60018a58:	00050793          	mv	a5,a0
    60018a5c:	fef42623          	sw	a5,-20(s0)
    60018a60:	fec42783          	lw	a5,-20(s0)
    60018a64:	0007879b          	sext.w	a5,a5
    60018a68:	0c079e63          	bnez	a5,60018b44 <f_getlabel+0x120>
    60018a6c:	fa043783          	ld	a5,-96(s0)
    60018a70:	0c078a63          	beqz	a5,60018b44 <f_getlabel+0x120>
    60018a74:	fc042223          	sw	zero,-60(s0)
    60018a78:	fb840793          	addi	a5,s0,-72
    60018a7c:	00000593          	li	a1,0
    60018a80:	00078513          	mv	a0,a5
    60018a84:	829fa0ef          	jal	ra,600132ac <dir_sdi>
    60018a88:	00050793          	mv	a5,a0
    60018a8c:	fef42623          	sw	a5,-20(s0)
    60018a90:	fec42783          	lw	a5,-20(s0)
    60018a94:	0007879b          	sext.w	a5,a5
    60018a98:	0a079663          	bnez	a5,60018b44 <f_getlabel+0x120>
    60018a9c:	fb840793          	addi	a5,s0,-72
    60018aa0:	00100593          	li	a1,1
    60018aa4:	00078513          	mv	a0,a5
    60018aa8:	990fb0ef          	jal	ra,60013c38 <dir_read>
    60018aac:	00050793          	mv	a5,a0
    60018ab0:	fef42623          	sw	a5,-20(s0)
    60018ab4:	fec42783          	lw	a5,-20(s0)
    60018ab8:	0007879b          	sext.w	a5,a5
    60018abc:	06079663          	bnez	a5,60018b28 <f_getlabel+0x104>
    60018ac0:	fd043783          	ld	a5,-48(s0)
    60018ac4:	00b00613          	li	a2,11
    60018ac8:	00078593          	mv	a1,a5
    60018acc:	fa043503          	ld	a0,-96(s0)
    60018ad0:	d24f90ef          	jal	ra,60011ff4 <mem_cpy>
    60018ad4:	00b00793          	li	a5,11
    60018ad8:	fef42423          	sw	a5,-24(s0)
    60018adc:	fe846783          	lwu	a5,-24(s0)
    60018ae0:	fa043703          	ld	a4,-96(s0)
    60018ae4:	00f707b3          	add	a5,a4,a5
    60018ae8:	00078023          	sb	zero,0(a5)
    60018aec:	fe842783          	lw	a5,-24(s0)
    60018af0:	0007879b          	sext.w	a5,a5
    60018af4:	02078863          	beqz	a5,60018b24 <f_getlabel+0x100>
    60018af8:	fe842783          	lw	a5,-24(s0)
    60018afc:	fff7879b          	addiw	a5,a5,-1
    60018b00:	fef42423          	sw	a5,-24(s0)
    60018b04:	fe846783          	lwu	a5,-24(s0)
    60018b08:	fa043703          	ld	a4,-96(s0)
    60018b0c:	00f707b3          	add	a5,a4,a5
    60018b10:	0007c783          	lbu	a5,0(a5)
    60018b14:	00078713          	mv	a4,a5
    60018b18:	02000793          	li	a5,32
    60018b1c:	fcf700e3          	beq	a4,a5,60018adc <f_getlabel+0xb8>
    60018b20:	0080006f          	j	60018b28 <f_getlabel+0x104>
    60018b24:	00000013          	nop
    60018b28:	fec42783          	lw	a5,-20(s0)
    60018b2c:	0007871b          	sext.w	a4,a5
    60018b30:	00400793          	li	a5,4
    60018b34:	00f71863          	bne	a4,a5,60018b44 <f_getlabel+0x120>
    60018b38:	fa043783          	ld	a5,-96(s0)
    60018b3c:	00078023          	sb	zero,0(a5)
    60018b40:	fe042623          	sw	zero,-20(s0)
    60018b44:	fec42783          	lw	a5,-20(s0)
    60018b48:	0007879b          	sext.w	a5,a5
    60018b4c:	10079c63          	bnez	a5,60018c64 <f_getlabel+0x240>
    60018b50:	f9843783          	ld	a5,-104(s0)
    60018b54:	10078863          	beqz	a5,60018c64 <f_getlabel+0x240>
    60018b58:	fb843703          	ld	a4,-72(s0)
    60018b5c:	fb843783          	ld	a5,-72(s0)
    60018b60:	0207a783          	lw	a5,32(a5)
    60018b64:	00078593          	mv	a1,a5
    60018b68:	00070513          	mv	a0,a4
    60018b6c:	f6cf90ef          	jal	ra,600122d8 <move_window>
    60018b70:	00050793          	mv	a5,a0
    60018b74:	fef42623          	sw	a5,-20(s0)
    60018b78:	fec42783          	lw	a5,-20(s0)
    60018b7c:	0007879b          	sext.w	a5,a5
    60018b80:	0e079263          	bnez	a5,60018c64 <f_getlabel+0x240>
    60018b84:	fb843783          	ld	a5,-72(s0)
    60018b88:	0007c783          	lbu	a5,0(a5)
    60018b8c:	00078713          	mv	a4,a5
    60018b90:	00300793          	li	a5,3
    60018b94:	00f71663          	bne	a4,a5,60018ba0 <f_getlabel+0x17c>
    60018b98:	04300793          	li	a5,67
    60018b9c:	0080006f          	j	60018ba4 <f_getlabel+0x180>
    60018ba0:	02700793          	li	a5,39
    60018ba4:	fef42223          	sw	a5,-28(s0)
    60018ba8:	fb843703          	ld	a4,-72(s0)
    60018bac:	fe446783          	lwu	a5,-28(s0)
    60018bb0:	03078793          	addi	a5,a5,48
    60018bb4:	00f707b3          	add	a5,a4,a5
    60018bb8:	00478793          	addi	a5,a5,4
    60018bbc:	00378793          	addi	a5,a5,3
    60018bc0:	0007c783          	lbu	a5,0(a5)
    60018bc4:	0007879b          	sext.w	a5,a5
    60018bc8:	0187979b          	slliw	a5,a5,0x18
    60018bcc:	0007869b          	sext.w	a3,a5
    60018bd0:	fb843703          	ld	a4,-72(s0)
    60018bd4:	fe446783          	lwu	a5,-28(s0)
    60018bd8:	03078793          	addi	a5,a5,48
    60018bdc:	00f707b3          	add	a5,a4,a5
    60018be0:	00478793          	addi	a5,a5,4
    60018be4:	00278793          	addi	a5,a5,2
    60018be8:	0007c783          	lbu	a5,0(a5)
    60018bec:	0007879b          	sext.w	a5,a5
    60018bf0:	0107979b          	slliw	a5,a5,0x10
    60018bf4:	0007879b          	sext.w	a5,a5
    60018bf8:	00068713          	mv	a4,a3
    60018bfc:	00f767b3          	or	a5,a4,a5
    60018c00:	0007869b          	sext.w	a3,a5
    60018c04:	fb843703          	ld	a4,-72(s0)
    60018c08:	fe446783          	lwu	a5,-28(s0)
    60018c0c:	03078793          	addi	a5,a5,48
    60018c10:	00f707b3          	add	a5,a4,a5
    60018c14:	00478793          	addi	a5,a5,4
    60018c18:	00178793          	addi	a5,a5,1
    60018c1c:	0007c783          	lbu	a5,0(a5)
    60018c20:	0007879b          	sext.w	a5,a5
    60018c24:	0087979b          	slliw	a5,a5,0x8
    60018c28:	0007879b          	sext.w	a5,a5
    60018c2c:	0007879b          	sext.w	a5,a5
    60018c30:	00068713          	mv	a4,a3
    60018c34:	00f767b3          	or	a5,a4,a5
    60018c38:	0007869b          	sext.w	a3,a5
    60018c3c:	fb843703          	ld	a4,-72(s0)
    60018c40:	fe446783          	lwu	a5,-28(s0)
    60018c44:	00f707b3          	add	a5,a4,a5
    60018c48:	0347c783          	lbu	a5,52(a5)
    60018c4c:	0007879b          	sext.w	a5,a5
    60018c50:	00068713          	mv	a4,a3
    60018c54:	00f767b3          	or	a5,a4,a5
    60018c58:	0007871b          	sext.w	a4,a5
    60018c5c:	f9843783          	ld	a5,-104(s0)
    60018c60:	00e7a023          	sw	a4,0(a5)
    60018c64:	fec42783          	lw	a5,-20(s0)
    60018c68:	00078513          	mv	a0,a5
    60018c6c:	06813083          	ld	ra,104(sp)
    60018c70:	06013403          	ld	s0,96(sp)
    60018c74:	07010113          	addi	sp,sp,112
    60018c78:	00008067          	ret

0000000060018c7c <f_setlabel>:
    60018c7c:	f9010113          	addi	sp,sp,-112
    60018c80:	06113423          	sd	ra,104(sp)
    60018c84:	06813023          	sd	s0,96(sp)
    60018c88:	07010413          	addi	s0,sp,112
    60018c8c:	f8a43c23          	sd	a0,-104(s0)
    60018c90:	f9840713          	addi	a4,s0,-104
    60018c94:	fb040793          	addi	a5,s0,-80
    60018c98:	00100613          	li	a2,1
    60018c9c:	00070593          	mv	a1,a4
    60018ca0:	00078513          	mv	a0,a5
    60018ca4:	dedfb0ef          	jal	ra,60014a90 <find_volume>
    60018ca8:	00050793          	mv	a5,a0
    60018cac:	fef42623          	sw	a5,-20(s0)
    60018cb0:	fec42783          	lw	a5,-20(s0)
    60018cb4:	0007879b          	sext.w	a5,a5
    60018cb8:	00078663          	beqz	a5,60018cc4 <f_setlabel+0x48>
    60018cbc:	fec42783          	lw	a5,-20(s0)
    60018cc0:	4580006f          	j	60019118 <f_setlabel+0x49c>
    60018cc4:	fa040023          	sb	zero,-96(s0)
    60018cc8:	fe042023          	sw	zero,-32(s0)
    60018ccc:	0100006f          	j	60018cdc <f_setlabel+0x60>
    60018cd0:	fe042783          	lw	a5,-32(s0)
    60018cd4:	0017879b          	addiw	a5,a5,1
    60018cd8:	fef42023          	sw	a5,-32(s0)
    60018cdc:	f9843703          	ld	a4,-104(s0)
    60018ce0:	fe046783          	lwu	a5,-32(s0)
    60018ce4:	00f707b3          	add	a5,a4,a5
    60018ce8:	0007c783          	lbu	a5,0(a5)
    60018cec:	fe0792e3          	bnez	a5,60018cd0 <f_setlabel+0x54>
    60018cf0:	0100006f          	j	60018d00 <f_setlabel+0x84>
    60018cf4:	fe042783          	lw	a5,-32(s0)
    60018cf8:	fff7879b          	addiw	a5,a5,-1
    60018cfc:	fef42023          	sw	a5,-32(s0)
    60018d00:	fe042783          	lw	a5,-32(s0)
    60018d04:	0007879b          	sext.w	a5,a5
    60018d08:	02078863          	beqz	a5,60018d38 <f_setlabel+0xbc>
    60018d0c:	f9843703          	ld	a4,-104(s0)
    60018d10:	fe042783          	lw	a5,-32(s0)
    60018d14:	fff7879b          	addiw	a5,a5,-1
    60018d18:	0007879b          	sext.w	a5,a5
    60018d1c:	02079793          	slli	a5,a5,0x20
    60018d20:	0207d793          	srli	a5,a5,0x20
    60018d24:	00f707b3          	add	a5,a4,a5
    60018d28:	0007c783          	lbu	a5,0(a5)
    60018d2c:	00078713          	mv	a4,a5
    60018d30:	02000793          	li	a5,32
    60018d34:	fcf700e3          	beq	a4,a5,60018cf4 <f_setlabel+0x78>
    60018d38:	fe042783          	lw	a5,-32(s0)
    60018d3c:	0007879b          	sext.w	a5,a5
    60018d40:	1a078063          	beqz	a5,60018ee0 <f_setlabel+0x264>
    60018d44:	fe042223          	sw	zero,-28(s0)
    60018d48:	fe442783          	lw	a5,-28(s0)
    60018d4c:	fef42423          	sw	a5,-24(s0)
    60018d50:	f9843703          	ld	a4,-104(s0)
    60018d54:	fe842783          	lw	a5,-24(s0)
    60018d58:	0017869b          	addiw	a3,a5,1
    60018d5c:	fed42423          	sw	a3,-24(s0)
    60018d60:	02079793          	slli	a5,a5,0x20
    60018d64:	0207d793          	srli	a5,a5,0x20
    60018d68:	00f707b3          	add	a5,a4,a5
    60018d6c:	0007c783          	lbu	a5,0(a5)
    60018d70:	fcf41f23          	sh	a5,-34(s0)
    60018d74:	fde45783          	lhu	a5,-34(s0)
    60018d78:	0007871b          	sext.w	a4,a5
    60018d7c:	06000793          	li	a5,96
    60018d80:	02e7f063          	bgeu	a5,a4,60018da0 <f_setlabel+0x124>
    60018d84:	fde45783          	lhu	a5,-34(s0)
    60018d88:	0007871b          	sext.w	a4,a5
    60018d8c:	07a00793          	li	a5,122
    60018d90:	00e7e863          	bltu	a5,a4,60018da0 <f_setlabel+0x124>
    60018d94:	fde45783          	lhu	a5,-34(s0)
    60018d98:	fe07879b          	addiw	a5,a5,-32
    60018d9c:	fcf41f23          	sh	a5,-34(s0)
    60018da0:	fde45783          	lhu	a5,-34(s0)
    60018da4:	0007871b          	sext.w	a4,a5
    60018da8:	07f00793          	li	a5,127
    60018dac:	00e7f463          	bgeu	a5,a4,60018db4 <f_setlabel+0x138>
    60018db0:	fc041f23          	sh	zero,-34(s0)
    60018db4:	fde45783          	lhu	a5,-34(s0)
    60018db8:	0007879b          	sext.w	a5,a5
    60018dbc:	04078663          	beqz	a5,60018e08 <f_setlabel+0x18c>
    60018dc0:	fde45783          	lhu	a5,-34(s0)
    60018dc4:	0007879b          	sext.w	a5,a5
    60018dc8:	00078593          	mv	a1,a5
    60018dcc:	6001a7b7          	lui	a5,0x6001a
    60018dd0:	2a878513          	addi	a0,a5,680 # 6001a2a8 <get_flash_base+0x1138>
    60018dd4:	b8cf90ef          	jal	ra,60012160 <chk_chr>
    60018dd8:	00050793          	mv	a5,a0
    60018ddc:	02079663          	bnez	a5,60018e08 <f_setlabel+0x18c>
    60018de0:	fde45783          	lhu	a5,-34(s0)
    60018de4:	0007871b          	sext.w	a4,a5
    60018de8:	0ff00793          	li	a5,255
    60018dec:	00e7f663          	bgeu	a5,a4,60018df8 <f_setlabel+0x17c>
    60018df0:	00a00793          	li	a5,10
    60018df4:	0080006f          	j	60018dfc <f_setlabel+0x180>
    60018df8:	00b00793          	li	a5,11
    60018dfc:	fe442703          	lw	a4,-28(s0)
    60018e00:	0007071b          	sext.w	a4,a4
    60018e04:	00f76663          	bltu	a4,a5,60018e10 <f_setlabel+0x194>
    60018e08:	00600793          	li	a5,6
    60018e0c:	30c0006f          	j	60019118 <f_setlabel+0x49c>
    60018e10:	fde45783          	lhu	a5,-34(s0)
    60018e14:	0007871b          	sext.w	a4,a5
    60018e18:	0ff00793          	li	a5,255
    60018e1c:	02e7fc63          	bgeu	a5,a4,60018e54 <f_setlabel+0x1d8>
    60018e20:	fde45783          	lhu	a5,-34(s0)
    60018e24:	0087d79b          	srliw	a5,a5,0x8
    60018e28:	03079693          	slli	a3,a5,0x30
    60018e2c:	0306d693          	srli	a3,a3,0x30
    60018e30:	fe442783          	lw	a5,-28(s0)
    60018e34:	0017871b          	addiw	a4,a5,1
    60018e38:	fee42223          	sw	a4,-28(s0)
    60018e3c:	0ff6f713          	andi	a4,a3,255
    60018e40:	02079793          	slli	a5,a5,0x20
    60018e44:	0207d793          	srli	a5,a5,0x20
    60018e48:	ff040693          	addi	a3,s0,-16
    60018e4c:	00f687b3          	add	a5,a3,a5
    60018e50:	fae78823          	sb	a4,-80(a5)
    60018e54:	fe442783          	lw	a5,-28(s0)
    60018e58:	0017871b          	addiw	a4,a5,1
    60018e5c:	fee42223          	sw	a4,-28(s0)
    60018e60:	fde45703          	lhu	a4,-34(s0)
    60018e64:	0ff77713          	andi	a4,a4,255
    60018e68:	02079793          	slli	a5,a5,0x20
    60018e6c:	0207d793          	srli	a5,a5,0x20
    60018e70:	ff040693          	addi	a3,s0,-16
    60018e74:	00f687b3          	add	a5,a3,a5
    60018e78:	fae78823          	sb	a4,-80(a5)
    60018e7c:	fe842703          	lw	a4,-24(s0)
    60018e80:	fe042783          	lw	a5,-32(s0)
    60018e84:	0007071b          	sext.w	a4,a4
    60018e88:	0007879b          	sext.w	a5,a5
    60018e8c:	ecf762e3          	bltu	a4,a5,60018d50 <f_setlabel+0xd4>
    60018e90:	0280006f          	j	60018eb8 <f_setlabel+0x23c>
    60018e94:	fe442783          	lw	a5,-28(s0)
    60018e98:	0017871b          	addiw	a4,a5,1
    60018e9c:	fee42223          	sw	a4,-28(s0)
    60018ea0:	02079793          	slli	a5,a5,0x20
    60018ea4:	0207d793          	srli	a5,a5,0x20
    60018ea8:	ff040713          	addi	a4,s0,-16
    60018eac:	00f707b3          	add	a5,a4,a5
    60018eb0:	02000713          	li	a4,32
    60018eb4:	fae78823          	sb	a4,-80(a5)
    60018eb8:	fe442783          	lw	a5,-28(s0)
    60018ebc:	0007871b          	sext.w	a4,a5
    60018ec0:	00a00793          	li	a5,10
    60018ec4:	fce7f8e3          	bgeu	a5,a4,60018e94 <f_setlabel+0x218>
    60018ec8:	fa044783          	lbu	a5,-96(s0)
    60018ecc:	00078713          	mv	a4,a5
    60018ed0:	0e500793          	li	a5,229
    60018ed4:	00f71663          	bne	a4,a5,60018ee0 <f_setlabel+0x264>
    60018ed8:	00600793          	li	a5,6
    60018edc:	23c0006f          	j	60019118 <f_setlabel+0x49c>
    60018ee0:	fa042e23          	sw	zero,-68(s0)
    60018ee4:	fb040793          	addi	a5,s0,-80
    60018ee8:	00000593          	li	a1,0
    60018eec:	00078513          	mv	a0,a5
    60018ef0:	bbcfa0ef          	jal	ra,600132ac <dir_sdi>
    60018ef4:	00050793          	mv	a5,a0
    60018ef8:	fef42623          	sw	a5,-20(s0)
    60018efc:	fec42783          	lw	a5,-20(s0)
    60018f00:	0007879b          	sext.w	a5,a5
    60018f04:	20079863          	bnez	a5,60019114 <f_setlabel+0x498>
    60018f08:	fb040793          	addi	a5,s0,-80
    60018f0c:	00100593          	li	a1,1
    60018f10:	00078513          	mv	a0,a5
    60018f14:	d25fa0ef          	jal	ra,60013c38 <dir_read>
    60018f18:	00050793          	mv	a5,a0
    60018f1c:	fef42623          	sw	a5,-20(s0)
    60018f20:	fec42783          	lw	a5,-20(s0)
    60018f24:	0007879b          	sext.w	a5,a5
    60018f28:	0c079a63          	bnez	a5,60018ffc <f_setlabel+0x380>
    60018f2c:	fa044783          	lbu	a5,-96(s0)
    60018f30:	08078e63          	beqz	a5,60018fcc <f_setlabel+0x350>
    60018f34:	fc843783          	ld	a5,-56(s0)
    60018f38:	fa040713          	addi	a4,s0,-96
    60018f3c:	00b00613          	li	a2,11
    60018f40:	00070593          	mv	a1,a4
    60018f44:	00078513          	mv	a0,a5
    60018f48:	8acf90ef          	jal	ra,60011ff4 <mem_cpy>
    60018f4c:	462107b7          	lui	a5,0x46210
    60018f50:	fcf42c23          	sw	a5,-40(s0)
    60018f54:	fc843783          	ld	a5,-56(s0)
    60018f58:	01678793          	addi	a5,a5,22 # 46210016 <_start-0x19dfffea>
    60018f5c:	fd842703          	lw	a4,-40(s0)
    60018f60:	0ff77713          	andi	a4,a4,255
    60018f64:	00e78023          	sb	a4,0(a5)
    60018f68:	fd842783          	lw	a5,-40(s0)
    60018f6c:	03079793          	slli	a5,a5,0x30
    60018f70:	0307d793          	srli	a5,a5,0x30
    60018f74:	0087d79b          	srliw	a5,a5,0x8
    60018f78:	03079713          	slli	a4,a5,0x30
    60018f7c:	03075713          	srli	a4,a4,0x30
    60018f80:	fc843783          	ld	a5,-56(s0)
    60018f84:	01778793          	addi	a5,a5,23
    60018f88:	0ff77713          	andi	a4,a4,255
    60018f8c:	00e78023          	sb	a4,0(a5)
    60018f90:	fd842783          	lw	a5,-40(s0)
    60018f94:	0107d79b          	srliw	a5,a5,0x10
    60018f98:	0007871b          	sext.w	a4,a5
    60018f9c:	fc843783          	ld	a5,-56(s0)
    60018fa0:	01878793          	addi	a5,a5,24
    60018fa4:	0ff77713          	andi	a4,a4,255
    60018fa8:	00e78023          	sb	a4,0(a5)
    60018fac:	fd842783          	lw	a5,-40(s0)
    60018fb0:	0187d79b          	srliw	a5,a5,0x18
    60018fb4:	0007871b          	sext.w	a4,a5
    60018fb8:	fc843783          	ld	a5,-56(s0)
    60018fbc:	01978793          	addi	a5,a5,25
    60018fc0:	0ff77713          	andi	a4,a4,255
    60018fc4:	00e78023          	sb	a4,0(a5)
    60018fc8:	0100006f          	j	60018fd8 <f_setlabel+0x35c>
    60018fcc:	fc843783          	ld	a5,-56(s0)
    60018fd0:	fe500713          	li	a4,-27
    60018fd4:	00e78023          	sb	a4,0(a5)
    60018fd8:	fb043783          	ld	a5,-80(s0)
    60018fdc:	00100713          	li	a4,1
    60018fe0:	00e78223          	sb	a4,4(a5)
    60018fe4:	fb043783          	ld	a5,-80(s0)
    60018fe8:	00078513          	mv	a0,a5
    60018fec:	ba0f90ef          	jal	ra,6001238c <sync_fs>
    60018ff0:	00050793          	mv	a5,a0
    60018ff4:	fef42623          	sw	a5,-20(s0)
    60018ff8:	11c0006f          	j	60019114 <f_setlabel+0x498>
    60018ffc:	fec42783          	lw	a5,-20(s0)
    60019000:	0007871b          	sext.w	a4,a5
    60019004:	00400793          	li	a5,4
    60019008:	10f71663          	bne	a4,a5,60019114 <f_setlabel+0x498>
    6001900c:	fe042623          	sw	zero,-20(s0)
    60019010:	fa044783          	lbu	a5,-96(s0)
    60019014:	10078063          	beqz	a5,60019114 <f_setlabel+0x498>
    60019018:	fb040793          	addi	a5,s0,-80
    6001901c:	00100593          	li	a1,1
    60019020:	00078513          	mv	a0,a5
    60019024:	83dfa0ef          	jal	ra,60013860 <dir_alloc>
    60019028:	00050793          	mv	a5,a0
    6001902c:	fef42623          	sw	a5,-20(s0)
    60019030:	fec42783          	lw	a5,-20(s0)
    60019034:	0007879b          	sext.w	a5,a5
    60019038:	0c079e63          	bnez	a5,60019114 <f_setlabel+0x498>
    6001903c:	fc843783          	ld	a5,-56(s0)
    60019040:	02000613          	li	a2,32
    60019044:	00000593          	li	a1,0
    60019048:	00078513          	mv	a0,a5
    6001904c:	818f90ef          	jal	ra,60012064 <mem_set>
    60019050:	fc843783          	ld	a5,-56(s0)
    60019054:	fa040713          	addi	a4,s0,-96
    60019058:	00b00613          	li	a2,11
    6001905c:	00070593          	mv	a1,a4
    60019060:	00078513          	mv	a0,a5
    60019064:	f91f80ef          	jal	ra,60011ff4 <mem_cpy>
    60019068:	fc843783          	ld	a5,-56(s0)
    6001906c:	00b78793          	addi	a5,a5,11
    60019070:	00800713          	li	a4,8
    60019074:	00e78023          	sb	a4,0(a5)
    60019078:	462107b7          	lui	a5,0x46210
    6001907c:	fcf42c23          	sw	a5,-40(s0)
    60019080:	fc843783          	ld	a5,-56(s0)
    60019084:	01678793          	addi	a5,a5,22 # 46210016 <_start-0x19dfffea>
    60019088:	fd842703          	lw	a4,-40(s0)
    6001908c:	0ff77713          	andi	a4,a4,255
    60019090:	00e78023          	sb	a4,0(a5)
    60019094:	fd842783          	lw	a5,-40(s0)
    60019098:	03079793          	slli	a5,a5,0x30
    6001909c:	0307d793          	srli	a5,a5,0x30
    600190a0:	0087d79b          	srliw	a5,a5,0x8
    600190a4:	03079713          	slli	a4,a5,0x30
    600190a8:	03075713          	srli	a4,a4,0x30
    600190ac:	fc843783          	ld	a5,-56(s0)
    600190b0:	01778793          	addi	a5,a5,23
    600190b4:	0ff77713          	andi	a4,a4,255
    600190b8:	00e78023          	sb	a4,0(a5)
    600190bc:	fd842783          	lw	a5,-40(s0)
    600190c0:	0107d79b          	srliw	a5,a5,0x10
    600190c4:	0007871b          	sext.w	a4,a5
    600190c8:	fc843783          	ld	a5,-56(s0)
    600190cc:	01878793          	addi	a5,a5,24
    600190d0:	0ff77713          	andi	a4,a4,255
    600190d4:	00e78023          	sb	a4,0(a5)
    600190d8:	fd842783          	lw	a5,-40(s0)
    600190dc:	0187d79b          	srliw	a5,a5,0x18
    600190e0:	0007871b          	sext.w	a4,a5
    600190e4:	fc843783          	ld	a5,-56(s0)
    600190e8:	01978793          	addi	a5,a5,25
    600190ec:	0ff77713          	andi	a4,a4,255
    600190f0:	00e78023          	sb	a4,0(a5)
    600190f4:	fb043783          	ld	a5,-80(s0)
    600190f8:	00100713          	li	a4,1
    600190fc:	00e78223          	sb	a4,4(a5)
    60019100:	fb043783          	ld	a5,-80(s0)
    60019104:	00078513          	mv	a0,a5
    60019108:	a84f90ef          	jal	ra,6001238c <sync_fs>
    6001910c:	00050793          	mv	a5,a0
    60019110:	fef42623          	sw	a5,-20(s0)
    60019114:	fec42783          	lw	a5,-20(s0)
    60019118:	00078513          	mv	a0,a5
    6001911c:	06813083          	ld	ra,104(sp)
    60019120:	06013403          	ld	s0,96(sp)
    60019124:	07010113          	addi	sp,sp,112
    60019128:	00008067          	ret

000000006001912c <get_bram_base>:
    6001912c:	ff010113          	addi	sp,sp,-16
    60019130:	00813423          	sd	s0,8(sp)
    60019134:	01010413          	addi	s0,sp,16
    60019138:	600107b7          	lui	a5,0x60010
    6001913c:	00078513          	mv	a0,a5
    60019140:	00813403          	ld	s0,8(sp)
    60019144:	01010113          	addi	sp,sp,16
    60019148:	00008067          	ret

000000006001914c <get_ddr_base>:
    6001914c:	ff010113          	addi	sp,sp,-16
    60019150:	00813423          	sd	s0,8(sp)
    60019154:	01010413          	addi	s0,sp,16
    60019158:	00100793          	li	a5,1
    6001915c:	01f79793          	slli	a5,a5,0x1f
    60019160:	00078513          	mv	a0,a5
    60019164:	00813403          	ld	s0,8(sp)
    60019168:	01010113          	addi	sp,sp,16
    6001916c:	00008067          	ret

0000000060019170 <get_flash_base>:
    60019170:	ff010113          	addi	sp,sp,-16
    60019174:	00813423          	sd	s0,8(sp)
    60019178:	01010413          	addi	s0,sp,16
    6001917c:	00000793          	li	a5,0
    60019180:	00078513          	mv	a0,a5
    60019184:	00813403          	ld	s0,8(sp)
    60019188:	01010113          	addi	sp,sp,16
    6001918c:	00008067          	ret

Disassembly of section .rodata:

000000006001a000 <.rodata>:
    6001a000:	6f72                	ld	t5,280(sp)
    6001a002:	74656b63          	bltu	a0,t1,6001a758 <FatFs+0x480>
    6001a006:	745f 6172 736e      	0x736e6172745f
    6001a00c:	6220                	ld	s0,64(a2)
    6001a00e:	20746f6f          	jal	t5,60060a14 <Stat+0x40b04>
    6001a012:	7270                	ld	a2,224(a2)
    6001a014:	6172676f          	jal	a4,60040e2a <Stat+0x20f1a>
    6001a018:	0a6d                	addi	s4,s4,27
    6001a01a:	3d0d                	addiw	s10,s10,-29
    6001a01c:	3d3d                	addiw	s10,s10,-17
    6001a01e:	3d3d                	addiw	s10,s10,-17
    6001a020:	3d3d                	addiw	s10,s10,-17
    6001a022:	3d3d                	addiw	s10,s10,-17
    6001a024:	3d3d                	addiw	s10,s10,-17
    6001a026:	3d3d                	addiw	s10,s10,-17
    6001a028:	3d3d                	addiw	s10,s10,-17
    6001a02a:	3d3d                	addiw	s10,s10,-17
    6001a02c:	3d3d                	addiw	s10,s10,-17
    6001a02e:	3d3d                	addiw	s10,s10,-17
    6001a030:	3d3d                	addiw	s10,s10,-17
    6001a032:	3d3d                	addiw	s10,s10,-17
    6001a034:	3d3d                	addiw	s10,s10,-17
    6001a036:	3d3d                	addiw	s10,s10,-17
    6001a038:	3d3d                	addiw	s10,s10,-17
    6001a03a:	3d3d                	addiw	s10,s10,-17
    6001a03c:	3d3d                	addiw	s10,s10,-17
    6001a03e:	3d3d                	addiw	s10,s10,-17
    6001a040:	0d0a                	slli	s10,s10,0x2
	...
    6001a04e:	0000                	unimp
    6001a050:	6146                	ld	sp,80(sp)
    6001a052:	6c69                	lui	s8,0x1a
    6001a054:	7420                	ld	s0,104(s0)
    6001a056:	6f6d206f          	j	600ec74c <Stat+0xcc83c>
    6001a05a:	6e75                	lui	t3,0x1d
    6001a05c:	2074                	fld	fa3,192(s0)
    6001a05e:	64204453          	0x64204453
    6001a062:	6972                	ld	s2,280(sp)
    6001a064:	6576                	ld	a0,344(sp)
    6001a066:	2172                	fld	ft2,280(sp)
    6001a068:	0d0a                	slli	s10,s10,0x2
    6001a06a:	0000                	unimp
    6001a06c:	0000                	unimp
    6001a06e:	0000                	unimp
    6001a070:	6f4c                	ld	a1,152(a4)
    6001a072:	6461                	lui	s0,0x18
    6001a074:	6220                	ld	s0,64(a2)
    6001a076:	2e746f6f          	jal	t5,60060b5c <Stat+0x40c4c>
    6001a07a:	6c65                	lui	s8,0x19
    6001a07c:	2066                	fld	ft0,88(sp)
    6001a07e:	6e69                	lui	t3,0x1a
    6001a080:	6f74                	ld	a3,216(a4)
    6001a082:	6d20                	ld	s0,88(a0)
    6001a084:	6d65                	lui	s10,0x19
    6001a086:	0a79726f          	jal	tp,600b192c <Stat+0x91a1c>
    6001a08a:	000d                	c.nop	3
    6001a08c:	0000                	unimp
    6001a08e:	0000                	unimp
    6001a090:	6f62                	ld	t5,24(sp)
    6001a092:	652e746f          	jal	s0,601016e4 <Stat+0xe17d4>
    6001a096:	666c                	ld	a1,200(a2)
	...
    6001a0a0:	6146                	ld	sp,80(sp)
    6001a0a2:	6c69                	lui	s8,0x1a
    6001a0a4:	6465                	lui	s0,0x19
    6001a0a6:	7420                	ld	s0,104(s0)
    6001a0a8:	706f206f          	j	6010c7ae <Stat+0xec89e>
    6001a0ac:	6e65                	lui	t3,0x19
    6001a0ae:	6220                	ld	s0,64(a2)
    6001a0b0:	21746f6f          	jal	t5,60060ac6 <Stat+0x40bb6>
    6001a0b4:	0d0a                	slli	s10,s10,0x2
    6001a0b6:	0000                	unimp
    6001a0b8:	6f4c                	ld	a1,152(a4)
    6001a0ba:	6461                	lui	s0,0x18
    6001a0bc:	2520                	fld	fs0,72(a0)
    6001a0be:	2064                	fld	fs1,192(s0)
    6001a0c0:	7962                	ld	s2,56(sp)
    6001a0c2:	6574                	ld	a3,200(a0)
    6001a0c4:	6f742073          	csrs	0x6f7,s0
    6001a0c8:	6d20                	ld	s0,88(a0)
    6001a0ca:	6d65                	lui	s10,0x19
    6001a0cc:	2079726f          	jal	tp,600b1ad2 <Stat+0x91bc2>
    6001a0d0:	6461                	lui	s0,0x18
    6001a0d2:	7264                	ld	s1,224(a2)
    6001a0d4:	7365                	lui	t1,0xffff9
    6001a0d6:	00002073          	csrr	zero,ustatus
    6001a0da:	0000                	unimp
    6001a0dc:	0000                	unimp
    6001a0de:	0000                	unimp
    6001a0e0:	6425                	lui	s0,0x9
    6001a0e2:	6620                	ld	s0,72(a2)
    6001a0e4:	6f72                	ld	t5,280(sp)
    6001a0e6:	206d                	0x206d
    6001a0e8:	6f62                	ld	t5,24(sp)
    6001a0ea:	622e746f          	jal	s0,6010170c <Stat+0xe17fc>
    6001a0ee:	6e69                	lui	t3,0x1a
    6001a0f0:	6f20                	ld	s0,88(a4)
    6001a0f2:	2066                	fld	ft0,88(sp)
    6001a0f4:	0000                	unimp
    6001a0f6:	0000                	unimp
    6001a0f8:	6425                	lui	s0,0x9
    6001a0fa:	6220                	ld	s0,64(a2)
    6001a0fc:	7479                	lui	s0,0xffffe
    6001a0fe:	7365                	lui	t1,0xffff9
    6001a100:	0a2e                	slli	s4,s4,0xb
    6001a102:	000d                	c.nop	3
    6001a104:	0000                	unimp
    6001a106:	0000                	unimp
    6001a108:	6f6c                	ld	a1,216(a4)
    6001a10a:	6461                	lui	s0,0x18
    6001a10c:	6520                	ld	s0,72(a0)
    6001a10e:	666c                	ld	a1,200(a2)
    6001a110:	7420                	ld	s0,104(s0)
    6001a112:	4444206f          	j	6005c556 <Stat+0x3c646>
    6001a116:	2052                	fld	ft0,272(sp)
    6001a118:	656d                	lui	a0,0x1b
    6001a11a:	6f6d                	lui	t5,0x1b
    6001a11c:	7972                	ld	s2,312(sp)
    6001a11e:	0d0a                	slli	s10,s10,0x2
	...
    6001a128:	6c65                	lui	s8,0x19
    6001a12a:	2066                	fld	ft0,88(sp)
    6001a12c:	6572                	ld	a0,280(sp)
    6001a12e:	6461                	lui	s0,0x18
    6001a130:	6620                	ld	s0,72(a2)
    6001a132:	6961                	lui	s2,0x18
    6001a134:	656c                	ld	a1,200(a0)
    6001a136:	2064                	fld	fs1,192(s0)
    6001a138:	68746977          	0x68746977
    6001a13c:	6320                	ld	s0,64(a4)
    6001a13e:	2065646f          	jal	s0,60070344 <Stat+0x50434>
    6001a142:	6425                	lui	s0,0x9
    6001a144:	0a20                	addi	s0,sp,280
    6001a146:	000d                	c.nop	3
    6001a148:	6166                	ld	sp,88(sp)
    6001a14a:	6c69                	lui	s8,0x1a
    6001a14c:	7420                	ld	s0,104(s0)
    6001a14e:	6c63206f          	j	6004c814 <Stat+0x2c904>
    6001a152:	2065736f          	jal	t1,60071358 <Stat+0x51448>
    6001a156:	6966                	ld	s2,88(sp)
    6001a158:	656c                	ld	a1,200(a0)
    6001a15a:	0a21                	addi	s4,s4,8
    6001a15c:	000d                	c.nop	3
    6001a15e:	0000                	unimp
    6001a160:	6166                	ld	sp,88(sp)
    6001a162:	6c69                	lui	s8,0x1a
    6001a164:	7420                	ld	s0,104(s0)
    6001a166:	6d75206f          	j	6006d03c <Stat+0x4d12c>
    6001a16a:	746e756f          	jal	a0,601018b0 <Stat+0xe19a0>
    6001a16e:	6420                	ld	s0,72(s0)
    6001a170:	7369                	lui	t1,0xffffa
    6001a172:	0d0a216b          	0xd0a216b
    6001a176:	0000                	unimp
    6001a178:	6f42                	ld	t5,16(sp)
    6001a17a:	7420746f          	jal	s0,600218bc <Stat+0x19ac>
    6001a17e:	6568                	ld	a0,200(a0)
    6001a180:	6c20                	ld	s0,88(s0)
    6001a182:	6564616f          	jal	sp,600607d8 <Stat+0x408c8>
    6001a186:	2064                	fld	fs1,192(s0)
    6001a188:	7270                	ld	a2,224(a2)
    6001a18a:	6172676f          	jal	a4,60040fa0 <Stat+0x21090>
    6001a18e:	2e6d                	addiw	t3,t3,27
    6001a190:	2e2e                	fld	ft8,200(sp)
    6001a192:	0d0a                	slli	s10,s10,0x2
    6001a194:	3d3d                	addiw	s10,s10,-17
    6001a196:	3d3d                	addiw	s10,s10,-17
    6001a198:	3d3d                	addiw	s10,s10,-17
    6001a19a:	3d3d                	addiw	s10,s10,-17
    6001a19c:	3d3d                	addiw	s10,s10,-17
    6001a19e:	3d3d                	addiw	s10,s10,-17
    6001a1a0:	3d3d                	addiw	s10,s10,-17
    6001a1a2:	3d3d                	addiw	s10,s10,-17
    6001a1a4:	3d3d                	addiw	s10,s10,-17
    6001a1a6:	3d3d                	addiw	s10,s10,-17
    6001a1a8:	3d3d                	addiw	s10,s10,-17
    6001a1aa:	3d3d                	addiw	s10,s10,-17
    6001a1ac:	3d3d                	addiw	s10,s10,-17
    6001a1ae:	3d3d                	addiw	s10,s10,-17
    6001a1b0:	3d3d                	addiw	s10,s10,-17
    6001a1b2:	3d3d                	addiw	s10,s10,-17
    6001a1b4:	3d3d                	addiw	s10,s10,-17
    6001a1b6:	3d3d                	addiw	s10,s10,-17
    6001a1b8:	0a3d                	addi	s4,s4,15
    6001a1ba:	000d                	c.nop	3
    6001a1bc:	1af0                	addi	a2,sp,380
    6001a1be:	6001                	0x6001
    6001a1c0:	1b04                	addi	s1,sp,432
    6001a1c2:	6001                	0x6001
    6001a1c4:	1f94                	addi	a3,sp,1008
    6001a1c6:	6001                	0x6001
    6001a1c8:	1c8c                	addi	a1,sp,624
    6001a1ca:	6001                	0x6001
    6001a1cc:	1f94                	addi	a3,sp,1008
    6001a1ce:	6001                	0x6001
    6001a1d0:	1f94                	addi	a3,sp,1008
    6001a1d2:	6001                	0x6001
    6001a1d4:	1f94                	addi	a3,sp,1008
    6001a1d6:	6001                	0x6001
    6001a1d8:	1f6c                	addi	a1,sp,956
    6001a1da:	6001                	0x6001
    6001a1dc:	1f94                	addi	a3,sp,1008
    6001a1de:	6001                	0x6001
    6001a1e0:	1f94                	addi	a3,sp,1008
    6001a1e2:	6001                	0x6001
    6001a1e4:	1f94                	addi	a3,sp,1008
    6001a1e6:	6001                	0x6001
    6001a1e8:	1f94                	addi	a3,sp,1008
    6001a1ea:	6001                	0x6001
    6001a1ec:	1f94                	addi	a3,sp,1008
    6001a1ee:	6001                	0x6001
    6001a1f0:	1f94                	addi	a3,sp,1008
    6001a1f2:	6001                	0x6001
    6001a1f4:	1f94                	addi	a3,sp,1008
    6001a1f6:	6001                	0x6001
    6001a1f8:	1f94                	addi	a3,sp,1008
    6001a1fa:	6001                	0x6001
    6001a1fc:	1f94                	addi	a3,sp,1008
    6001a1fe:	6001                	0x6001
    6001a200:	1f94                	addi	a3,sp,1008
    6001a202:	6001                	0x6001
    6001a204:	1f94                	addi	a3,sp,1008
    6001a206:	6001                	0x6001
    6001a208:	1f94                	addi	a3,sp,1008
    6001a20a:	6001                	0x6001
    6001a20c:	1f94                	addi	a3,sp,1008
    6001a20e:	6001                	0x6001
    6001a210:	1f94                	addi	a3,sp,1008
    6001a212:	6001                	0x6001
    6001a214:	1f94                	addi	a3,sp,1008
    6001a216:	6001                	0x6001
    6001a218:	1f94                	addi	a3,sp,1008
    6001a21a:	6001                	0x6001
    6001a21c:	1f94                	addi	a3,sp,1008
    6001a21e:	6001                	0x6001
    6001a220:	1f94                	addi	a3,sp,1008
    6001a222:	6001                	0x6001
    6001a224:	1f94                	addi	a3,sp,1008
    6001a226:	6001                	0x6001
    6001a228:	1f94                	addi	a3,sp,1008
    6001a22a:	6001                	0x6001
    6001a22c:	1f94                	addi	a3,sp,1008
    6001a22e:	6001                	0x6001
    6001a230:	1f94                	addi	a3,sp,1008
    6001a232:	6001                	0x6001
    6001a234:	1f94                	addi	a3,sp,1008
    6001a236:	6001                	0x6001
    6001a238:	1f94                	addi	a3,sp,1008
    6001a23a:	6001                	0x6001
    6001a23c:	1f94                	addi	a3,sp,1008
    6001a23e:	6001                	0x6001
    6001a240:	1f94                	addi	a3,sp,1008
    6001a242:	6001                	0x6001
    6001a244:	1f94                	addi	a3,sp,1008
    6001a246:	6001                	0x6001
    6001a248:	1f94                	addi	a3,sp,1008
    6001a24a:	6001                	0x6001
    6001a24c:	1f94                	addi	a3,sp,1008
    6001a24e:	6001                	0x6001
    6001a250:	1f94                	addi	a3,sp,1008
    6001a252:	6001                	0x6001
    6001a254:	1f94                	addi	a3,sp,1008
    6001a256:	6001                	0x6001
    6001a258:	1f94                	addi	a3,sp,1008
    6001a25a:	6001                	0x6001
    6001a25c:	1f94                	addi	a3,sp,1008
    6001a25e:	6001                	0x6001
    6001a260:	1f94                	addi	a3,sp,1008
    6001a262:	6001                	0x6001
    6001a264:	1f94                	addi	a3,sp,1008
    6001a266:	6001                	0x6001
    6001a268:	1f94                	addi	a3,sp,1008
    6001a26a:	6001                	0x6001
    6001a26c:	1f94                	addi	a3,sp,1008
    6001a26e:	6001                	0x6001
    6001a270:	1f94                	addi	a3,sp,1008
    6001a272:	6001                	0x6001
    6001a274:	1f94                	addi	a3,sp,1008
    6001a276:	6001                	0x6001
    6001a278:	1f94                	addi	a3,sp,1008
    6001a27a:	6001                	0x6001
    6001a27c:	1f94                	addi	a3,sp,1008
    6001a27e:	6001                	0x6001
    6001a280:	1f94                	addi	a3,sp,1008
    6001a282:	6001                	0x6001
    6001a284:	1e60                	addi	s0,sp,828
    6001a286:	6001                	0x6001
    6001a288:	1e78                	addi	a4,sp,828
    6001a28a:	6001                	0x6001
    6001a28c:	1ea8                	addi	a0,sp,888
    6001a28e:	6001                	0x6001
    6001a290:	1ed8                	addi	a4,sp,884
    6001a292:	6001                	0x6001
    6001a294:	1f34                	addi	a3,sp,952
    6001a296:	6001                	0x6001
    6001a298:	2a22                	fld	fs4,8(sp)
    6001a29a:	3b3a2c2b          	0x3b3a2c2b
    6001a29e:	3d3c                	fld	fa5,120(a0)
    6001a2a0:	3f3e                	fld	ft10,488(sp)
    6001a2a2:	7f7c5d5b          	0x7f7c5d5b
    6001a2a6:	0000                	unimp
    6001a2a8:	2a22                	fld	fs4,8(sp)
    6001a2aa:	3a2e2c2b          	0x3a2e2c2b
    6001a2ae:	3e3d3c3b          	0x3e3d3c3b
    6001a2b2:	7c5d5b3f  	0x7f7c5d5b3f

Disassembly of section .bss:

000000006001a2b8 <CardType>:
	...

000000006001a2c0 <FatFs>:
	...

000000006001a2d0 <Fsid>:
	...

000000006001a2d2 <CurrVol>:
    6001a2d2:	0000                	unimp
    6001a2d4:	0000                	unimp
	...

000000006001a2d8 <FatFs>:
	...

Disassembly of section .sdata:

000000006001ff00 <uart_base_ptr>:
    6001ff00:	1000                	addi	s0,sp,32
    6001ff02:	6000                	ld	s0,0(s0)
    6001ff04:	0000                	unimp
	...

000000006001ff08 <spi_base_ptr>:
    6001ff08:	0000                	unimp
    6001ff0a:	6002                	0x6002
    6001ff0c:	0000                	unimp
	...

000000006001ff10 <Stat>:
    6001ff10:	01    	Address 0x000000006001ff10 is out of bounds.

    6001ff14:	 

Disassembly of section .comment:

0000000000000000 <.comment>:
   0:	3a434347          	fmsub.d	ft6,ft6,ft4,ft7,rmm
   4:	2820                	fld	fs0,80(s0)
   6:	29554e47          	fmsub.s	ft8,fa0,fs5,ft5,rmm
   a:	3820                	fld	fs0,112(s0)
   c:	322e                	fld	ft4,232(sp)
   e:	302e                	fld	ft0,232(sp)
	...
