
bootrom.elf:     file format elf64-littleriscv


Disassembly of section .text:

0000000060010000 <_start>:
    60010000:	00000093          	li	ra,0
    60010004:	00000113          	li	sp,0
    60010008:	00000193          	li	gp,0
    6001000c:	00000213          	li	tp,0
    60010010:	00000293          	li	t0,0
    60010014:	00000313          	li	t1,0
    60010018:	00000393          	li	t2,0
    6001001c:	00000413          	li	s0,0
    60010020:	00000493          	li	s1,0
    60010024:	00000513          	li	a0,0
    60010028:	00000593          	li	a1,0
    6001002c:	00000613          	li	a2,0
    60010030:	00000693          	li	a3,0
    60010034:	00000713          	li	a4,0
    60010038:	00000793          	li	a5,0
    6001003c:	00000813          	li	a6,0
    60010040:	00000893          	li	a7,0
    60010044:	00000913          	li	s2,0
    60010048:	00000993          	li	s3,0
    6001004c:	00000a13          	li	s4,0
    60010050:	00000a93          	li	s5,0
    60010054:	00000b13          	li	s6,0
    60010058:	00000b93          	li	s7,0
    6001005c:	00000c13          	li	s8,0
    60010060:	00000c93          	li	s9,0
    60010064:	00000d13          	li	s10,0
    60010068:	00000d93          	li	s11,0
    6001006c:	00000e13          	li	t3,0
    60010070:	00000e93          	li	t4,0
    60010074:	00000f13          	li	t5,0
    60010078:	00000f93          	li	t6,0
    6001007c:	60010137          	lui	sp,0x60010
    60010080:	3001011b          	addiw	sp,sp,768
    60010084:	088000ef          	jal	ra,6001010c <main>
    60010088:	10500073          	wfi
    6001008c:	ffdff06f          	j	60010088 <_start+0x88>

0000000060010090 <helloworld>:
    60010090:	ff010113          	addi	sp,sp,-16 # 6000fff0 <_start-0x10>
    60010094:	00113423          	sd	ra,8(sp)
    60010098:	00813023          	sd	s0,0(sp)
    6001009c:	01010413          	addi	s0,sp,16
    600100a0:	06800513          	li	a0,104
    600100a4:	12c000ef          	jal	ra,600101d0 <uart_send>
    600100a8:	06500513          	li	a0,101
    600100ac:	124000ef          	jal	ra,600101d0 <uart_send>
    600100b0:	06c00513          	li	a0,108
    600100b4:	11c000ef          	jal	ra,600101d0 <uart_send>
    600100b8:	06c00513          	li	a0,108
    600100bc:	114000ef          	jal	ra,600101d0 <uart_send>
    600100c0:	06f00513          	li	a0,111
    600100c4:	10c000ef          	jal	ra,600101d0 <uart_send>
    600100c8:	07700513          	li	a0,119
    600100cc:	104000ef          	jal	ra,600101d0 <uart_send>
    600100d0:	06f00513          	li	a0,111
    600100d4:	0fc000ef          	jal	ra,600101d0 <uart_send>
    600100d8:	07200513          	li	a0,114
    600100dc:	0f4000ef          	jal	ra,600101d0 <uart_send>
    600100e0:	06c00513          	li	a0,108
    600100e4:	0ec000ef          	jal	ra,600101d0 <uart_send>
    600100e8:	06400513          	li	a0,100
    600100ec:	0e4000ef          	jal	ra,600101d0 <uart_send>
    600100f0:	02100513          	li	a0,33
    600100f4:	0dc000ef          	jal	ra,600101d0 <uart_send>
    600100f8:	00000013          	nop
    600100fc:	00813083          	ld	ra,8(sp)
    60010100:	00013403          	ld	s0,0(sp)
    60010104:	01010113          	addi	sp,sp,16
    60010108:	00008067          	ret

000000006001010c <main>:
    6001010c:	fe010113          	addi	sp,sp,-32
    60010110:	00113c23          	sd	ra,24(sp)
    60010114:	00813823          	sd	s0,16(sp)
    60010118:	02010413          	addi	s0,sp,32
    6001011c:	03c000ef          	jal	ra,60010158 <uart_init>
    60010120:	f71ff0ef          	jal	ra,60010090 <helloworld>
    60010124:	600107b7          	lui	a5,0x60010
    60010128:	4007b783          	ld	a5,1024(a5) # 60010400 <data_in_ddr>
    6001012c:	03700713          	li	a4,55
    60010130:	00e7a023          	sw	a4,0(a5)
    60010134:	600107b7          	lui	a5,0x60010
    60010138:	4007b783          	ld	a5,1024(a5) # 60010400 <data_in_ddr>
    6001013c:	0007a783          	lw	a5,0(a5)
    60010140:	fef42623          	sw	a5,-20(s0)
    60010144:	fec42783          	lw	a5,-20(s0)
    60010148:	0ff7f793          	andi	a5,a5,255
    6001014c:	00078513          	mv	a0,a5
    60010150:	080000ef          	jal	ra,600101d0 <uart_send>
    60010154:	ff1ff06f          	j	60010144 <main+0x38>

0000000060010158 <uart_init>:
    60010158:	ff010113          	addi	sp,sp,-16
    6001015c:	00813423          	sd	s0,8(sp)
    60010160:	01010413          	addi	s0,sp,16
    60010164:	600107b7          	lui	a5,0x60010
    60010168:	4087b783          	ld	a5,1032(a5) # 60010408 <uart_base_ptr>
    6001016c:	00c78793          	addi	a5,a5,12
    60010170:	08000713          	li	a4,128
    60010174:	00e7a023          	sw	a4,0(a5)
    60010178:	600107b7          	lui	a5,0x60010
    6001017c:	4087b783          	ld	a5,1032(a5) # 60010408 <uart_base_ptr>
    60010180:	01000713          	li	a4,16
    60010184:	00e7a023          	sw	a4,0(a5)
    60010188:	600107b7          	lui	a5,0x60010
    6001018c:	4087b783          	ld	a5,1032(a5) # 60010408 <uart_base_ptr>
    60010190:	00478793          	addi	a5,a5,4
    60010194:	0007a023          	sw	zero,0(a5)
    60010198:	600107b7          	lui	a5,0x60010
    6001019c:	4087b783          	ld	a5,1032(a5) # 60010408 <uart_base_ptr>
    600101a0:	00c78793          	addi	a5,a5,12
    600101a4:	00b00713          	li	a4,11
    600101a8:	00e7a023          	sw	a4,0(a5)
    600101ac:	600107b7          	lui	a5,0x60010
    600101b0:	4087b783          	ld	a5,1032(a5) # 60010408 <uart_base_ptr>
    600101b4:	00478793          	addi	a5,a5,4
    600101b8:	00100713          	li	a4,1
    600101bc:	00e7a023          	sw	a4,0(a5)
    600101c0:	00000013          	nop
    600101c4:	00813403          	ld	s0,8(sp)
    600101c8:	01010113          	addi	sp,sp,16
    600101cc:	00008067          	ret

00000000600101d0 <uart_send>:
    600101d0:	fe010113          	addi	sp,sp,-32
    600101d4:	00813c23          	sd	s0,24(sp)
    600101d8:	02010413          	addi	s0,sp,32
    600101dc:	00050793          	mv	a5,a0
    600101e0:	fef407a3          	sb	a5,-17(s0)
    600101e4:	00000013          	nop
    600101e8:	600107b7          	lui	a5,0x60010
    600101ec:	4087b783          	ld	a5,1032(a5) # 60010408 <uart_base_ptr>
    600101f0:	01478793          	addi	a5,a5,20
    600101f4:	0007a783          	lw	a5,0(a5)
    600101f8:	0007879b          	sext.w	a5,a5
    600101fc:	0407f793          	andi	a5,a5,64
    60010200:	0007879b          	sext.w	a5,a5
    60010204:	fe0782e3          	beqz	a5,600101e8 <uart_send+0x18>
    60010208:	600107b7          	lui	a5,0x60010
    6001020c:	4087b783          	ld	a5,1032(a5) # 60010408 <uart_base_ptr>
    60010210:	fef44703          	lbu	a4,-17(s0)
    60010214:	0007071b          	sext.w	a4,a4
    60010218:	00e7a023          	sw	a4,0(a5)
    6001021c:	00000013          	nop
    60010220:	01813403          	ld	s0,24(sp)
    60010224:	02010113          	addi	sp,sp,32
    60010228:	00008067          	ret
