
boot.elf:     file format elf64-littleriscv


Disassembly of section .text:

0000000080000000 <_start>:
    80000000:	00000093          	li	ra,0
    80000004:	00000113          	li	sp,0
    80000008:	00000193          	li	gp,0
    8000000c:	00000213          	li	tp,0
    80000010:	00000293          	li	t0,0
    80000014:	00000313          	li	t1,0
    80000018:	00000393          	li	t2,0
    8000001c:	00000413          	li	s0,0
    80000020:	00000493          	li	s1,0
    80000024:	00000513          	li	a0,0
    80000028:	00000593          	li	a1,0
    8000002c:	00000613          	li	a2,0
    80000030:	00000693          	li	a3,0
    80000034:	00000713          	li	a4,0
    80000038:	00000793          	li	a5,0
    8000003c:	00000813          	li	a6,0
    80000040:	00000893          	li	a7,0
    80000044:	00000913          	li	s2,0
    80000048:	00000993          	li	s3,0
    8000004c:	00000a13          	li	s4,0
    80000050:	00000a93          	li	s5,0
    80000054:	00000b13          	li	s6,0
    80000058:	00000b93          	li	s7,0
    8000005c:	00000c13          	li	s8,0
    80000060:	00000c93          	li	s9,0
    80000064:	00000d13          	li	s10,0
    80000068:	00000d93          	li	s11,0
    8000006c:	00000e13          	li	t3,0
    80000070:	00000e93          	li	t4,0
    80000074:	00000f13          	li	t5,0
    80000078:	00000f93          	li	t6,0
    8000007c:	00040137          	lui	sp,0x40
    80000080:	0011011b          	addiw	sp,sp,1
    80000084:	00d11113          	slli	sp,sp,0xd
    80000088:	f0010113          	addi	sp,sp,-256 # 3ff00 <_start-0x7ffc0100>
    8000008c:	00c000ef          	jal	ra,80000098 <main>
    80000090:	10500073          	wfi
    80000094:	ffdff06f          	j	80000090 <_start+0x90>

0000000080000098 <main>:
    80000098:	ff010113          	addi	sp,sp,-16
    8000009c:	00113423          	sd	ra,8(sp)
    800000a0:	00813023          	sd	s0,0(sp)
    800000a4:	01010413          	addi	s0,sp,16
    800000a8:	028000ef          	jal	ra,800000d0 <uart_init>
    800000ac:	00000593          	li	a1,0
    800000b0:	00000517          	auipc	a0,0x0
    800000b4:	2a850513          	addi	a0,a0,680 # 80000358 <printNum+0x6c>
    800000b8:	140000ef          	jal	ra,800001f8 <printf>
    800000bc:	00000013          	nop
    800000c0:	00813083          	ld	ra,8(sp)
    800000c4:	00013403          	ld	s0,0(sp)
    800000c8:	01010113          	addi	sp,sp,16
    800000cc:	00008067          	ret

00000000800000d0 <uart_init>:
    800000d0:	ff010113          	addi	sp,sp,-16
    800000d4:	00813423          	sd	s0,8(sp)
    800000d8:	01010413          	addi	s0,sp,16
    800000dc:	00002797          	auipc	a5,0x2
    800000e0:	f2478793          	addi	a5,a5,-220 # 80002000 <uart_base_ptr>
    800000e4:	0007b783          	ld	a5,0(a5)
    800000e8:	00c78793          	addi	a5,a5,12
    800000ec:	08000713          	li	a4,128
    800000f0:	00e7a023          	sw	a4,0(a5)
    800000f4:	00002797          	auipc	a5,0x2
    800000f8:	f0c78793          	addi	a5,a5,-244 # 80002000 <uart_base_ptr>
    800000fc:	0007b783          	ld	a5,0(a5)
    80000100:	01000713          	li	a4,16
    80000104:	00e7a023          	sw	a4,0(a5)
    80000108:	00002797          	auipc	a5,0x2
    8000010c:	ef878793          	addi	a5,a5,-264 # 80002000 <uart_base_ptr>
    80000110:	0007b783          	ld	a5,0(a5)
    80000114:	00478793          	addi	a5,a5,4
    80000118:	0007a023          	sw	zero,0(a5)
    8000011c:	00002797          	auipc	a5,0x2
    80000120:	ee478793          	addi	a5,a5,-284 # 80002000 <uart_base_ptr>
    80000124:	0007b783          	ld	a5,0(a5)
    80000128:	00c78793          	addi	a5,a5,12
    8000012c:	00b00713          	li	a4,11
    80000130:	00e7a023          	sw	a4,0(a5)
    80000134:	00002797          	auipc	a5,0x2
    80000138:	ecc78793          	addi	a5,a5,-308 # 80002000 <uart_base_ptr>
    8000013c:	0007b783          	ld	a5,0(a5)
    80000140:	00478793          	addi	a5,a5,4
    80000144:	00100713          	li	a4,1
    80000148:	00e7a023          	sw	a4,0(a5)
    8000014c:	00000013          	nop
    80000150:	00813403          	ld	s0,8(sp)
    80000154:	01010113          	addi	sp,sp,16
    80000158:	00008067          	ret

000000008000015c <uart_send>:
    8000015c:	fe010113          	addi	sp,sp,-32
    80000160:	00813c23          	sd	s0,24(sp)
    80000164:	02010413          	addi	s0,sp,32
    80000168:	00050793          	mv	a5,a0
    8000016c:	fef407a3          	sb	a5,-17(s0)
    80000170:	00000013          	nop
    80000174:	00002797          	auipc	a5,0x2
    80000178:	e8c78793          	addi	a5,a5,-372 # 80002000 <uart_base_ptr>
    8000017c:	0007b783          	ld	a5,0(a5)
    80000180:	01478793          	addi	a5,a5,20
    80000184:	0007a783          	lw	a5,0(a5)
    80000188:	0007879b          	sext.w	a5,a5
    8000018c:	0407f793          	andi	a5,a5,64
    80000190:	0007879b          	sext.w	a5,a5
    80000194:	fe0780e3          	beqz	a5,80000174 <uart_send+0x18>
    80000198:	00002797          	auipc	a5,0x2
    8000019c:	e6878793          	addi	a5,a5,-408 # 80002000 <uart_base_ptr>
    800001a0:	0007b783          	ld	a5,0(a5)
    800001a4:	fef44703          	lbu	a4,-17(s0)
    800001a8:	0007071b          	sext.w	a4,a4
    800001ac:	00e7a023          	sw	a4,0(a5)
    800001b0:	00000013          	nop
    800001b4:	01813403          	ld	s0,24(sp)
    800001b8:	02010113          	addi	sp,sp,32
    800001bc:	00008067          	ret

00000000800001c0 <putch>:
    800001c0:	fe010113          	addi	sp,sp,-32
    800001c4:	00113c23          	sd	ra,24(sp)
    800001c8:	00813823          	sd	s0,16(sp)
    800001cc:	02010413          	addi	s0,sp,32
    800001d0:	00050793          	mv	a5,a0
    800001d4:	fef407a3          	sb	a5,-17(s0)
    800001d8:	fef44783          	lbu	a5,-17(s0)
    800001dc:	00078513          	mv	a0,a5
    800001e0:	f7dff0ef          	jal	ra,8000015c <uart_send>
    800001e4:	00000013          	nop
    800001e8:	01813083          	ld	ra,24(sp)
    800001ec:	01013403          	ld	s0,16(sp)
    800001f0:	02010113          	addi	sp,sp,32
    800001f4:	00008067          	ret

00000000800001f8 <printf>:
    800001f8:	fd010113          	addi	sp,sp,-48
    800001fc:	02113423          	sd	ra,40(sp)
    80000200:	02813023          	sd	s0,32(sp)
    80000204:	03010413          	addi	s0,sp,48
    80000208:	fca43c23          	sd	a0,-40(s0)
    8000020c:	fcb43823          	sd	a1,-48(s0)
    80000210:	fe042623          	sw	zero,-20(s0)
    80000214:	0b00006f          	j	800002c4 <printf+0xcc>
    80000218:	fec42783          	lw	a5,-20(s0)
    8000021c:	fd843703          	ld	a4,-40(s0)
    80000220:	00f707b3          	add	a5,a4,a5
    80000224:	0007c783          	lbu	a5,0(a5)
    80000228:	00078713          	mv	a4,a5
    8000022c:	02500793          	li	a5,37
    80000230:	02f70663          	beq	a4,a5,8000025c <printf+0x64>
    80000234:	fec42783          	lw	a5,-20(s0)
    80000238:	0017871b          	addiw	a4,a5,1
    8000023c:	fee42623          	sw	a4,-20(s0)
    80000240:	00078713          	mv	a4,a5
    80000244:	fd843783          	ld	a5,-40(s0)
    80000248:	00e787b3          	add	a5,a5,a4
    8000024c:	0007c783          	lbu	a5,0(a5)
    80000250:	00078513          	mv	a0,a5
    80000254:	f6dff0ef          	jal	ra,800001c0 <putch>
    80000258:	06c0006f          	j	800002c4 <printf+0xcc>
    8000025c:	fec42783          	lw	a5,-20(s0)
    80000260:	0017879b          	addiw	a5,a5,1
    80000264:	fef42623          	sw	a5,-20(s0)
    80000268:	fec42783          	lw	a5,-20(s0)
    8000026c:	fd843703          	ld	a4,-40(s0)
    80000270:	00f707b3          	add	a5,a4,a5
    80000274:	0007c783          	lbu	a5,0(a5)
    80000278:	0007879b          	sext.w	a5,a5
    8000027c:	00078713          	mv	a4,a5
    80000280:	06400793          	li	a5,100
    80000284:	02f71863          	bne	a4,a5,800002b4 <printf+0xbc>
    80000288:	fd043783          	ld	a5,-48(s0)
    8000028c:	00079863          	bnez	a5,8000029c <printf+0xa4>
    80000290:	03000513          	li	a0,48
    80000294:	f2dff0ef          	jal	ra,800001c0 <putch>
    80000298:	00c0006f          	j	800002a4 <printf+0xac>
    8000029c:	fd043503          	ld	a0,-48(s0)
    800002a0:	04c000ef          	jal	ra,800002ec <printNum>
    800002a4:	fec42783          	lw	a5,-20(s0)
    800002a8:	0017879b          	addiw	a5,a5,1
    800002ac:	fef42623          	sw	a5,-20(s0)
    800002b0:	0140006f          	j	800002c4 <printf+0xcc>
    800002b4:	fec42783          	lw	a5,-20(s0)
    800002b8:	0017879b          	addiw	a5,a5,1
    800002bc:	fef42623          	sw	a5,-20(s0)
    800002c0:	00000013          	nop
    800002c4:	fec42783          	lw	a5,-20(s0)
    800002c8:	fd843703          	ld	a4,-40(s0)
    800002cc:	00f707b3          	add	a5,a4,a5
    800002d0:	0007c783          	lbu	a5,0(a5)
    800002d4:	f40792e3          	bnez	a5,80000218 <printf+0x20>
    800002d8:	00000013          	nop
    800002dc:	02813083          	ld	ra,40(sp)
    800002e0:	02013403          	ld	s0,32(sp)
    800002e4:	03010113          	addi	sp,sp,48
    800002e8:	00008067          	ret

00000000800002ec <printNum>:
    800002ec:	fe010113          	addi	sp,sp,-32
    800002f0:	00113c23          	sd	ra,24(sp)
    800002f4:	00813823          	sd	s0,16(sp)
    800002f8:	02010413          	addi	s0,sp,32
    800002fc:	fea43423          	sd	a0,-24(s0)
    80000300:	fe843783          	ld	a5,-24(s0)
    80000304:	02078e63          	beqz	a5,80000340 <printNum+0x54>
    80000308:	fe843703          	ld	a4,-24(s0)
    8000030c:	00a00793          	li	a5,10
    80000310:	02f757b3          	divu	a5,a4,a5
    80000314:	00078513          	mv	a0,a5
    80000318:	fd5ff0ef          	jal	ra,800002ec <printNum>
    8000031c:	fe843703          	ld	a4,-24(s0)
    80000320:	00a00793          	li	a5,10
    80000324:	02f777b3          	remu	a5,a4,a5
    80000328:	0ff7f793          	andi	a5,a5,255
    8000032c:	0307879b          	addiw	a5,a5,48
    80000330:	0ff7f793          	andi	a5,a5,255
    80000334:	00078513          	mv	a0,a5
    80000338:	e89ff0ef          	jal	ra,800001c0 <putch>
    8000033c:	0080006f          	j	80000344 <printNum+0x58>
    80000340:	00000013          	nop
    80000344:	01813083          	ld	ra,24(sp)
    80000348:	01013403          	ld	s0,16(sp)
    8000034c:	02010113          	addi	sp,sp,32
    80000350:	00008067          	ret

Disassembly of section .rodata:

0000000080000358 <.rodata>:
    80000358:	696e                	ld	s2,216(sp)
    8000035a:	77206563          	bltu	zero,s2,80000ac4 <printNum+0x7d8>
    8000035e:	2c6b726f          	jal	tp,800b7624 <uart_base_ptr+0xb5624>
    80000362:	6e20                	ld	s0,88(a2)
    80000364:	7565                	lui	a0,0xffff9
    80000366:	7274                	ld	a3,224(a2)
    80000368:	6e69                	lui	t3,0x1a
    8000036a:	000d0a6f          	jal	s4,800d036a <uart_base_ptr+0xce36a>

Disassembly of section .sdata:

0000000080002000 <uart_base_ptr>:
    80002000:	1000                	addi	s0,sp,32
    80002002:	6000                	ld	s0,0(s0)
    80002004:	0000                	unimp
	...

Disassembly of section .comment:

0000000000000000 <.comment>:
   0:	3a434347          	fmsub.d	ft6,ft6,ft4,ft7,rmm
   4:	2820                	fld	fs0,80(s0)
   6:	29554e47          	fmsub.s	ft8,fa0,fs5,ft5,rmm
   a:	3820                	fld	fs0,112(s0)
   c:	322e                	fld	ft4,232(sp)
   e:	302e                	fld	ft0,232(sp)
	...
