
boot.elf:     file format elf64-littleriscv


Disassembly of section .text:

0000000080000000 <_start>:
    80000000:	00000093          	li	ra,0
    80000004:	00000113          	li	sp,0
    80000008:	00000193          	li	gp,0
    8000000c:	00000213          	li	tp,0
    80000010:	00000293          	li	t0,0
    80000014:	00000313          	li	t1,0
    80000018:	00000393          	li	t2,0
    8000001c:	00000413          	li	s0,0
    80000020:	00000493          	li	s1,0
    80000024:	00000513          	li	a0,0
    80000028:	00000593          	li	a1,0
    8000002c:	00000613          	li	a2,0
    80000030:	00000693          	li	a3,0
    80000034:	00000713          	li	a4,0
    80000038:	00000793          	li	a5,0
    8000003c:	00000813          	li	a6,0
    80000040:	00000893          	li	a7,0
    80000044:	00000913          	li	s2,0
    80000048:	00000993          	li	s3,0
    8000004c:	00000a13          	li	s4,0
    80000050:	00000a93          	li	s5,0
    80000054:	00000b13          	li	s6,0
    80000058:	00000b93          	li	s7,0
    8000005c:	00000c13          	li	s8,0
    80000060:	00000c93          	li	s9,0
    80000064:	00000d13          	li	s10,0
    80000068:	00000d93          	li	s11,0
    8000006c:	00000e13          	li	t3,0
    80000070:	00000e93          	li	t4,0
    80000074:	00000f13          	li	t5,0
    80000078:	00000f93          	li	t6,0
    8000007c:	00040137          	lui	sp,0x40
    80000080:	0011011b          	addiw	sp,sp,1
    80000084:	00d11113          	slli	sp,sp,0xd
    80000088:	f0010113          	addi	sp,sp,-256 # 3ff00 <_start-0x7ffc0100>
    8000008c:	00c000ef          	jal	ra,80000098 <main>
    80000090:	10500073          	wfi
    80000094:	ffdff06f          	j	80000090 <_start+0x90>

0000000080000098 <main>:
    80000098:	fd010113          	addi	sp,sp,-48
    8000009c:	02113423          	sd	ra,40(sp)
    800000a0:	02813023          	sd	s0,32(sp)
    800000a4:	03010413          	addi	s0,sp,48
    800000a8:	0ac000ef          	jal	ra,80000154 <uart_init>
    800000ac:	00000593          	li	a1,0
    800000b0:	00000517          	auipc	a0,0x0
    800000b4:	38850513          	addi	a0,a0,904 # 80000438 <dprintf+0x148>
    800000b8:	238000ef          	jal	ra,800002f0 <dprintf>
    800000bc:	4000b7b7          	lui	a5,0x4000b
    800000c0:	00179793          	slli	a5,a5,0x1
    800000c4:	fef43023          	sd	a5,-32(s0)
    800000c8:	fe043783          	ld	a5,-32(s0)
    800000cc:	fcf43c23          	sd	a5,-40(s0)
    800000d0:	fe042623          	sw	zero,-20(s0)
    800000d4:	05c0006f          	j	80000130 <main+0x98>
    800000d8:	fec42783          	lw	a5,-20(s0)
    800000dc:	00279793          	slli	a5,a5,0x2
    800000e0:	fd843703          	ld	a4,-40(s0)
    800000e4:	00f707b3          	add	a5,a4,a5
    800000e8:	00078593          	mv	a1,a5
    800000ec:	00000517          	auipc	a0,0x0
    800000f0:	36450513          	addi	a0,a0,868 # 80000450 <dprintf+0x160>
    800000f4:	1fc000ef          	jal	ra,800002f0 <dprintf>
    800000f8:	fec42783          	lw	a5,-20(s0)
    800000fc:	00279793          	slli	a5,a5,0x2
    80000100:	fd843703          	ld	a4,-40(s0)
    80000104:	00f707b3          	add	a5,a4,a5
    80000108:	0007a783          	lw	a5,0(a5) # 4000b000 <_start-0x3fff5000>
    8000010c:	02079793          	slli	a5,a5,0x20
    80000110:	0207d793          	srli	a5,a5,0x20
    80000114:	00078593          	mv	a1,a5
    80000118:	00000517          	auipc	a0,0x0
    8000011c:	34050513          	addi	a0,a0,832 # 80000458 <dprintf+0x168>
    80000120:	1d0000ef          	jal	ra,800002f0 <dprintf>
    80000124:	fec42783          	lw	a5,-20(s0)
    80000128:	0017879b          	addiw	a5,a5,1
    8000012c:	fef42623          	sw	a5,-20(s0)
    80000130:	fec42783          	lw	a5,-20(s0)
    80000134:	0007871b          	sext.w	a4,a5
    80000138:	01300793          	li	a5,19
    8000013c:	f8e7dee3          	bge	a5,a4,800000d8 <main+0x40>
    80000140:	00000013          	nop
    80000144:	02813083          	ld	ra,40(sp)
    80000148:	02013403          	ld	s0,32(sp)
    8000014c:	03010113          	addi	sp,sp,48
    80000150:	00008067          	ret

0000000080000154 <uart_init>:
    80000154:	ff010113          	addi	sp,sp,-16
    80000158:	00813423          	sd	s0,8(sp)
    8000015c:	01010413          	addi	s0,sp,16
    80000160:	00020797          	auipc	a5,0x20
    80000164:	ea078793          	addi	a5,a5,-352 # 80020000 <uart_base_ptr>
    80000168:	0007b783          	ld	a5,0(a5)
    8000016c:	00c78793          	addi	a5,a5,12
    80000170:	08000713          	li	a4,128
    80000174:	00e7a023          	sw	a4,0(a5)
    80000178:	00020797          	auipc	a5,0x20
    8000017c:	e8878793          	addi	a5,a5,-376 # 80020000 <uart_base_ptr>
    80000180:	0007b783          	ld	a5,0(a5)
    80000184:	01000713          	li	a4,16
    80000188:	00e7a023          	sw	a4,0(a5)
    8000018c:	00020797          	auipc	a5,0x20
    80000190:	e7478793          	addi	a5,a5,-396 # 80020000 <uart_base_ptr>
    80000194:	0007b783          	ld	a5,0(a5)
    80000198:	00478793          	addi	a5,a5,4
    8000019c:	0007a023          	sw	zero,0(a5)
    800001a0:	00020797          	auipc	a5,0x20
    800001a4:	e6078793          	addi	a5,a5,-416 # 80020000 <uart_base_ptr>
    800001a8:	0007b783          	ld	a5,0(a5)
    800001ac:	00c78793          	addi	a5,a5,12
    800001b0:	00b00713          	li	a4,11
    800001b4:	00e7a023          	sw	a4,0(a5)
    800001b8:	00020797          	auipc	a5,0x20
    800001bc:	e4878793          	addi	a5,a5,-440 # 80020000 <uart_base_ptr>
    800001c0:	0007b783          	ld	a5,0(a5)
    800001c4:	00478793          	addi	a5,a5,4
    800001c8:	00100713          	li	a4,1
    800001cc:	00e7a023          	sw	a4,0(a5)
    800001d0:	00000013          	nop
    800001d4:	00813403          	ld	s0,8(sp)
    800001d8:	01010113          	addi	sp,sp,16
    800001dc:	00008067          	ret

00000000800001e0 <uart_send>:
    800001e0:	fe010113          	addi	sp,sp,-32
    800001e4:	00813c23          	sd	s0,24(sp)
    800001e8:	02010413          	addi	s0,sp,32
    800001ec:	00050793          	mv	a5,a0
    800001f0:	fef407a3          	sb	a5,-17(s0)
    800001f4:	00000013          	nop
    800001f8:	00020797          	auipc	a5,0x20
    800001fc:	e0878793          	addi	a5,a5,-504 # 80020000 <uart_base_ptr>
    80000200:	0007b783          	ld	a5,0(a5)
    80000204:	01478793          	addi	a5,a5,20
    80000208:	0007a783          	lw	a5,0(a5)
    8000020c:	0007879b          	sext.w	a5,a5
    80000210:	0407f793          	andi	a5,a5,64
    80000214:	0007879b          	sext.w	a5,a5
    80000218:	fe0780e3          	beqz	a5,800001f8 <uart_send+0x18>
    8000021c:	00020797          	auipc	a5,0x20
    80000220:	de478793          	addi	a5,a5,-540 # 80020000 <uart_base_ptr>
    80000224:	0007b783          	ld	a5,0(a5)
    80000228:	fef44703          	lbu	a4,-17(s0)
    8000022c:	0007071b          	sext.w	a4,a4
    80000230:	00e7a023          	sw	a4,0(a5)
    80000234:	00000013          	nop
    80000238:	01813403          	ld	s0,24(sp)
    8000023c:	02010113          	addi	sp,sp,32
    80000240:	00008067          	ret

0000000080000244 <dputch>:
    80000244:	fe010113          	addi	sp,sp,-32
    80000248:	00113c23          	sd	ra,24(sp)
    8000024c:	00813823          	sd	s0,16(sp)
    80000250:	02010413          	addi	s0,sp,32
    80000254:	00050793          	mv	a5,a0
    80000258:	fef407a3          	sb	a5,-17(s0)
    8000025c:	fef44783          	lbu	a5,-17(s0)
    80000260:	00078513          	mv	a0,a5
    80000264:	f7dff0ef          	jal	ra,800001e0 <uart_send>
    80000268:	00000013          	nop
    8000026c:	01813083          	ld	ra,24(sp)
    80000270:	01013403          	ld	s0,16(sp)
    80000274:	02010113          	addi	sp,sp,32
    80000278:	00008067          	ret

000000008000027c <dprintNum>:
    8000027c:	fe010113          	addi	sp,sp,-32
    80000280:	00113c23          	sd	ra,24(sp)
    80000284:	00813823          	sd	s0,16(sp)
    80000288:	02010413          	addi	s0,sp,32
    8000028c:	fea43423          	sd	a0,-24(s0)
    80000290:	feb43023          	sd	a1,-32(s0)
    80000294:	fe843783          	ld	a5,-24(s0)
    80000298:	04078263          	beqz	a5,800002dc <dprintNum+0x60>
    8000029c:	fe843703          	ld	a4,-24(s0)
    800002a0:	fe043783          	ld	a5,-32(s0)
    800002a4:	02f757b3          	divu	a5,a4,a5
    800002a8:	fe043583          	ld	a1,-32(s0)
    800002ac:	00078513          	mv	a0,a5
    800002b0:	fcdff0ef          	jal	ra,8000027c <dprintNum>
    800002b4:	fe843703          	ld	a4,-24(s0)
    800002b8:	fe043783          	ld	a5,-32(s0)
    800002bc:	02f777b3          	remu	a5,a4,a5
    800002c0:	00000717          	auipc	a4,0x0
    800002c4:	1a070713          	addi	a4,a4,416 # 80000460 <dprintf+0x170>
    800002c8:	00f707b3          	add	a5,a4,a5
    800002cc:	0007c783          	lbu	a5,0(a5)
    800002d0:	00078513          	mv	a0,a5
    800002d4:	f71ff0ef          	jal	ra,80000244 <dputch>
    800002d8:	0080006f          	j	800002e0 <dprintNum+0x64>
    800002dc:	00000013          	nop
    800002e0:	01813083          	ld	ra,24(sp)
    800002e4:	01013403          	ld	s0,16(sp)
    800002e8:	02010113          	addi	sp,sp,32
    800002ec:	00008067          	ret

00000000800002f0 <dprintf>:
    800002f0:	fd010113          	addi	sp,sp,-48
    800002f4:	02113423          	sd	ra,40(sp)
    800002f8:	02813023          	sd	s0,32(sp)
    800002fc:	03010413          	addi	s0,sp,48
    80000300:	fca43c23          	sd	a0,-40(s0)
    80000304:	fcb43823          	sd	a1,-48(s0)
    80000308:	fe042623          	sw	zero,-20(s0)
    8000030c:	1000006f          	j	8000040c <dprintf+0x11c>
    80000310:	fec42783          	lw	a5,-20(s0)
    80000314:	fd843703          	ld	a4,-40(s0)
    80000318:	00f707b3          	add	a5,a4,a5
    8000031c:	0007c783          	lbu	a5,0(a5)
    80000320:	00078713          	mv	a4,a5
    80000324:	02500793          	li	a5,37
    80000328:	02f70663          	beq	a4,a5,80000354 <dprintf+0x64>
    8000032c:	fec42783          	lw	a5,-20(s0)
    80000330:	0017871b          	addiw	a4,a5,1
    80000334:	fee42623          	sw	a4,-20(s0)
    80000338:	00078713          	mv	a4,a5
    8000033c:	fd843783          	ld	a5,-40(s0)
    80000340:	00e787b3          	add	a5,a5,a4
    80000344:	0007c783          	lbu	a5,0(a5)
    80000348:	00078513          	mv	a0,a5
    8000034c:	ef9ff0ef          	jal	ra,80000244 <dputch>
    80000350:	0bc0006f          	j	8000040c <dprintf+0x11c>
    80000354:	fec42783          	lw	a5,-20(s0)
    80000358:	0017879b          	addiw	a5,a5,1
    8000035c:	fef42623          	sw	a5,-20(s0)
    80000360:	fec42783          	lw	a5,-20(s0)
    80000364:	fd843703          	ld	a4,-40(s0)
    80000368:	00f707b3          	add	a5,a4,a5
    8000036c:	0007c783          	lbu	a5,0(a5)
    80000370:	0007871b          	sext.w	a4,a5
    80000374:	00070693          	mv	a3,a4
    80000378:	06400793          	li	a5,100
    8000037c:	00f68863          	beq	a3,a5,8000038c <dprintf+0x9c>
    80000380:	06800793          	li	a5,104
    80000384:	02f70c63          	beq	a4,a5,800003bc <dprintf+0xcc>
    80000388:	0740006f          	j	800003fc <dprintf+0x10c>
    8000038c:	fd043783          	ld	a5,-48(s0)
    80000390:	00079863          	bnez	a5,800003a0 <dprintf+0xb0>
    80000394:	03000513          	li	a0,48
    80000398:	eadff0ef          	jal	ra,80000244 <dputch>
    8000039c:	0100006f          	j	800003ac <dprintf+0xbc>
    800003a0:	00a00593          	li	a1,10
    800003a4:	fd043503          	ld	a0,-48(s0)
    800003a8:	ed5ff0ef          	jal	ra,8000027c <dprintNum>
    800003ac:	fec42783          	lw	a5,-20(s0)
    800003b0:	0017879b          	addiw	a5,a5,1
    800003b4:	fef42623          	sw	a5,-20(s0)
    800003b8:	0540006f          	j	8000040c <dprintf+0x11c>
    800003bc:	03000513          	li	a0,48
    800003c0:	e85ff0ef          	jal	ra,80000244 <dputch>
    800003c4:	07800513          	li	a0,120
    800003c8:	e7dff0ef          	jal	ra,80000244 <dputch>
    800003cc:	fd043783          	ld	a5,-48(s0)
    800003d0:	00079863          	bnez	a5,800003e0 <dprintf+0xf0>
    800003d4:	03000513          	li	a0,48
    800003d8:	e6dff0ef          	jal	ra,80000244 <dputch>
    800003dc:	0100006f          	j	800003ec <dprintf+0xfc>
    800003e0:	01000593          	li	a1,16
    800003e4:	fd043503          	ld	a0,-48(s0)
    800003e8:	e95ff0ef          	jal	ra,8000027c <dprintNum>
    800003ec:	fec42783          	lw	a5,-20(s0)
    800003f0:	0017879b          	addiw	a5,a5,1
    800003f4:	fef42623          	sw	a5,-20(s0)
    800003f8:	0140006f          	j	8000040c <dprintf+0x11c>
    800003fc:	fec42783          	lw	a5,-20(s0)
    80000400:	0017879b          	addiw	a5,a5,1
    80000404:	fef42623          	sw	a5,-20(s0)
    80000408:	00000013          	nop
    8000040c:	fec42783          	lw	a5,-20(s0)
    80000410:	fd843703          	ld	a4,-40(s0)
    80000414:	00f707b3          	add	a5,a4,a5
    80000418:	0007c783          	lbu	a5,0(a5)
    8000041c:	ee079ae3          	bnez	a5,80000310 <dprintf+0x20>
    80000420:	00000013          	nop
    80000424:	02813083          	ld	ra,40(sp)
    80000428:	02013403          	ld	s0,32(sp)
    8000042c:	03010113          	addi	sp,sp,48
    80000430:	00008067          	ret

Disassembly of section .rodata:

0000000080000438 <.rodata>:
    80000438:	696e                	ld	s2,216(sp)
    8000043a:	77206563          	bltu	zero,s2,80000ba4 <dprintf+0x8b4>
    8000043e:	2c6b726f          	jal	tp,800b7704 <uart_base_ptr+0x97704>
    80000442:	6e20                	ld	s0,88(a2)
    80000444:	7565                	lui	a0,0xffff9
    80000446:	7274                	ld	a3,224(a2)
    80000448:	6e69                	lui	t3,0x1a
    8000044a:	000d0a6f          	jal	s4,800d044a <uart_base_ptr+0xb044a>
    8000044e:	0000                	unimp
    80000450:	6825                	lui	a6,0x9
    80000452:	203a                	fld	ft0,392(sp)
    80000454:	0000                	unimp
    80000456:	0000                	unimp
    80000458:	6825                	lui	a6,0x9
    8000045a:	0d0a                	slli	s10,s10,0x2
    8000045c:	0000                	unimp
    8000045e:	0000                	unimp
    80000460:	3130                	fld	fa2,96(a0)
    80000462:	3332                	fld	ft6,296(sp)
    80000464:	3534                	fld	fa3,104(a0)
    80000466:	3736                	fld	fa4,360(sp)
    80000468:	3938                	fld	fa4,112(a0)
    8000046a:	6261                	lui	tp,0x18
    8000046c:	66656463          	bltu	a0,t1,80000ad4 <dprintf+0x7e4>
	...

Disassembly of section .dtb:

0000000080016000 <_dtb>:
    80016000:	0dd0                	addi	a2,sp,724
    80016002:	edfe                	sd	t6,216(sp)
    80016004:	0000                	unimp
    80016006:	5d08                	lw	a0,56(a0)
    80016008:	0000                	unimp
    8001600a:	3800                	fld	fs0,48(s0)
    8001600c:	0000                	unimp
    8001600e:	b006                	fsd	ft1,32(sp)
    80016010:	0000                	unimp
    80016012:	2800                	fld	fs0,16(s0)
    80016014:	0000                	unimp
    80016016:	1100                	addi	s0,sp,160
    80016018:	0000                	unimp
    8001601a:	1000                	addi	s0,sp,32
    8001601c:	0000                	unimp
    8001601e:	0000                	unimp
    80016020:	0000                	unimp
    80016022:	ad01                	j	80016632 <_dtb+0x632>
    80016024:	0000                	unimp
    80016026:	7806                	ld	a6,96(sp)
	...
    80016038:	0000                	unimp
    8001603a:	0100                	addi	s0,sp,128
    8001603c:	0000                	unimp
    8001603e:	0000                	unimp
    80016040:	0000                	unimp
    80016042:	0300                	addi	s0,sp,384
    80016044:	0000                	unimp
    80016046:	0400                	addi	s0,sp,512
    80016048:	0000                	unimp
    8001604a:	0000                	unimp
    8001604c:	0000                	unimp
    8001604e:	0100                	addi	s0,sp,128
    80016050:	0000                	unimp
    80016052:	0300                	addi	s0,sp,384
    80016054:	0000                	unimp
    80016056:	0400                	addi	s0,sp,512
    80016058:	0000                	unimp
    8001605a:	0f00                	addi	s0,sp,912
    8001605c:	0000                	unimp
    8001605e:	0100                	addi	s0,sp,128
    80016060:	0000                	unimp
    80016062:	0300                	addi	s0,sp,384
    80016064:	0000                	unimp
    80016066:	2100                	fld	fs0,0(a0)
    80016068:	0000                	unimp
    8001606a:	1b00                	addi	s0,sp,432
    8001606c:	7266                	ld	tp,120(sp)
    8001606e:	6565                	lui	a0,0x19
    80016070:	70696863          	bltu	s2,t1,80016780 <_dtb+0x780>
    80016074:	6f722c73          	csrrs	s8,0x6f7,tp
    80016078:	74656b63          	bltu	a0,t1,800167ce <_dtb+0x7ce>
    8001607c:	70696863          	bltu	s2,t1,8001678c <_dtb+0x78c>
    80016080:	752d                	lui	a0,0xfffeb
    80016082:	6b6e                	ld	s6,216(sp)
    80016084:	6f6e                	ld	t5,216(sp)
    80016086:	642d6e77          	0x642d6e77
    8001608a:	7665                	lui	a2,0xffff9
    8001608c:	0000                	unimp
    8001608e:	0000                	unimp
    80016090:	0000                	unimp
    80016092:	0300                	addi	s0,sp,384
    80016094:	0000                	unimp
    80016096:	1d00                	addi	s0,sp,688
    80016098:	0000                	unimp
    8001609a:	2600                	fld	fs0,8(a2)
    8001609c:	7266                	ld	tp,120(sp)
    8001609e:	6565                	lui	a0,0x19
    800160a0:	70696863          	bltu	s2,t1,800167b0 <_dtb+0x7b0>
    800160a4:	6f722c73          	csrrs	s8,0x6f7,tp
    800160a8:	74656b63          	bltu	a0,t1,800167fe <_dtb+0x7fe>
    800160ac:	70696863          	bltu	s2,t1,800167bc <_dtb+0x7bc>
    800160b0:	752d                	lui	a0,0xfffeb
    800160b2:	6b6e                	ld	s6,216(sp)
    800160b4:	6f6e                	ld	t5,216(sp)
    800160b6:	00006e77          	0x6e77
    800160ba:	0000                	unimp
    800160bc:	0000                	unimp
    800160be:	0100                	addi	s0,sp,128
    800160c0:	73757063          	bgeu	a0,s7,800167e0 <_dtb+0x7e0>
    800160c4:	0000                	unimp
    800160c6:	0000                	unimp
    800160c8:	0000                	unimp
    800160ca:	0300                	addi	s0,sp,384
    800160cc:	0000                	unimp
    800160ce:	0400                	addi	s0,sp,512
    800160d0:	0000                	unimp
    800160d2:	0000                	unimp
    800160d4:	0000                	unimp
    800160d6:	0100                	addi	s0,sp,128
    800160d8:	0000                	unimp
    800160da:	0300                	addi	s0,sp,384
    800160dc:	0000                	unimp
    800160de:	0400                	addi	s0,sp,512
    800160e0:	0000                	unimp
    800160e2:	0f00                	addi	s0,sp,912
    800160e4:	0000                	unimp
    800160e6:	0000                	unimp
    800160e8:	0000                	unimp
    800160ea:	0100                	addi	s0,sp,128
    800160ec:	40757063          	bgeu	a0,t2,800164ec <_dtb+0x4ec>
    800160f0:	0030                	addi	a2,sp,8
    800160f2:	0000                	unimp
    800160f4:	0000                	unimp
    800160f6:	0300                	addi	s0,sp,384
    800160f8:	0000                	unimp
    800160fa:	0400                	addi	s0,sp,512
    800160fc:	0000                	unimp
    800160fe:	2c00                	fld	fs0,24(s0)
    80016100:	0000                	unimp
    80016102:	0000                	unimp
    80016104:	0000                	unimp
    80016106:	0300                	addi	s0,sp,384
    80016108:	0000                	unimp
    8001610a:	1500                	addi	s0,sp,672
    8001610c:	0000                	unimp
    8001610e:	1b00                	addi	s0,sp,432
    80016110:	69666973          	csrrsi	s2,0x696,12
    80016114:	6576                	ld	a0,344(sp)
    80016116:	722c                	ld	a1,96(a2)
    80016118:	656b636f          	jal	t1,800cc76e <uart_base_ptr+0xac76e>
    8001611c:	3074                	fld	fa3,224(s0)
    8001611e:	7200                	ld	s0,32(a2)
    80016120:	7369                	lui	t1,0xffffa
    80016122:	00007663          	bgeu	zero,zero,8001612e <_dtb+0x12e>
    80016126:	0000                	unimp
    80016128:	0000                	unimp
    8001612a:	0300                	addi	s0,sp,384
    8001612c:	0000                	unimp
    8001612e:	0400                	addi	s0,sp,512
    80016130:	0000                	unimp
    80016132:	3c00                	fld	fs0,56(s0)
    80016134:	0000                	unimp
    80016136:	4000                	lw	s0,0(s0)
    80016138:	0000                	unimp
    8001613a:	0300                	addi	s0,sp,384
    8001613c:	0000                	unimp
    8001613e:	0400                	addi	s0,sp,512
    80016140:	0000                	unimp
    80016142:	4f00                	lw	s0,24(a4)
    80016144:	0000                	unimp
    80016146:	4000                	lw	s0,0(s0)
    80016148:	0000                	unimp
    8001614a:	0300                	addi	s0,sp,384
    8001614c:	0000                	unimp
    8001614e:	0400                	addi	s0,sp,512
    80016150:	0000                	unimp
    80016152:	5c00                	lw	s0,56(s0)
    80016154:	0000                	unimp
    80016156:	0040                	addi	s0,sp,4
    80016158:	0000                	unimp
    8001615a:	0300                	addi	s0,sp,384
    8001615c:	0000                	unimp
    8001615e:	0400                	addi	s0,sp,512
    80016160:	0000                	unimp
    80016162:	6900                	ld	s0,16(a0)
    80016164:	0000                	unimp
    80016166:	0100                	addi	s0,sp,128
    80016168:	0000                	unimp
    8001616a:	0300                	addi	s0,sp,384
    8001616c:	0000                	unimp
    8001616e:	0400                	addi	s0,sp,512
    80016170:	0000                	unimp
    80016172:	7400                	ld	s0,40(s0)
    80016174:	0000                	unimp
    80016176:	2000                	fld	fs0,0(s0)
    80016178:	0000                	unimp
    8001617a:	0300                	addi	s0,sp,384
    8001617c:	0000                	unimp
    8001617e:	0400                	addi	s0,sp,512
    80016180:	0000                	unimp
    80016182:	7f00                	ld	s0,56(a4)
    80016184:	00757063          	bgeu	a0,t2,80016184 <_dtb+0x184>
    80016188:	0000                	unimp
    8001618a:	0300                	addi	s0,sp,384
    8001618c:	0000                	unimp
    8001618e:	0400                	addi	s0,sp,512
    80016190:	0000                	unimp
    80016192:	8b00                	0x8b00
    80016194:	0000                	unimp
    80016196:	4000                	lw	s0,0(s0)
    80016198:	0000                	unimp
    8001619a:	0300                	addi	s0,sp,384
    8001619c:	0000                	unimp
    8001619e:	0400                	addi	s0,sp,512
    800161a0:	0000                	unimp
    800161a2:	9e00                	0x9e00
    800161a4:	0000                	unimp
    800161a6:	4000                	lw	s0,0(s0)
    800161a8:	0000                	unimp
    800161aa:	0300                	addi	s0,sp,384
    800161ac:	0000                	unimp
    800161ae:	0400                	addi	s0,sp,512
    800161b0:	0000                	unimp
    800161b2:	ab00                	fsd	fs0,16(a4)
    800161b4:	0000                	unimp
    800161b6:	0040                	addi	s0,sp,4
    800161b8:	0000                	unimp
    800161ba:	0300                	addi	s0,sp,384
    800161bc:	0000                	unimp
    800161be:	0400                	addi	s0,sp,512
    800161c0:	0000                	unimp
    800161c2:	b800                	fsd	fs0,48(s0)
    800161c4:	0000                	unimp
    800161c6:	0100                	addi	s0,sp,128
    800161c8:	0000                	unimp
    800161ca:	0300                	addi	s0,sp,384
    800161cc:	0000                	unimp
    800161ce:	0400                	addi	s0,sp,512
    800161d0:	0000                	unimp
    800161d2:	c300                	sw	s0,0(a4)
    800161d4:	0000                	unimp
    800161d6:	2000                	fld	fs0,0(s0)
    800161d8:	0000                	unimp
    800161da:	0300                	addi	s0,sp,384
    800161dc:	0000                	unimp
    800161de:	0b00                	addi	s0,sp,400
    800161e0:	0000                	unimp
    800161e2:	ce00                	sw	s0,24(a2)
    800161e4:	6972                	ld	s2,280(sp)
    800161e6:	2c766373          	csrrsi	t1,0x2c7,12
    800161ea:	39337673          	csrrci	a2,0x393,6
    800161ee:	0000                	unimp
    800161f0:	0000                	unimp
    800161f2:	0300                	addi	s0,sp,384
    800161f4:	0000                	unimp
    800161f6:	0400                	addi	s0,sp,512
    800161f8:	0000                	unimp
    800161fa:	d700                	sw	s0,40(a4)
    800161fc:	0000                	unimp
    800161fe:	0100                	addi	s0,sp,128
    80016200:	0000                	unimp
    80016202:	0300                	addi	s0,sp,384
    80016204:	0000                	unimp
    80016206:	0400                	addi	s0,sp,512
    80016208:	0000                	unimp
    8001620a:	e800                	sd	s0,16(s0)
    8001620c:	0000                	unimp
    8001620e:	0000                	unimp
    80016210:	0000                	unimp
    80016212:	0300                	addi	s0,sp,384
    80016214:	0000                	unimp
    80016216:	0b00                	addi	s0,sp,400
    80016218:	0000                	unimp
    8001621a:	ec00                	sd	s0,24(s0)
    8001621c:	7672                	ld	a2,312(sp)
    8001621e:	3436                	fld	fs0,360(sp)
    80016220:	6d69                	lui	s10,0x1a
    80016222:	6661                	lui	a2,0x18
    80016224:	6364                	ld	s1,192(a4)
    80016226:	0000                	unimp
    80016228:	0000                	unimp
    8001622a:	0300                	addi	s0,sp,384
    8001622c:	0000                	unimp
    8001622e:	0500                	addi	s0,sp,640
    80016230:	0000                	unimp
    80016232:	f600                	sd	s0,40(a2)
    80016234:	79616b6f          	jal	s6,8002c9ca <uart_base_ptr+0xc9ca>
    80016238:	0000                	unimp
    8001623a:	0000                	unimp
    8001623c:	0000                	unimp
    8001623e:	0300                	addi	s0,sp,384
    80016240:	0000                	unimp
    80016242:	0400                	addi	s0,sp,512
    80016244:	0000                	unimp
    80016246:	fd00                	sd	s0,56(a0)
    80016248:	0f00                	addi	s0,sp,912
    8001624a:	4042                	0x4042
    8001624c:	0000                	unimp
    8001624e:	0300                	addi	s0,sp,384
    80016250:	0000                	unimp
    80016252:	0000                	unimp
    80016254:	0000                	unimp
    80016256:	1001                	c.nop	-32
    80016258:	0000                	unimp
    8001625a:	0100                	addi	s0,sp,128
    8001625c:	6e69                	lui	t3,0x1a
    8001625e:	6574                	ld	a3,200(a0)
    80016260:	7272                	ld	tp,312(sp)
    80016262:	7075                	c.lui	zero,0xffffd
    80016264:	2d74                	fld	fa3,216(a0)
    80016266:	746e6f63          	bltu	t3,t1,800169c4 <_dtb+0x9c4>
    8001626a:	6f72                	ld	t5,280(sp)
    8001626c:	6c6c                	ld	a1,216(s0)
    8001626e:	7265                	lui	tp,0xffff9
    80016270:	0000                	unimp
    80016272:	0000                	unimp
    80016274:	0000                	unimp
    80016276:	0300                	addi	s0,sp,384
    80016278:	0000                	unimp
    8001627a:	0400                	addi	s0,sp,512
    8001627c:	0000                	unimp
    8001627e:	1a01                	addi	s4,s4,-32
    80016280:	0000                	unimp
    80016282:	0100                	addi	s0,sp,128
    80016284:	0000                	unimp
    80016286:	0300                	addi	s0,sp,384
    80016288:	0000                	unimp
    8001628a:	0f00                	addi	s0,sp,912
    8001628c:	0000                	unimp
    8001628e:	1b00                	addi	s0,sp,432
    80016290:	6972                	ld	s2,280(sp)
    80016292:	2c766373          	csrrsi	t1,0x2c7,12
    80016296:	2d757063          	bgeu	a0,s7,80016556 <_dtb+0x556>
    8001629a:	6e69                	lui	t3,0x1a
    8001629c:	6374                	ld	a3,192(a4)
    8001629e:	0000                	unimp
    800162a0:	0000                	unimp
    800162a2:	0300                	addi	s0,sp,384
    800162a4:	0000                	unimp
    800162a6:	0000                	unimp
    800162a8:	0000                	unimp
    800162aa:	2b01                	sext.w	s6,s6
    800162ac:	0000                	unimp
    800162ae:	0300                	addi	s0,sp,384
    800162b0:	0000                	unimp
    800162b2:	0400                	addi	s0,sp,512
    800162b4:	0000                	unimp
    800162b6:	4001                	c.li	zero,0
    800162b8:	0000                	unimp
    800162ba:	0200                	addi	s0,sp,256
    800162bc:	0000                	unimp
    800162be:	0300                	addi	s0,sp,384
    800162c0:	0000                	unimp
    800162c2:	0400                	addi	s0,sp,512
    800162c4:	0000                	unimp
    800162c6:	4601                	li	a2,0
    800162c8:	0000                	unimp
    800162ca:	0200                	addi	s0,sp,256
    800162cc:	0000                	unimp
    800162ce:	0200                	addi	s0,sp,256
    800162d0:	0000                	unimp
    800162d2:	0200                	addi	s0,sp,256
    800162d4:	0000                	unimp
    800162d6:	0200                	addi	s0,sp,256
    800162d8:	0000                	unimp
    800162da:	0100                	addi	s0,sp,128
    800162dc:	656d                	lui	a0,0x1b
    800162de:	6f6d                	lui	t5,0x1b
    800162e0:	7972                	ld	s2,312(sp)
    800162e2:	3840                	fld	fs0,176(s0)
    800162e4:	3030                	fld	fa2,96(s0)
    800162e6:	3030                	fld	fa2,96(s0)
    800162e8:	3030                	fld	fa2,96(s0)
    800162ea:	0030                	addi	a2,sp,8
    800162ec:	0000                	unimp
    800162ee:	0300                	addi	s0,sp,384
    800162f0:	0000                	unimp
    800162f2:	0700                	addi	s0,sp,896
    800162f4:	0000                	unimp
    800162f6:	7f00                	ld	s0,56(a4)
    800162f8:	656d                	lui	a0,0x1b
    800162fa:	6f6d                	lui	t5,0x1b
    800162fc:	7972                	ld	s2,312(sp)
    800162fe:	0000                	unimp
    80016300:	0000                	unimp
    80016302:	0300                	addi	s0,sp,384
    80016304:	0000                	unimp
    80016306:	0800                	addi	s0,sp,16
    80016308:	0000                	unimp
    8001630a:	e800                	sd	s0,16(s0)
    8001630c:	0080                	addi	s0,sp,64
    8001630e:	0000                	unimp
    80016310:	0010                	0x10
    80016312:	0000                	unimp
    80016314:	0000                	unimp
    80016316:	0300                	addi	s0,sp,384
    80016318:	0000                	unimp
    8001631a:	0400                	addi	s0,sp,512
    8001631c:	0000                	unimp
    8001631e:	4001                	c.li	zero,0
    80016320:	0000                	unimp
    80016322:	0100                	addi	s0,sp,128
    80016324:	0000                	unimp
    80016326:	0300                	addi	s0,sp,384
    80016328:	0000                	unimp
    8001632a:	0400                	addi	s0,sp,512
    8001632c:	0000                	unimp
    8001632e:	4601                	li	a2,0
    80016330:	0000                	unimp
    80016332:	0100                	addi	s0,sp,128
    80016334:	0000                	unimp
    80016336:	0200                	addi	s0,sp,256
    80016338:	0000                	unimp
    8001633a:	0100                	addi	s0,sp,128
    8001633c:	00636f73          	csrrsi	t5,0x6,6
    80016340:	0000                	unimp
    80016342:	0300                	addi	s0,sp,384
    80016344:	0000                	unimp
    80016346:	0400                	addi	s0,sp,512
    80016348:	0000                	unimp
    8001634a:	0000                	unimp
    8001634c:	0000                	unimp
    8001634e:	0100                	addi	s0,sp,128
    80016350:	0000                	unimp
    80016352:	0300                	addi	s0,sp,384
    80016354:	0000                	unimp
    80016356:	0400                	addi	s0,sp,512
    80016358:	0000                	unimp
    8001635a:	0f00                	addi	s0,sp,912
    8001635c:	0000                	unimp
    8001635e:	0100                	addi	s0,sp,128
    80016360:	0000                	unimp
    80016362:	0300                	addi	s0,sp,384
    80016364:	0000                	unimp
    80016366:	2c00                	fld	fs0,24(s0)
    80016368:	0000                	unimp
    8001636a:	1b00                	addi	s0,sp,432
    8001636c:	7266                	ld	tp,120(sp)
    8001636e:	6565                	lui	a0,0x19
    80016370:	70696863          	bltu	s2,t1,80016a80 <_dtb+0xa80>
    80016374:	6f722c73          	csrrs	s8,0x6f7,tp
    80016378:	74656b63          	bltu	a0,t1,80016ace <_dtb+0xace>
    8001637c:	70696863          	bltu	s2,t1,80016a8c <_dtb+0xa8c>
    80016380:	752d                	lui	a0,0xfffeb
    80016382:	6b6e                	ld	s6,216(sp)
    80016384:	6f6e                	ld	t5,216(sp)
    80016386:	732d6e77          	0x732d6e77
    8001638a:	7300636f          	jal	t1,8001caba <_dtb+0x6aba>
    8001638e:	6d69                	lui	s10,0x1a
    80016390:	6c70                	ld	a2,216(s0)
    80016392:	2d65                	addiw	s10,s10,25
    80016394:	7562                	ld	a0,56(sp)
    80016396:	00000073          	ecall
    8001639a:	0300                	addi	s0,sp,384
    8001639c:	0000                	unimp
    8001639e:	0000                	unimp
    800163a0:	0000                	unimp
    800163a2:	4e01                	li	t3,0
    800163a4:	0000                	unimp
    800163a6:	0100                	addi	s0,sp,128
    800163a8:	6e696c63          	bltu	s2,t1,80016aa0 <_dtb+0xaa0>
    800163ac:	4074                	lw	a3,68(s0)
    800163ae:	3032                	fld	ft0,296(sp)
    800163b0:	3030                	fld	fa2,96(s0)
    800163b2:	3030                	fld	fa2,96(s0)
    800163b4:	0030                	addi	a2,sp,8
    800163b6:	0000                	unimp
    800163b8:	0000                	unimp
    800163ba:	0300                	addi	s0,sp,384
    800163bc:	0000                	unimp
    800163be:	0d00                	addi	s0,sp,656
    800163c0:	0000                	unimp
    800163c2:	1b00                	addi	s0,sp,432
    800163c4:	6972                	ld	s2,280(sp)
    800163c6:	2c766373          	csrrsi	t1,0x2c7,12
    800163ca:	6e696c63          	bltu	s2,t1,80016ac2 <_dtb+0xac2>
    800163ce:	3074                	fld	fa3,224(s0)
    800163d0:	0000                	unimp
    800163d2:	0000                	unimp
    800163d4:	0000                	unimp
    800163d6:	0300                	addi	s0,sp,384
    800163d8:	0000                	unimp
    800163da:	1000                	addi	s0,sp,32
    800163dc:	0000                	unimp
    800163de:	5501                	li	a0,-32
    800163e0:	0000                	unimp
    800163e2:	0200                	addi	s0,sp,256
    800163e4:	0000                	unimp
    800163e6:	0300                	addi	s0,sp,384
    800163e8:	0000                	unimp
    800163ea:	0200                	addi	s0,sp,256
    800163ec:	0000                	unimp
    800163ee:	0700                	addi	s0,sp,896
    800163f0:	0000                	unimp
    800163f2:	0300                	addi	s0,sp,384
    800163f4:	0000                	unimp
    800163f6:	0800                	addi	s0,sp,16
    800163f8:	0000                	unimp
    800163fa:	e800                	sd	s0,16(s0)
    800163fc:	0002                	c.slli64	zero
    800163fe:	0000                	unimp
    80016400:	0100                	addi	s0,sp,128
    80016402:	0000                	unimp
    80016404:	0000                	unimp
    80016406:	0300                	addi	s0,sp,384
    80016408:	0000                	unimp
    8001640a:	0800                	addi	s0,sp,16
    8001640c:	0000                	unimp
    8001640e:	6901                	0x6901
    80016410:	746e6f63          	bltu	t3,t1,80016b6e <_dtb+0xb6e>
    80016414:	6f72                	ld	t5,280(sp)
    80016416:	006c                	addi	a1,sp,12
    80016418:	0000                	unimp
    8001641a:	0200                	addi	s0,sp,256
    8001641c:	0000                	unimp
    8001641e:	0100                	addi	s0,sp,128
    80016420:	6564                	ld	s1,200(a0)
    80016422:	7562                	ld	a0,56(sp)
    80016424:	6f632d67          	0x6f632d67
    80016428:	746e                	ld	s0,248(sp)
    8001642a:	6f72                	ld	t5,280(sp)
    8001642c:	6c6c                	ld	a1,216(s0)
    8001642e:	7265                	lui	tp,0xffff9
    80016430:	3040                	fld	fs0,160(s0)
    80016432:	0000                	unimp
    80016434:	0000                	unimp
    80016436:	0300                	addi	s0,sp,384
    80016438:	0000                	unimp
    8001643a:	2100                	fld	fs0,0(a0)
    8001643c:	0000                	unimp
    8001643e:	1b00                	addi	s0,sp,432
    80016440:	69666973          	csrrsi	s2,0x696,12
    80016444:	6576                	ld	a0,344(sp)
    80016446:	642c                	ld	a1,72(s0)
    80016448:	6265                	lui	tp,0x19
    8001644a:	6775                	lui	a4,0x1d
    8001644c:	302d                	0x302d
    8001644e:	3331                	addiw	t1,t1,-20
    80016450:	7200                	ld	s0,32(a2)
    80016452:	7369                	lui	t1,0xffffa
    80016454:	642c7663          	bgeu	s8,sp,80016aa0 <_dtb+0xaa0>
    80016458:	6265                	lui	tp,0x19
    8001645a:	6775                	lui	a4,0x1d
    8001645c:	302d                	0x302d
    8001645e:	3331                	addiw	t1,t1,-20
    80016460:	0000                	unimp
    80016462:	0000                	unimp
    80016464:	0000                	unimp
    80016466:	0300                	addi	s0,sp,384
    80016468:	0000                	unimp
    8001646a:	0800                	addi	s0,sp,16
    8001646c:	0000                	unimp
    8001646e:	5501                	li	a0,-32
    80016470:	0000                	unimp
    80016472:	0200                	addi	s0,sp,256
    80016474:	0000                	unimp
    80016476:	ffff                	0xffff
    80016478:	0000                	unimp
    8001647a:	0300                	addi	s0,sp,384
    8001647c:	0000                	unimp
    8001647e:	0800                	addi	s0,sp,16
    80016480:	0000                	unimp
    80016482:	e800                	sd	s0,16(s0)
    80016484:	0000                	unimp
    80016486:	0000                	unimp
    80016488:	0000                	unimp
    8001648a:	0010                	0x10
    8001648c:	0000                	unimp
    8001648e:	0300                	addi	s0,sp,384
    80016490:	0000                	unimp
    80016492:	0800                	addi	s0,sp,16
    80016494:	0000                	unimp
    80016496:	6901                	0x6901
    80016498:	746e6f63          	bltu	t3,t1,80016bf6 <_dtb+0xbf6>
    8001649c:	6f72                	ld	t5,280(sp)
    8001649e:	006c                	addi	a1,sp,12
    800164a0:	0000                	unimp
    800164a2:	0200                	addi	s0,sp,256
    800164a4:	0000                	unimp
    800164a6:	0100                	addi	s0,sp,128
    800164a8:	7265                	lui	tp,0xffff9
    800164aa:	6f72                	ld	t5,280(sp)
    800164ac:	2d72                	fld	fs10,280(sp)
    800164ae:	6564                	ld	s1,200(a0)
    800164b0:	6976                	ld	s2,344(sp)
    800164b2:	33406563          	bltu	zero,s4,800167dc <_dtb+0x7dc>
    800164b6:	3030                	fld	fa2,96(s0)
    800164b8:	0030                	addi	a2,sp,8
    800164ba:	0000                	unimp
    800164bc:	0000                	unimp
    800164be:	0300                	addi	s0,sp,384
    800164c0:	0000                	unimp
    800164c2:	0e00                	addi	s0,sp,784
    800164c4:	0000                	unimp
    800164c6:	1b00                	addi	s0,sp,432
    800164c8:	69666973          	csrrsi	s2,0x696,12
    800164cc:	6576                	ld	a0,344(sp)
    800164ce:	652c                	ld	a1,72(a0)
    800164d0:	7272                	ld	tp,312(sp)
    800164d2:	0030726f          	jal	tp,8001dcd4 <_dtb+0x7cd4>
    800164d6:	0000                	unimp
    800164d8:	0000                	unimp
    800164da:	0300                	addi	s0,sp,384
    800164dc:	0000                	unimp
    800164de:	0800                	addi	s0,sp,16
    800164e0:	0000                	unimp
    800164e2:	e800                	sd	s0,16(s0)
    800164e4:	0000                	unimp
    800164e6:	0030                	addi	a2,sp,8
    800164e8:	0000                	unimp
    800164ea:	0010                	0x10
    800164ec:	0000                	unimp
    800164ee:	0200                	addi	s0,sp,256
    800164f0:	0000                	unimp
    800164f2:	0100                	addi	s0,sp,128
    800164f4:	7865                	lui	a6,0xffff9
    800164f6:	6574                	ld	a3,200(a0)
    800164f8:	6e72                	ld	t3,280(sp)
    800164fa:	6c61                	lui	s8,0x18
    800164fc:	692d                	lui	s2,0xb
    800164fe:	746e                	ld	s0,248(sp)
    80016500:	7265                	lui	tp,0xffff9
    80016502:	7572                	ld	a0,312(sp)
    80016504:	7470                	ld	a2,232(s0)
    80016506:	00000073          	ecall
    8001650a:	0300                	addi	s0,sp,384
    8001650c:	0000                	unimp
    8001650e:	0400                	addi	s0,sp,512
    80016510:	0000                	unimp
    80016512:	7301                	lui	t1,0xfffe0
    80016514:	0000                	unimp
    80016516:	0300                	addi	s0,sp,384
    80016518:	0000                	unimp
    8001651a:	0300                	addi	s0,sp,384
    8001651c:	0000                	unimp
    8001651e:	0800                	addi	s0,sp,16
    80016520:	0000                	unimp
    80016522:	8401                	c.srai64	s0
    80016524:	0000                	unimp
    80016526:	0100                	addi	s0,sp,128
    80016528:	0000                	unimp
    8001652a:	0200                	addi	s0,sp,256
    8001652c:	0000                	unimp
    8001652e:	0200                	addi	s0,sp,256
    80016530:	0000                	unimp
    80016532:	0100                	addi	s0,sp,128
    80016534:	6e69                	lui	t3,0x1a
    80016536:	6574                	ld	a3,200(a0)
    80016538:	7272                	ld	tp,312(sp)
    8001653a:	7075                	c.lui	zero,0xffffd
    8001653c:	2d74                	fld	fa3,216(a0)
    8001653e:	746e6f63          	bltu	t3,t1,80016c9c <_dtb+0xc9c>
    80016542:	6f72                	ld	t5,280(sp)
    80016544:	6c6c                	ld	a1,216(s0)
    80016546:	7265                	lui	tp,0xffff9
    80016548:	6340                	ld	s0,128(a4)
    8001654a:	3030                	fld	fa2,96(s0)
    8001654c:	3030                	fld	fa2,96(s0)
    8001654e:	3030                	fld	fa2,96(s0)
    80016550:	0000                	unimp
    80016552:	0000                	unimp
    80016554:	0000                	unimp
    80016556:	0300                	addi	s0,sp,384
    80016558:	0000                	unimp
    8001655a:	0400                	addi	s0,sp,512
    8001655c:	0000                	unimp
    8001655e:	1a01                	addi	s4,s4,-32
    80016560:	0000                	unimp
    80016562:	0100                	addi	s0,sp,128
    80016564:	0000                	unimp
    80016566:	0300                	addi	s0,sp,384
    80016568:	0000                	unimp
    8001656a:	0c00                	addi	s0,sp,528
    8001656c:	0000                	unimp
    8001656e:	1b00                	addi	s0,sp,432
    80016570:	6972                	ld	s2,280(sp)
    80016572:	2c766373          	csrrsi	t1,0x2c7,12
    80016576:	6c70                	ld	a2,216(s0)
    80016578:	6369                	lui	t1,0x1a
    8001657a:	0030                	addi	a2,sp,8
    8001657c:	0000                	unimp
    8001657e:	0300                	addi	s0,sp,384
    80016580:	0000                	unimp
    80016582:	0000                	unimp
    80016584:	0000                	unimp
    80016586:	2b01                	sext.w	s6,s6
    80016588:	0000                	unimp
    8001658a:	0300                	addi	s0,sp,384
    8001658c:	0000                	unimp
    8001658e:	1000                	addi	s0,sp,32
    80016590:	0000                	unimp
    80016592:	5501                	li	a0,-32
    80016594:	0000                	unimp
    80016596:	0200                	addi	s0,sp,256
    80016598:	0000                	unimp
    8001659a:	0b00                	addi	s0,sp,400
    8001659c:	0000                	unimp
    8001659e:	0200                	addi	s0,sp,256
    800165a0:	0000                	unimp
    800165a2:	0900                	addi	s0,sp,144
    800165a4:	0000                	unimp
    800165a6:	0300                	addi	s0,sp,384
    800165a8:	0000                	unimp
    800165aa:	0800                	addi	s0,sp,16
    800165ac:	0000                	unimp
    800165ae:	e800                	sd	s0,16(s0)
    800165b0:	000c                	0xc
    800165b2:	0000                	unimp
    800165b4:	0004                	0x4
    800165b6:	0000                	unimp
    800165b8:	0000                	unimp
    800165ba:	0300                	addi	s0,sp,384
    800165bc:	0000                	unimp
    800165be:	0800                	addi	s0,sp,16
    800165c0:	0000                	unimp
    800165c2:	6901                	0x6901
    800165c4:	746e6f63          	bltu	t3,t1,80016d22 <_dtb+0xd22>
    800165c8:	6f72                	ld	t5,280(sp)
    800165ca:	006c                	addi	a1,sp,12
    800165cc:	0000                	unimp
    800165ce:	0300                	addi	s0,sp,384
    800165d0:	0000                	unimp
    800165d2:	0400                	addi	s0,sp,512
    800165d4:	0000                	unimp
    800165d6:	8f01                	sub	a4,a4,s0
    800165d8:	0000                	unimp
    800165da:	0300                	addi	s0,sp,384
    800165dc:	0000                	unimp
    800165de:	0300                	addi	s0,sp,384
    800165e0:	0000                	unimp
    800165e2:	0400                	addi	s0,sp,512
    800165e4:	0000                	unimp
    800165e6:	a201                	j	800166e6 <_dtb+0x6e6>
    800165e8:	0000                	unimp
    800165ea:	0200                	addi	s0,sp,256
    800165ec:	0000                	unimp
    800165ee:	0300                	addi	s0,sp,384
    800165f0:	0000                	unimp
    800165f2:	0400                	addi	s0,sp,512
    800165f4:	0000                	unimp
    800165f6:	4001                	c.li	zero,0
    800165f8:	0000                	unimp
    800165fa:	0300                	addi	s0,sp,384
    800165fc:	0000                	unimp
    800165fe:	0300                	addi	s0,sp,384
    80016600:	0000                	unimp
    80016602:	0400                	addi	s0,sp,512
    80016604:	0000                	unimp
    80016606:	4601                	li	a2,0
    80016608:	0000                	unimp
    8001660a:	0300                	addi	s0,sp,384
    8001660c:	0000                	unimp
    8001660e:	0200                	addi	s0,sp,256
    80016610:	0000                	unimp
    80016612:	0100                	addi	s0,sp,128
    80016614:	6175                	addi	sp,sp,368
    80016616:	7472                	ld	s0,312(sp)
    80016618:	3640                	fld	fs0,168(a2)
    8001661a:	3030                	fld	fa2,96(s0)
    8001661c:	3130                	fld	fa2,96(a0)
    8001661e:	3030                	fld	fa2,96(s0)
    80016620:	0030                	addi	a2,sp,8
    80016622:	0000                	unimp
    80016624:	0000                	unimp
    80016626:	0300                	addi	s0,sp,384
    80016628:	0000                	unimp
    8001662a:	0900                	addi	s0,sp,144
    8001662c:	0000                	unimp
    8001662e:	1b00                	addi	s0,sp,432
    80016630:	736e                	ld	t1,248(sp)
    80016632:	3631                	addiw	a2,a2,-20
    80016634:	3535                	addiw	a0,a0,-19
    80016636:	6130                	ld	a2,64(a0)
    80016638:	0000                	unimp
    8001663a:	0000                	unimp
    8001663c:	0000                	unimp
    8001663e:	0300                	addi	s0,sp,384
    80016640:	0000                	unimp
    80016642:	0800                	addi	s0,sp,16
    80016644:	0000                	unimp
    80016646:	e800                	sd	s0,16(s0)
    80016648:	0060                	addi	s0,sp,12
    8001664a:	0010                	0x10
    8001664c:	0000                	unimp
    8001664e:	0010                	0x10
    80016650:	0000                	unimp
    80016652:	0200                	addi	s0,sp,256
    80016654:	0000                	unimp
    80016656:	0100                	addi	s0,sp,128
    80016658:	6f72                	ld	t5,280(sp)
    8001665a:	406d                	c.li	zero,27
    8001665c:	3031                	0x3031
    8001665e:	3030                	fld	fa2,96(s0)
    80016660:	0030                	addi	a2,sp,8
    80016662:	0000                	unimp
    80016664:	0000                	unimp
    80016666:	0300                	addi	s0,sp,384
    80016668:	0000                	unimp
    8001666a:	0c00                	addi	s0,sp,528
    8001666c:	0000                	unimp
    8001666e:	1b00                	addi	s0,sp,432
    80016670:	69666973          	csrrsi	s2,0x696,12
    80016674:	6576                	ld	a0,344(sp)
    80016676:	722c                	ld	a1,96(a2)
    80016678:	00306d6f          	jal	s10,8001ce7a <_dtb+0x6e7a>
    8001667c:	0000                	unimp
    8001667e:	0300                	addi	s0,sp,384
    80016680:	0000                	unimp
    80016682:	0800                	addi	s0,sp,16
    80016684:	0000                	unimp
    80016686:	e800                	sd	s0,16(s0)
    80016688:	0100                	addi	s0,sp,128
    8001668a:	0000                	unimp
    8001668c:	0100                	addi	s0,sp,128
    8001668e:	0000                	unimp
    80016690:	0000                	unimp
    80016692:	0300                	addi	s0,sp,384
    80016694:	0000                	unimp
    80016696:	0400                	addi	s0,sp,512
    80016698:	0000                	unimp
    8001669a:	6901                	0x6901
    8001669c:	656d                	lui	a0,0x1b
    8001669e:	006d                	c.nop	27
    800166a0:	0000                	unimp
    800166a2:	0200                	addi	s0,sp,256
    800166a4:	0000                	unimp
    800166a6:	0200                	addi	s0,sp,256
    800166a8:	0000                	unimp
    800166aa:	0200                	addi	s0,sp,256
    800166ac:	0000                	unimp
    800166ae:	0900                	addi	s0,sp,144
    800166b0:	64646123          	0x64646123
    800166b4:	6572                	ld	a0,280(sp)
    800166b6:	632d7373          	csrrci	t1,0x632,26
    800166ba:	6c65                	lui	s8,0x19
    800166bc:	736c                	ld	a1,224(a4)
    800166be:	2300                	fld	fs0,0(a4)
    800166c0:	657a6973          	csrrsi	s2,0x657,20
    800166c4:	632d                	lui	t1,0xb
    800166c6:	6c65                	lui	s8,0x19
    800166c8:	736c                	ld	a1,224(a4)
    800166ca:	6300                	ld	s0,0(a4)
    800166cc:	61706d6f          	jal	s10,8001d4e2 <_dtb+0x74e2>
    800166d0:	6974                	ld	a3,208(a0)
    800166d2:	6c62                	ld	s8,24(sp)
    800166d4:	0065                	c.nop	25
    800166d6:	6f6d                	lui	t5,0x1b
    800166d8:	6564                	ld	s1,200(a0)
    800166da:	006c                	addi	a1,sp,12
    800166dc:	636f6c63          	bltu	t5,s6,80016d14 <_dtb+0xd14>
    800166e0:	72662d6b          	0x72662d6b
    800166e4:	7165                	addi	sp,sp,-400
    800166e6:	6575                	lui	a0,0x1d
    800166e8:	636e                	ld	t1,216(sp)
    800166ea:	0079                	c.nop	30
    800166ec:	2d64                	fld	fs1,216(a0)
    800166ee:	68636163          	bltu	t1,t1,80016d70 <_dtb+0xd70>
    800166f2:	2d65                	addiw	s10,s10,25
    800166f4:	6c62                	ld	s8,24(sp)
    800166f6:	2d6b636f          	jal	t1,800cc9cc <uart_base_ptr+0xac9cc>
    800166fa:	657a6973          	csrrsi	s2,0x657,20
    800166fe:	6400                	ld	s0,8(s0)
    80016700:	632d                	lui	t1,0xb
    80016702:	6361                	lui	t1,0x18
    80016704:	6568                	ld	a0,200(a0)
    80016706:	732d                	lui	t1,0xfffeb
    80016708:	7465                	lui	s0,0xffff9
    8001670a:	2d640073          	0x2d640073
    8001670e:	68636163          	bltu	t1,t1,80016d90 <_dtb+0xd90>
    80016712:	2d65                	addiw	s10,s10,25
    80016714:	657a6973          	csrrsi	s2,0x657,20
    80016718:	6400                	ld	s0,8(s0)
    8001671a:	742d                	lui	s0,0xfffeb
    8001671c:	626c                	ld	a1,192(a2)
    8001671e:	732d                	lui	t1,0xfffeb
    80016720:	7465                	lui	s0,0xffff9
    80016722:	2d640073          	0x2d640073
    80016726:	6c74                	ld	a3,216(s0)
    80016728:	2d62                	fld	fs10,24(sp)
    8001672a:	657a6973          	csrrsi	s2,0x657,20
    8001672e:	6400                	ld	s0,8(s0)
    80016730:	7665                	lui	a2,0xffff9
    80016732:	6369                	lui	t1,0x1a
    80016734:	5f65                	li	t5,-7
    80016736:	7974                	ld	a3,240(a0)
    80016738:	6570                	ld	a2,200(a0)
    8001673a:	6900                	ld	s0,16(a0)
    8001673c:	632d                	lui	t1,0xb
    8001673e:	6361                	lui	t1,0x18
    80016740:	6568                	ld	a0,200(a0)
    80016742:	622d                	lui	tp,0xb
    80016744:	6f6c                	ld	a1,216(a4)
    80016746:	732d6b63          	bltu	s10,s2,80016e7c <_dtb+0xe7c>
    8001674a:	7a69                	lui	s4,0xffffa
    8001674c:	0065                	c.nop	25
    8001674e:	2d69                	addiw	s10,s10,26
    80016750:	68636163          	bltu	t1,t1,80016dd2 <_dtb+0xdd2>
    80016754:	2d65                	addiw	s10,s10,25
    80016756:	73746573          	csrrsi	a0,0x737,8
    8001675a:	6900                	ld	s0,16(a0)
    8001675c:	632d                	lui	t1,0xb
    8001675e:	6361                	lui	t1,0x18
    80016760:	6568                	ld	a0,200(a0)
    80016762:	732d                	lui	t1,0xfffeb
    80016764:	7a69                	lui	s4,0xffffa
    80016766:	0065                	c.nop	25
    80016768:	2d69                	addiw	s10,s10,26
    8001676a:	6c74                	ld	a3,216(s0)
    8001676c:	2d62                	fld	fs10,24(sp)
    8001676e:	73746573          	csrrsi	a0,0x737,8
    80016772:	6900                	ld	s0,16(a0)
    80016774:	742d                	lui	s0,0xfffeb
    80016776:	626c                	ld	a1,192(a2)
    80016778:	732d                	lui	t1,0xfffeb
    8001677a:	7a69                	lui	s4,0xffffa
    8001677c:	0065                	c.nop	25
    8001677e:	6d6d                	lui	s10,0x1b
    80016780:	2d75                	addiw	s10,s10,29
    80016782:	7974                	ld	a3,240(a0)
    80016784:	6570                	ld	a2,200(a0)
    80016786:	6e00                	ld	s0,24(a2)
    80016788:	7865                	lui	a6,0xffff9
    8001678a:	2d74                	fld	fa3,216(a0)
    8001678c:	656c                	ld	a1,200(a0)
    8001678e:	6576                	ld	a0,344(sp)
    80016790:	2d6c                	fld	fa1,216(a0)
    80016792:	68636163          	bltu	t1,t1,80016e14 <_dtb+0xe14>
    80016796:	0065                	c.nop	25
    80016798:	6572                	ld	a0,280(sp)
    8001679a:	69720067          	jr	1687(tp) # 0 <_start-0x80000000>
    8001679e:	2c766373          	csrrsi	t1,0x2c7,12
    800167a2:	7369                	lui	t1,0xffffa
    800167a4:	0061                	c.nop	24
    800167a6:	74617473          	csrrci	s0,0x746,2
    800167aa:	7375                	lui	t1,0xffffd
    800167ac:	7400                	ld	s0,40(s0)
    800167ae:	6d69                	lui	s10,0x1a
    800167b0:	6265                	lui	tp,0x19
    800167b2:	7361                	lui	t1,0xffff8
    800167b4:	2d65                	addiw	s10,s10,25
    800167b6:	7266                	ld	tp,120(sp)
    800167b8:	7165                	addi	sp,sp,-400
    800167ba:	6575                	lui	a0,0x1d
    800167bc:	636e                	ld	t1,216(sp)
    800167be:	0079                	c.nop	30
    800167c0:	6c74                	ld	a3,216(s0)
    800167c2:	2d62                	fld	fs10,24(sp)
    800167c4:	696c7073          	csrci	0x696,24
    800167c8:	0074                	addi	a3,sp,12
    800167ca:	746e6923          	0x746e6923
    800167ce:	7265                	lui	tp,0xffff9
    800167d0:	7572                	ld	a0,312(sp)
    800167d2:	7470                	ld	a2,232(s0)
    800167d4:	632d                	lui	t1,0xb
    800167d6:	6c65                	lui	s8,0x19
    800167d8:	736c                	ld	a1,224(a4)
    800167da:	6900                	ld	s0,16(a0)
    800167dc:	746e                	ld	s0,248(sp)
    800167de:	7265                	lui	tp,0xffff9
    800167e0:	7572                	ld	a0,312(sp)
    800167e2:	7470                	ld	a2,232(s0)
    800167e4:	632d                	lui	t1,0xb
    800167e6:	72746e6f          	jal	t3,8005d70c <uart_base_ptr+0x3d70c>
    800167ea:	656c6c6f          	jal	s8,800dce40 <uart_base_ptr+0xbce40>
    800167ee:	0072                	c.slli	zero,0x1c
    800167f0:	696c                	ld	a1,208(a0)
    800167f2:	756e                	ld	a0,248(sp)
    800167f4:	2c78                	fld	fa4,216(s0)
    800167f6:	6870                	ld	a2,208(s0)
    800167f8:	6e61                	lui	t3,0x18
    800167fa:	6c64                	ld	s1,216(s0)
    800167fc:	0065                	c.nop	25
    800167fe:	6172                	ld	sp,280(sp)
    80016800:	676e                	ld	a4,216(sp)
    80016802:	7365                	lui	t1,0xffff9
    80016804:	6900                	ld	s0,16(a0)
    80016806:	746e                	ld	s0,248(sp)
    80016808:	7265                	lui	tp,0xffff9
    8001680a:	7572                	ld	a0,312(sp)
    8001680c:	7470                	ld	a2,232(s0)
    8001680e:	78652d73          	csrrs	s10,0x786,a0
    80016812:	6574                	ld	a3,200(a0)
    80016814:	646e                	ld	s0,216(sp)
    80016816:	6465                	lui	s0,0x19
    80016818:	7200                	ld	s0,32(a2)
    8001681a:	6765                	lui	a4,0x19
    8001681c:	6e2d                	lui	t3,0xb
    8001681e:	6d61                	lui	s10,0x18
    80016820:	7365                	lui	t1,0xffff9
    80016822:	6900                	ld	s0,16(a0)
    80016824:	746e                	ld	s0,248(sp)
    80016826:	7265                	lui	tp,0xffff9
    80016828:	7572                	ld	a0,312(sp)
    8001682a:	7470                	ld	a2,232(s0)
    8001682c:	702d                	c.lui	zero,0xfffeb
    8001682e:	7261                	lui	tp,0xffff8
    80016830:	6e65                	lui	t3,0x19
    80016832:	0074                	addi	a3,sp,12
    80016834:	6e69                	lui	t3,0x1a
    80016836:	6574                	ld	a3,200(a0)
    80016838:	7272                	ld	tp,312(sp)
    8001683a:	7075                	c.lui	zero,0xffffd
    8001683c:	7374                	ld	a3,224(a4)
    8001683e:	7200                	ld	s0,32(a2)
    80016840:	7369                	lui	t1,0xffffa
    80016842:	6d2c7663          	bgeu	s8,s2,80016f0e <_dtb+0xf0e>
    80016846:	7861                	lui	a6,0xffff8
    80016848:	702d                	c.lui	zero,0xfffeb
    8001684a:	6972                	ld	s2,280(sp)
    8001684c:	7469726f          	jal	tp,800adf92 <uart_base_ptr+0x8df92>
    80016850:	0079                	c.nop	30
    80016852:	6972                	ld	s2,280(sp)
    80016854:	2c766373          	csrrsi	t1,0x2c7,12
    80016858:	646e                	ld	s0,216(sp)
    8001685a:	7665                	lui	a2,0xffff9
	...

Disassembly of section .sdata:

0000000080020000 <uart_base_ptr>:
    80020000:	1000                	addi	s0,sp,32
    80020002:	6000                	ld	s0,0(s0)
    80020004:	0000                	unimp
	...

Disassembly of section .comment:

0000000000000000 <.comment>:
   0:	3a434347          	fmsub.d	ft6,ft6,ft4,ft7,rmm
   4:	2820                	fld	fs0,80(s0)
   6:	29554e47          	fmsub.s	ft8,fa0,fs5,ft5,rmm
   a:	3820                	fld	fs0,112(s0)
   c:	322e                	fld	ft4,232(sp)
   e:	302e                	fld	ft0,232(sp)
	...
